
C:\Users\DH\AppData\Local\Temp\arduino-sketch-5BDA2A1E7137BCA818DA396074475103/insulin_peb_revb.ino.elf:     file format elf32-avr


Disassembly of section .text:

00000000 <__vectors>:
__vectors():
       0:	0c 94 aa 01 	jmp	0x354	; 0x354 <__dtors_end>
       4:	0c 94 8d 19 	jmp	0x331a	; 0x331a <__vector_1>
       8:	0c 94 b8 19 	jmp	0x3370	; 0x3370 <__vector_2>
       c:	0c 94 e3 19 	jmp	0x33c6	; 0x33c6 <__vector_3>
      10:	0c 94 0e 1a 	jmp	0x341c	; 0x341c <__vector_4>
      14:	0c 94 39 1a 	jmp	0x3472	; 0x3472 <__vector_5>
      18:	0c 94 64 1a 	jmp	0x34c8	; 0x34c8 <__vector_6>
      1c:	0c 94 8f 1a 	jmp	0x351e	; 0x351e <__vector_7>
      20:	0c 94 ba 1a 	jmp	0x3574	; 0x3574 <__vector_8>
      24:	0c 94 93 10 	jmp	0x2126	; 0x2126 <__vector_10>
      28:	0c 94 93 10 	jmp	0x2126	; 0x2126 <__vector_10>
      2c:	0c 94 93 10 	jmp	0x2126	; 0x2126 <__vector_10>
      30:	0c 94 db 01 	jmp	0x3b6	; 0x3b6 <__bad_interrupt>
      34:	0c 94 b2 18 	jmp	0x3164	; 0x3164 <__vector_13>
      38:	0c 94 db 01 	jmp	0x3b6	; 0x3b6 <__bad_interrupt>
      3c:	0c 94 db 01 	jmp	0x3b6	; 0x3b6 <__bad_interrupt>
      40:	0c 94 db 01 	jmp	0x3b6	; 0x3b6 <__bad_interrupt>
      44:	0c 94 db 01 	jmp	0x3b6	; 0x3b6 <__bad_interrupt>
      48:	0c 94 db 01 	jmp	0x3b6	; 0x3b6 <__bad_interrupt>
      4c:	0c 94 db 01 	jmp	0x3b6	; 0x3b6 <__bad_interrupt>
      50:	0c 94 db 01 	jmp	0x3b6	; 0x3b6 <__bad_interrupt>
      54:	0c 94 db 01 	jmp	0x3b6	; 0x3b6 <__bad_interrupt>
      58:	0c 94 db 01 	jmp	0x3b6	; 0x3b6 <__bad_interrupt>
      5c:	0c 94 f5 1a 	jmp	0x35ea	; 0x35ea <__vector_23>
      60:	0c 94 db 01 	jmp	0x3b6	; 0x3b6 <__bad_interrupt>
      64:	0c 94 b2 13 	jmp	0x2764	; 0x2764 <__vector_25>
      68:	0c 94 e8 13 	jmp	0x27d0	; 0x27d0 <__vector_26>
      6c:	0c 94 db 01 	jmp	0x3b6	; 0x3b6 <__bad_interrupt>
      70:	0c 94 db 01 	jmp	0x3b6	; 0x3b6 <__bad_interrupt>
      74:	0c 94 db 01 	jmp	0x3b6	; 0x3b6 <__bad_interrupt>
      78:	0c 94 db 01 	jmp	0x3b6	; 0x3b6 <__bad_interrupt>
      7c:	0c 94 db 01 	jmp	0x3b6	; 0x3b6 <__bad_interrupt>
      80:	0c 94 db 01 	jmp	0x3b6	; 0x3b6 <__bad_interrupt>
      84:	0c 94 db 01 	jmp	0x3b6	; 0x3b6 <__bad_interrupt>
      88:	0c 94 db 01 	jmp	0x3b6	; 0x3b6 <__bad_interrupt>
      8c:	0c 94 db 01 	jmp	0x3b6	; 0x3b6 <__bad_interrupt>
      90:	0c 94 49 14 	jmp	0x2892	; 0x2892 <__vector_36>
      94:	0c 94 7f 14 	jmp	0x28fe	; 0x28fe <__vector_37>
      98:	0c 94 db 01 	jmp	0x3b6	; 0x3b6 <__bad_interrupt>
      9c:	0c 94 c7 0b 	jmp	0x178e	; 0x178e <__vector_39>
      a0:	0c 94 db 01 	jmp	0x3b6	; 0x3b6 <__bad_interrupt>
      a4:	0c 94 db 01 	jmp	0x3b6	; 0x3b6 <__bad_interrupt>
      a8:	0c 94 db 01 	jmp	0x3b6	; 0x3b6 <__bad_interrupt>
      ac:	0c 94 db 01 	jmp	0x3b6	; 0x3b6 <__bad_interrupt>
      b0:	0c 94 db 01 	jmp	0x3b6	; 0x3b6 <__bad_interrupt>
      b4:	0c 94 db 01 	jmp	0x3b6	; 0x3b6 <__bad_interrupt>
      b8:	0c 94 db 01 	jmp	0x3b6	; 0x3b6 <__bad_interrupt>
      bc:	0c 94 db 01 	jmp	0x3b6	; 0x3b6 <__bad_interrupt>
      c0:	0c 94 db 01 	jmp	0x3b6	; 0x3b6 <__bad_interrupt>
      c4:	0c 94 db 01 	jmp	0x3b6	; 0x3b6 <__bad_interrupt>
      c8:	0c 94 db 01 	jmp	0x3b6	; 0x3b6 <__bad_interrupt>
      cc:	0c 94 db 01 	jmp	0x3b6	; 0x3b6 <__bad_interrupt>
      d0:	0c 94 db 01 	jmp	0x3b6	; 0x3b6 <__bad_interrupt>
      d4:	0c 94 db 01 	jmp	0x3b6	; 0x3b6 <__bad_interrupt>
      d8:	0c 94 db 01 	jmp	0x3b6	; 0x3b6 <__bad_interrupt>
      dc:	0c 94 db 01 	jmp	0x3b6	; 0x3b6 <__bad_interrupt>
      e0:	0c 94 db 01 	jmp	0x3b6	; 0x3b6 <__bad_interrupt>

000000e4 <__trampolines_start>:
__trampolines_start():
      e4:	0c 94 5f 1c 	jmp	0x38be	; 0x38be <turnOffPWM+0x94>
      e8:	0c 94 39 1c 	jmp	0x3872	; 0x3872 <turnOffPWM+0x48>
      ec:	0c 94 63 1c 	jmp	0x38c6	; 0x38c6 <turnOffPWM+0x9c>
      f0:	0c 94 3e 10 	jmp	0x207c	; 0x207c <SoftwareSerial::available()>
      f4:	0c 94 7f 0b 	jmp	0x16fe	; 0x16fe <_GLOBAL__sub_I__ZN7TwoWire8rxBufferE>
      f8:	0c 94 b1 12 	jmp	0x2562	; 0x2562 <HardwareSerial::peek()>
      fc:	0c 94 67 1c 	jmp	0x38ce	; 0x38ce <turnOffPWM+0xa4>
     100:	0c 94 64 08 	jmp	0x10c8	; 0x10c8 <Melody_Proc()+0xd6>
     104:	0c 94 26 10 	jmp	0x204c	; 0x204c <SoftwareSerial::peek()>
     108:	0c 94 e0 14 	jmp	0x29c0	; 0x29c0 <Print::write(unsigned char const*, unsigned int)>
     10c:	0c 94 33 1c 	jmp	0x3866	; 0x3866 <turnOffPWM+0x3c>
     110:	0c 94 c9 0f 	jmp	0x1f92	; 0x1f92 <SoftwareSerial::write(unsigned char)>
     114:	0c 94 47 1c 	jmp	0x388e	; 0x388e <turnOffPWM+0x64>
     118:	0c 94 7d 08 	jmp	0x10fa	; 0x10fa <Melody_Proc()+0x108>
     11c:	0c 94 67 19 	jmp	0x32ce	; 0x32ce <attachInterrupt+0xa8>
     120:	0c 94 00 0b 	jmp	0x1600	; 0x1600 <TwoWire::read()>
     124:	0c 94 13 0b 	jmp	0x1626	; 0x1626 <TwoWire::peek()>
     128:	0c 94 22 0b 	jmp	0x1644	; 0x1644 <TwoWire::flush()>
     12c:	0c 94 39 19 	jmp	0x3272	; 0x3272 <attachInterrupt+0x4c>
     130:	0c 94 59 1c 	jmp	0x38b2	; 0x38b2 <turnOffPWM+0x88>
     134:	0c 94 80 19 	jmp	0x3300	; 0x3300 <attachInterrupt+0xda>
     138:	0c 94 f6 0a 	jmp	0x15ec	; 0x15ec <Print::availableForWrite()>
     13c:	0c 94 31 19 	jmp	0x3262	; 0x3262 <attachInterrupt+0x3c>
     140:	0c 94 19 07 	jmp	0xe32	; 0xe32 <updateLED()+0x19a>
     144:	0c 94 f9 0a 	jmp	0x15f2	; 0x15f2 <TwoWire::available()>
     148:	0c 94 23 0b 	jmp	0x1646	; 0x1646 <TwoWire::write(unsigned char)>
     14c:	0c 94 55 1c 	jmp	0x38aa	; 0x38aa <turnOffPWM+0x80>
     150:	0c 94 4a 08 	jmp	0x1094	; 0x1094 <Melody_Proc()+0xa2>
     154:	0c 94 4b 1c 	jmp	0x3896	; 0x3896 <turnOffPWM+0x6c>
     158:	0c 94 6d 1c 	jmp	0x38da	; 0x38da <turnOffPWM+0xb0>
     15c:	0c 94 4f 0f 	jmp	0x1e9e	; 0x1e9e <isr()>
     160:	0c 94 3d 1c 	jmp	0x387a	; 0x387a <turnOffPWM+0x50>
     164:	0c 94 5e 08 	jmp	0x10bc	; 0x10bc <Melody_Proc()+0xca>
     168:	0c 94 b3 14 	jmp	0x2966	; 0x2966 <_GLOBAL__sub_I___vector_36>
     16c:	0c 94 58 13 	jmp	0x26b0	; 0x26b0 <HardwareSerial::write(unsigned char)>
     170:	0c 94 71 1c 	jmp	0x38e2	; 0x38e2 <turnOffPWM+0xb8>
     174:	0c 94 75 1c 	jmp	0x38ea	; 0x38ea <turnOffPWM+0xc0>
     178:	0c 94 78 1c 	jmp	0x38f0	; 0x38f0 <turnOffPWM+0xc6>
     17c:	0c 94 e2 12 	jmp	0x25c4	; 0x25c4 <serialEventRun()>
     180:	0c 94 51 1c 	jmp	0x38a2	; 0x38a2 <turnOffPWM+0x78>
     184:	0c 94 bf 12 	jmp	0x257e	; 0x257e <HardwareSerial::read()>
     188:	0c 94 88 09 	jmp	0x1310	; 0x1310 <_GLOBAL__sub_D_Key>
     18c:	0c 94 54 08 	jmp	0x10a8	; 0x10a8 <Melody_Proc()+0xb6>
     190:	0c 94 73 19 	jmp	0x32e6	; 0x32e6 <attachInterrupt+0xc0>
     194:	0c 94 15 07 	jmp	0xe2a	; 0xe2a <updateLED()+0x192>
     198:	0c 94 25 10 	jmp	0x204a	; 0x204a <SoftwareSerial::flush()>
     19c:	0c 94 be 08 	jmp	0x117c	; 0x117c <Melody_Proc()+0x18a>
     1a0:	0c 94 dd 01 	jmp	0x3ba	; 0x3ba <A_CHANGE()>
     1a4:	0c 94 c7 08 	jmp	0x118e	; 0x118e <Melody_Proc()+0x19c>
     1a8:	0c 94 71 08 	jmp	0x10e2	; 0x10e2 <Melody_Proc()+0xf0>
     1ac:	0c 94 a5 12 	jmp	0x254a	; 0x254a <HardwareSerial::available()>
     1b0:	0c 94 52 19 	jmp	0x32a4	; 0x32a4 <attachInterrupt+0x7e>
     1b4:	0c 94 a9 14 	jmp	0x2952	; 0x2952 <Serial1_available()>
     1b8:	0c 94 1c 14 	jmp	0x2838	; 0x2838 <_GLOBAL__sub_I___vector_25>
     1bc:	0c 94 09 09 	jmp	0x1212	; 0x1212 <_GLOBAL__sub_I_Key>
     1c0:	0c 94 12 19 	jmp	0x3224	; 0x3224 <nothing>
     1c4:	0c 94 12 14 	jmp	0x2824	; 0x2824 <Serial0_available()>
     1c8:	0c 94 a8 0f 	jmp	0x1f50	; 0x1f50 <SoftwareSerial::read()>
     1cc:	0c 94 d3 12 	jmp	0x25a6	; 0x25a6 <HardwareSerial::availableForWrite()>
     1d0:	0c 94 38 13 	jmp	0x2670	; 0x2670 <HardwareSerial::flush()>
     1d4:	0c 94 40 07 	jmp	0xe80	; 0xe80 <updateLED()+0x1e8>
     1d8:	0c 94 41 1c 	jmp	0x3882	; 0x3882 <turnOffPWM+0x58>
     1dc:	0c 94 45 19 	jmp	0x328a	; 0x328a <attachInterrupt+0x64>
     1e0:	0c 94 79 1c 	jmp	0x38f2	; 0x38f2 <turnOffPWM+0xc8>
     1e4:	0c 94 28 07 	jmp	0xe50	; 0xe50 <updateLED()+0x1b8>
     1e8:	0c 94 94 08 	jmp	0x1128	; 0x1128 <Melody_Proc()+0x136>
     1ec:	0c 94 ec 08 	jmp	0x11d8	; 0x11d8 <Melody_Proc()+0x1e6>
     1f0:	0c 94 52 0b 	jmp	0x16a4	; 0x16a4 <TwoWire::write(unsigned char const*, unsigned int)>
     1f4:	0c 94 32 07 	jmp	0xe64	; 0xe64 <updateLED()+0x1cc>

000001f8 <__trampolines_end>:
__trampolines_end():
     1f8:	02 00       	Address 0x000001f8 is out of bounds.
.word	0xffff	; ????

000001f9 <digital_pin_to_timer_PGM>:
     1f9:	00 00 0b 0c 03 0a 0d 0e 0f 09 08 04 05 02 00 00     ................
	...
     225:	13 12 11 00 00 00 00 00 00 00 00 00 00 00 00 00     ................
	...

0000024f <digital_pin_to_bit_mask_PGM>:
     24f:	01 02 10 20 20 08 08 10 20 40 10 20 40 80 02 01     ...  ... @. @...
     25f:	02 01 08 04 02 01 01 02 04 08 10 20 40 80 80 40     ........... @..@
     26f:	20 10 08 04 02 01 80 04 02 01 80 40 20 10 08 04      ..........@ ...
     27f:	02 01 08 04 02 01 01 02 04 08 10 20 40 80 01 02     ........... @...
     28f:	04 08 10 20 40 80 04 40 80 04 80 08 10 10 20 40     ... @..@...... @
     29f:	04 08 10 20 40 80                                   ... @.

000002a5 <digital_pin_to_port_PGM>:
     2a5:	05 05 05 05 07 05 08 08 08 08 02 02 02 02 0a 0a     ................
     2b5:	08 08 04 04 04 04 01 01 01 01 01 01 01 01 03 03     ................
     2c5:	03 03 03 03 03 03 04 07 07 07 0c 0c 0c 0c 0c 0c     ................
     2d5:	0c 0c 02 02 02 02 06 06 06 06 06 06 06 06 0b 0b     ................
     2e5:	0b 0b 0b 0b 0b 0b 05 05 05 08 08 07 07 04 04 04     ................
     2f5:	0a 0a 0a 0a 0a 0a                                   ......

000002fb <port_to_input_PGM>:
     2fb:	00 00 20 00 23 00 26 00 29 00 2c 00 2f 00 32 00     .. .#.&.).,./.2.
     30b:	00 01 00 00 03 01 06 01 09 01                       ..........

00000315 <port_to_output_PGM>:
     315:	00 00 22 00 25 00 28 00 2b 00 2e 00 31 00 34 00     ..".%.(.+...1.4.
     325:	02 01 00 00 05 01 08 01 0b 01                       ..........

0000032f <port_to_mode_PGM>:
     32f:	00 00 21 00 24 00 27 00 2a 00 2d 00 30 00 33 00     ..!.$.'.*.-.0.3.
     33f:	01 01 00 00 04 01 07 01 0a 01 00                    ...........

0000034a <__ctors_start>:
__ctors_start():
     34a:	09 09       	sbc	r16, r9
     34c:	7f 0b       	sbc	r23, r31
     34e:	1c 14       	cp	r1, r12
     350:	b3 14       	cp	r11, r3

00000352 <__ctors_end>:
__dtors_start():
     352:	88 09       	sbc	r24, r8

00000354 <__dtors_end>:
__dtors_end():
     354:	11 24       	eor	r1, r1
     356:	1f be       	out	0x3f, r1	; 63
     358:	cf ef       	ldi	r28, 0xFF	; 255
     35a:	d1 e2       	ldi	r29, 0x21	; 33
     35c:	de bf       	out	0x3e, r29	; 62
     35e:	cd bf       	out	0x3d, r28	; 61
     360:	00 e0       	ldi	r16, 0x00	; 0
     362:	0c bf       	out	0x3c, r16	; 60

00000364 <__do_copy_data>:
__do_copy_data():
/home/jenkins-mingw32/workspace/avr-gcc-staging/label/Ubuntu14.04x64-mingw32/gcc-build/avr/avr6/libgcc/../../../../gcc/libgcc/config/avr/lib1funcs.S:2373
     364:	12 e0       	ldi	r17, 0x02	; 2
/home/jenkins-mingw32/workspace/avr-gcc-staging/label/Ubuntu14.04x64-mingw32/gcc-build/avr/avr6/libgcc/../../../../gcc/libgcc/config/avr/lib1funcs.S:2374
     366:	a0 e0       	ldi	r26, 0x00	; 0
/home/jenkins-mingw32/workspace/avr-gcc-staging/label/Ubuntu14.04x64-mingw32/gcc-build/avr/avr6/libgcc/../../../../gcc/libgcc/config/avr/lib1funcs.S:2375
     368:	b2 e0       	ldi	r27, 0x02	; 2
/home/jenkins-mingw32/workspace/avr-gcc-staging/label/Ubuntu14.04x64-mingw32/gcc-build/avr/avr6/libgcc/../../../../gcc/libgcc/config/avr/lib1funcs.S:2376
     36a:	e6 e2       	ldi	r30, 0x26	; 38
/home/jenkins-mingw32/workspace/avr-gcc-staging/label/Ubuntu14.04x64-mingw32/gcc-build/avr/avr6/libgcc/../../../../gcc/libgcc/config/avr/lib1funcs.S:2377
     36c:	fb e3       	ldi	r31, 0x3B	; 59
/home/jenkins-mingw32/workspace/avr-gcc-staging/label/Ubuntu14.04x64-mingw32/gcc-build/avr/avr6/libgcc/../../../../gcc/libgcc/config/avr/lib1funcs.S:2378
     36e:	00 e0       	ldi	r16, 0x00	; 0
/home/jenkins-mingw32/workspace/avr-gcc-staging/label/Ubuntu14.04x64-mingw32/gcc-build/avr/avr6/libgcc/../../../../gcc/libgcc/config/avr/lib1funcs.S:2379
     370:	0b bf       	out	0x3b, r16	; 59
/home/jenkins-mingw32/workspace/avr-gcc-staging/label/Ubuntu14.04x64-mingw32/gcc-build/avr/avr6/libgcc/../../../../gcc/libgcc/config/avr/lib1funcs.S:2380
     372:	02 c0       	rjmp	.+4      	; 0x378 <__do_copy_data+0x14>
/home/jenkins-mingw32/workspace/avr-gcc-staging/label/Ubuntu14.04x64-mingw32/gcc-build/avr/avr6/libgcc/../../../../gcc/libgcc/config/avr/lib1funcs.S:2382
     374:	07 90       	elpm	r0, Z+
/home/jenkins-mingw32/workspace/avr-gcc-staging/label/Ubuntu14.04x64-mingw32/gcc-build/avr/avr6/libgcc/../../../../gcc/libgcc/config/avr/lib1funcs.S:2383
     376:	0d 92       	st	X+, r0
/home/jenkins-mingw32/workspace/avr-gcc-staging/label/Ubuntu14.04x64-mingw32/gcc-build/avr/avr6/libgcc/../../../../gcc/libgcc/config/avr/lib1funcs.S:2385
     378:	a4 37       	cpi	r26, 0x74	; 116
/home/jenkins-mingw32/workspace/avr-gcc-staging/label/Ubuntu14.04x64-mingw32/gcc-build/avr/avr6/libgcc/../../../../gcc/libgcc/config/avr/lib1funcs.S:2386
     37a:	b1 07       	cpc	r27, r17
/home/jenkins-mingw32/workspace/avr-gcc-staging/label/Ubuntu14.04x64-mingw32/gcc-build/avr/avr6/libgcc/../../../../gcc/libgcc/config/avr/lib1funcs.S:2387
     37c:	d9 f7       	brne	.-10     	; 0x374 <__do_copy_data+0x10>

0000037e <__do_clear_bss>:
__do_clear_bss():
/home/jenkins-mingw32/workspace/avr-gcc-staging/label/Ubuntu14.04x64-mingw32/gcc-build/avr/avr6/libgcc/../../../../gcc/libgcc/config/avr/lib1funcs.S:2441
     37e:	25 e0       	ldi	r18, 0x05	; 5
/home/jenkins-mingw32/workspace/avr-gcc-staging/label/Ubuntu14.04x64-mingw32/gcc-build/avr/avr6/libgcc/../../../../gcc/libgcc/config/avr/lib1funcs.S:2442
     380:	a4 e7       	ldi	r26, 0x74	; 116
/home/jenkins-mingw32/workspace/avr-gcc-staging/label/Ubuntu14.04x64-mingw32/gcc-build/avr/avr6/libgcc/../../../../gcc/libgcc/config/avr/lib1funcs.S:2443
     382:	b2 e0       	ldi	r27, 0x02	; 2
/home/jenkins-mingw32/workspace/avr-gcc-staging/label/Ubuntu14.04x64-mingw32/gcc-build/avr/avr6/libgcc/../../../../gcc/libgcc/config/avr/lib1funcs.S:2444
     384:	01 c0       	rjmp	.+2      	; 0x388 <.do_clear_bss_start>

00000386 <.do_clear_bss_loop>:
/home/jenkins-mingw32/workspace/avr-gcc-staging/label/Ubuntu14.04x64-mingw32/gcc-build/avr/avr6/libgcc/../../../../gcc/libgcc/config/avr/lib1funcs.S:2446
     386:	1d 92       	st	X+, r1

00000388 <.do_clear_bss_start>:
/home/jenkins-mingw32/workspace/avr-gcc-staging/label/Ubuntu14.04x64-mingw32/gcc-build/avr/avr6/libgcc/../../../../gcc/libgcc/config/avr/lib1funcs.S:2448
     388:	ad 36       	cpi	r26, 0x6D	; 109
/home/jenkins-mingw32/workspace/avr-gcc-staging/label/Ubuntu14.04x64-mingw32/gcc-build/avr/avr6/libgcc/../../../../gcc/libgcc/config/avr/lib1funcs.S:2449
     38a:	b2 07       	cpc	r27, r18
/home/jenkins-mingw32/workspace/avr-gcc-staging/label/Ubuntu14.04x64-mingw32/gcc-build/avr/avr6/libgcc/../../../../gcc/libgcc/config/avr/lib1funcs.S:2450
     38c:	e1 f7       	brne	.-8      	; 0x386 <.do_clear_bss_loop>

0000038e <__do_global_ctors>:
__do_global_ctors():
/home/jenkins-mingw32/workspace/avr-gcc-staging/label/Ubuntu14.04x64-mingw32/gcc-build/avr/avr6/libgcc/../../../../gcc/libgcc/config/avr/lib1funcs.S:2466
     38e:	11 e0       	ldi	r17, 0x01	; 1
/home/jenkins-mingw32/workspace/avr-gcc-staging/label/Ubuntu14.04x64-mingw32/gcc-build/avr/avr6/libgcc/../../../../gcc/libgcc/config/avr/lib1funcs.S:2467
     390:	c9 ea       	ldi	r28, 0xA9	; 169
/home/jenkins-mingw32/workspace/avr-gcc-staging/label/Ubuntu14.04x64-mingw32/gcc-build/avr/avr6/libgcc/../../../../gcc/libgcc/config/avr/lib1funcs.S:2468
     392:	d1 e0       	ldi	r29, 0x01	; 1
/home/jenkins-mingw32/workspace/avr-gcc-staging/label/Ubuntu14.04x64-mingw32/gcc-build/avr/avr6/libgcc/../../../../gcc/libgcc/config/avr/lib1funcs.S:2470
     394:	00 e0       	ldi	r16, 0x00	; 0
/home/jenkins-mingw32/workspace/avr-gcc-staging/label/Ubuntu14.04x64-mingw32/gcc-build/avr/avr6/libgcc/../../../../gcc/libgcc/config/avr/lib1funcs.S:2472
     396:	06 c0       	rjmp	.+12     	; 0x3a4 <__do_global_ctors+0x16>
/home/jenkins-mingw32/workspace/avr-gcc-staging/label/Ubuntu14.04x64-mingw32/gcc-build/avr/avr6/libgcc/../../../../gcc/libgcc/config/avr/lib1funcs.S:2474
     398:	21 97       	sbiw	r28, 0x01	; 1
/home/jenkins-mingw32/workspace/avr-gcc-staging/label/Ubuntu14.04x64-mingw32/gcc-build/avr/avr6/libgcc/../../../../gcc/libgcc/config/avr/lib1funcs.S:2476
     39a:	01 09       	sbc	r16, r1
/home/jenkins-mingw32/workspace/avr-gcc-staging/label/Ubuntu14.04x64-mingw32/gcc-build/avr/avr6/libgcc/../../../../gcc/libgcc/config/avr/lib1funcs.S:2477
     39c:	80 2f       	mov	r24, r16
/home/jenkins-mingw32/workspace/avr-gcc-staging/label/Ubuntu14.04x64-mingw32/gcc-build/avr/avr6/libgcc/../../../../gcc/libgcc/config/avr/lib1funcs.S:2480
     39e:	fe 01       	movw	r30, r28
/home/jenkins-mingw32/workspace/avr-gcc-staging/label/Ubuntu14.04x64-mingw32/gcc-build/avr/avr6/libgcc/../../../../gcc/libgcc/config/avr/lib1funcs.S:2481
     3a0:	0e 94 51 1d 	call	0x3aa2	; 0x3aa2 <__tablejump2__>
/home/jenkins-mingw32/workspace/avr-gcc-staging/label/Ubuntu14.04x64-mingw32/gcc-build/avr/avr6/libgcc/../../../../gcc/libgcc/config/avr/lib1funcs.S:2483
     3a4:	c5 3a       	cpi	r28, 0xA5	; 165
/home/jenkins-mingw32/workspace/avr-gcc-staging/label/Ubuntu14.04x64-mingw32/gcc-build/avr/avr6/libgcc/../../../../gcc/libgcc/config/avr/lib1funcs.S:2484
     3a6:	d1 07       	cpc	r29, r17
/home/jenkins-mingw32/workspace/avr-gcc-staging/label/Ubuntu14.04x64-mingw32/gcc-build/avr/avr6/libgcc/../../../../gcc/libgcc/config/avr/lib1funcs.S:2486
     3a8:	80 e0       	ldi	r24, 0x00	; 0
/home/jenkins-mingw32/workspace/avr-gcc-staging/label/Ubuntu14.04x64-mingw32/gcc-build/avr/avr6/libgcc/../../../../gcc/libgcc/config/avr/lib1funcs.S:2487
     3aa:	08 07       	cpc	r16, r24
/home/jenkins-mingw32/workspace/avr-gcc-staging/label/Ubuntu14.04x64-mingw32/gcc-build/avr/avr6/libgcc/../../../../gcc/libgcc/config/avr/lib1funcs.S:2489
     3ac:	a9 f7       	brne	.-22     	; 0x398 <__do_global_ctors+0xa>
     3ae:	0e 94 e6 1a 	call	0x35cc	; 0x35cc <main>
     3b2:	0c 94 81 1d 	jmp	0x3b02	; 0x3b02 <__do_global_dtors>

000003b6 <__bad_interrupt>:
__vector_38():
     3b6:	0c 94 00 00 	jmp	0	; 0x0 <__vectors>

000003ba <A_CHANGE()>:
_Z8A_CHANGEv():
C:\Users\DH\Documents\GitHub\MCure\insulin_pen(REVB)\insulin_peb_revb/insulin_peb_revb.ino:995
{
  /*
    response_off_ctrl / response_ctrl / bf_mode / software_rst
        0 1 0     /     0 1 1     /   0     /       1
  */
  I2c.write(0x24, 0x36, 0x4D);
     3ba:	82 e0       	ldi	r24, 0x02	; 2
     3bc:	0e 94 e6 1c 	call	0x39cc	; 0x39cc <digitalRead>
     3c0:	89 2b       	or	r24, r25
     3c2:	61 f4       	brne	.+24     	; 0x3dc <A_CHANGE()+0x22>
     3c4:	83 e0       	ldi	r24, 0x03	; 3
     3c6:	0e 94 e6 1c 	call	0x39cc	; 0x39cc <digitalRead>
     3ca:	20 91 c9 02 	lds	r18, 0x02C9	; 0x8002c9 <pulses>
     3ce:	30 91 ca 02 	lds	r19, 0x02CA	; 0x8002ca <pulses+0x1>
     3d2:	89 2b       	or	r24, r25
     3d4:	61 f4       	brne	.+24     	; 0x3ee <A_CHANGE()+0x34>
     3d6:	2f 5f       	subi	r18, 0xFF	; 255
     3d8:	3f 4f       	sbci	r19, 0xFF	; 255
     3da:	0b c0       	rjmp	.+22     	; 0x3f2 <A_CHANGE()+0x38>
     3dc:	83 e0       	ldi	r24, 0x03	; 3
     3de:	0e 94 e6 1c 	call	0x39cc	; 0x39cc <digitalRead>
     3e2:	20 91 c9 02 	lds	r18, 0x02C9	; 0x8002c9 <pulses>
     3e6:	30 91 ca 02 	lds	r19, 0x02CA	; 0x8002ca <pulses+0x1>
     3ea:	89 2b       	or	r24, r25
     3ec:	a1 f7       	brne	.-24     	; 0x3d6 <A_CHANGE()+0x1c>
     3ee:	21 50       	subi	r18, 0x01	; 1
     3f0:	31 09       	sbc	r19, r1
     3f2:	30 93 ca 02 	sts	0x02CA, r19	; 0x8002ca <pulses+0x1>
     3f6:	20 93 c9 02 	sts	0x02C9, r18	; 0x8002c9 <pulses>
     3fa:	0e 94 3f 1b 	call	0x367e	; 0x367e <millis>
     3fe:	60 93 b1 02 	sts	0x02B1, r22	; 0x8002b1 <pre_encodercheck_time>
     402:	70 93 b2 02 	sts	0x02B2, r23	; 0x8002b2 <pre_encodercheck_time+0x1>
     406:	80 93 b3 02 	sts	0x02B3, r24	; 0x8002b3 <pre_encodercheck_time+0x2>
     40a:	90 93 b4 02 	sts	0x02B4, r25	; 0x8002b4 <pre_encodercheck_time+0x3>
     40e:	08 95       	ret

00000410 <Print::write(char const*) [clone .part.0]>:
_ZN5Print5writeEPKc():
     410:	fb 01       	movw	r30, r22
     412:	01 90       	ld	r0, Z+
     414:	00 20       	and	r0, r0
     416:	e9 f7       	brne	.-6      	; 0x412 <Print::write(char const*) [clone .part.0]+0x2>
     418:	31 97       	sbiw	r30, 0x01	; 1
     41a:	af 01       	movw	r20, r30
     41c:	46 1b       	sub	r20, r22
     41e:	57 0b       	sbc	r21, r23
     420:	dc 01       	movw	r26, r24
     422:	ed 91       	ld	r30, X+
     424:	fc 91       	ld	r31, X
     426:	02 80       	ldd	r0, Z+2	; 0x02
     428:	f3 81       	ldd	r31, Z+3	; 0x03
     42a:	e0 2d       	mov	r30, r0
     42c:	19 94       	eijmp

0000042e <Key_Read()>:
_Z8Key_Readv():
     42e:	0f 93       	push	r16
     430:	1f 93       	push	r17
     432:	cf 93       	push	r28
     434:	df 93       	push	r29
     436:	1f 92       	push	r1
     438:	1f 92       	push	r1
     43a:	cd b7       	in	r28, 0x3d	; 61
     43c:	de b7       	in	r29, 0x3e	; 62
     43e:	19 82       	std	Y+1, r1	; 0x01
     440:	1a 82       	std	Y+2, r1	; 0x02
     442:	8e 01       	movw	r16, r28
     444:	0f 5f       	subi	r16, 0xFF	; 255
     446:	1f 4f       	sbci	r17, 0xFF	; 255
     448:	22 e0       	ldi	r18, 0x02	; 2
     44a:	4a e2       	ldi	r20, 0x2A	; 42
     44c:	64 e2       	ldi	r22, 0x24	; 36
     44e:	85 e9       	ldi	r24, 0x95	; 149
     450:	93 e0       	ldi	r25, 0x03	; 3
     452:	0e 94 ce 0e 	call	0x1d9c	; 0x1d9c <I2C::read(unsigned char, unsigned char, unsigned char, unsigned char*)>
     456:	90 91 01 02 	lds	r25, 0x0201	; 0x800201 <Key_Read()::pre_key>
     45a:	89 81       	ldd	r24, Y+1	; 0x01
     45c:	9f 3f       	cpi	r25, 0xFF	; 255
     45e:	c9 f5       	brne	.+114    	; 0x4d2 <Key_Read()+0xa4>
     460:	81 11       	cpse	r24, r1
     462:	23 c0       	rjmp	.+70     	; 0x4aa <Key_Read()+0x7c>
     464:	8f ef       	ldi	r24, 0xFF	; 255
     466:	90 e0       	ldi	r25, 0x00	; 0
     468:	90 93 03 02 	sts	0x0203, r25	; 0x800203 <Key+0x1>
     46c:	80 93 02 02 	sts	0x0202, r24	; 0x800202 <Key>
     470:	80 91 d1 02 	lds	r24, 0x02D1	; 0x8002d1 <f_power_state>
     474:	81 30       	cpi	r24, 0x01	; 1
     476:	71 f4       	brne	.+28     	; 0x494 <Key_Read()+0x66>
     478:	80 91 97 02 	lds	r24, 0x0297	; 0x800297 <mokup_motor_run_state>
     47c:	88 23       	and	r24, r24
     47e:	51 f0       	breq	.+20     	; 0x494 <Key_Read()+0x66>
     480:	10 92 97 02 	sts	0x0297, r1	; 0x800297 <mokup_motor_run_state>
     484:	60 e0       	ldi	r22, 0x00	; 0
     486:	88 e0       	ldi	r24, 0x08	; 8
     488:	0e 94 b8 1c 	call	0x3970	; 0x3970 <digitalWrite>
     48c:	60 e0       	ldi	r22, 0x00	; 0
     48e:	87 e0       	ldi	r24, 0x07	; 7
     490:	0e 94 b8 1c 	call	0x3970	; 0x3970 <digitalWrite>
     494:	80 91 02 02 	lds	r24, 0x0202	; 0x800202 <Key>
     498:	80 93 01 02 	sts	0x0201, r24	; 0x800201 <Key_Read()::pre_key>
     49c:	0f 90       	pop	r0
     49e:	0f 90       	pop	r0
     4a0:	df 91       	pop	r29
     4a2:	cf 91       	pop	r28
     4a4:	1f 91       	pop	r17
     4a6:	0f 91       	pop	r16
     4a8:	08 95       	ret
     4aa:	80 ff       	sbrs	r24, 0
     4ac:	03 c0       	rjmp	.+6      	; 0x4b4 <Key_Read()+0x86>
     4ae:	88 e0       	ldi	r24, 0x08	; 8
     4b0:	90 e0       	ldi	r25, 0x00	; 0
     4b2:	13 c0       	rjmp	.+38     	; 0x4da <Key_Read()+0xac>
     4b4:	81 ff       	sbrs	r24, 1
     4b6:	03 c0       	rjmp	.+6      	; 0x4be <Key_Read()+0x90>
     4b8:	84 e0       	ldi	r24, 0x04	; 4
     4ba:	90 e0       	ldi	r25, 0x00	; 0
     4bc:	0e c0       	rjmp	.+28     	; 0x4da <Key_Read()+0xac>
     4be:	82 ff       	sbrs	r24, 2
     4c0:	03 c0       	rjmp	.+6      	; 0x4c8 <Key_Read()+0x9a>
     4c2:	82 e0       	ldi	r24, 0x02	; 2
     4c4:	90 e0       	ldi	r25, 0x00	; 0
     4c6:	09 c0       	rjmp	.+18     	; 0x4da <Key_Read()+0xac>
     4c8:	83 ff       	sbrs	r24, 3
     4ca:	05 c0       	rjmp	.+10     	; 0x4d6 <Key_Read()+0xa8>
     4cc:	81 e0       	ldi	r24, 0x01	; 1
     4ce:	90 e0       	ldi	r25, 0x00	; 0
     4d0:	04 c0       	rjmp	.+8      	; 0x4da <Key_Read()+0xac>
     4d2:	81 11       	cpse	r24, r1
     4d4:	07 c0       	rjmp	.+14     	; 0x4e4 <Key_Read()+0xb6>
     4d6:	8f ef       	ldi	r24, 0xFF	; 255
     4d8:	90 e0       	ldi	r25, 0x00	; 0
     4da:	90 93 03 02 	sts	0x0203, r25	; 0x800203 <Key+0x1>
     4de:	80 93 02 02 	sts	0x0202, r24	; 0x800202 <Key>
     4e2:	d8 cf       	rjmp	.-80     	; 0x494 <Key_Read()+0x66>
     4e4:	81 30       	cpi	r24, 0x01	; 1
     4e6:	19 f3       	breq	.-58     	; 0x4ae <Key_Read()+0x80>
     4e8:	82 30       	cpi	r24, 0x02	; 2
     4ea:	31 f3       	breq	.-52     	; 0x4b8 <Key_Read()+0x8a>
     4ec:	84 30       	cpi	r24, 0x04	; 4
     4ee:	49 f3       	breq	.-46     	; 0x4c2 <Key_Read()+0x94>
     4f0:	88 30       	cpi	r24, 0x08	; 8
     4f2:	61 f3       	breq	.-40     	; 0x4cc <Key_Read()+0x9e>
     4f4:	89 2f       	mov	r24, r25
     4f6:	90 e0       	ldi	r25, 0x00	; 0
     4f8:	f0 cf       	rjmp	.-32     	; 0x4da <Key_Read()+0xac>

000004fa <Key_Proc()>:
_Z8Key_Procv():
     4fa:	0f 93       	push	r16
     4fc:	1f 93       	push	r17
     4fe:	80 91 d5 02 	lds	r24, 0x02D5	; 0x8002d5 <is_key_change>
     502:	88 23       	and	r24, r24
     504:	69 f0       	breq	.+26     	; 0x520 <Key_Proc()+0x26>
     506:	10 92 d5 02 	sts	0x02D5, r1	; 0x8002d5 <is_key_change>
     50a:	80 91 02 02 	lds	r24, 0x0202	; 0x800202 <Key>
     50e:	90 91 03 02 	lds	r25, 0x0203	; 0x800203 <Key+0x1>
     512:	82 30       	cpi	r24, 0x02	; 2
     514:	91 05       	cpc	r25, r1
     516:	09 f4       	brne	.+2      	; 0x51a <Key_Proc()+0x20>
     518:	8a c0       	rjmp	.+276    	; 0x62e <Key_Proc()+0x134>
     51a:	2c f4       	brge	.+10     	; 0x526 <Key_Proc()+0x2c>
     51c:	01 97       	sbiw	r24, 0x01	; 1
     51e:	e9 f0       	breq	.+58     	; 0x55a <Key_Proc()+0x60>
     520:	1f 91       	pop	r17
     522:	0f 91       	pop	r16
     524:	08 95       	ret
     526:	84 30       	cpi	r24, 0x04	; 4
     528:	91 05       	cpc	r25, r1
     52a:	09 f4       	brne	.+2      	; 0x52e <Key_Proc()+0x34>
     52c:	ca c0       	rjmp	.+404    	; 0x6c2 <Key_Proc()+0x1c8>
     52e:	08 97       	sbiw	r24, 0x08	; 8
     530:	b9 f7       	brne	.-18     	; 0x520 <Key_Proc()+0x26>
     532:	80 91 d1 02 	lds	r24, 0x02D1	; 0x8002d1 <f_power_state>
     536:	88 23       	and	r24, r24
     538:	99 f3       	breq	.-26     	; 0x520 <Key_Proc()+0x26>
     53a:	80 91 cb 02 	lds	r24, 0x02CB	; 0x8002cb <f_ble_state>
     53e:	81 11       	cpse	r24, r1
     540:	e9 c0       	rjmp	.+466    	; 0x714 <Key_Proc()+0x21a>
     542:	81 e0       	ldi	r24, 0x01	; 1
     544:	80 93 cb 02 	sts	0x02CB, r24	; 0x8002cb <f_ble_state>
     548:	60 e0       	ldi	r22, 0x00	; 0
     54a:	8a e2       	ldi	r24, 0x2A	; 42
     54c:	0e 94 b8 1c 	call	0x3970	; 0x3970 <digitalWrite>
     550:	82 e0       	ldi	r24, 0x02	; 2
     552:	80 93 cc 02 	sts	0x02CC, r24	; 0x8002cc <Sound_Update>
     556:	83 e0       	ldi	r24, 0x03	; 3
     558:	15 c0       	rjmp	.+42     	; 0x584 <Key_Proc()+0x8a>
     55a:	80 91 d1 02 	lds	r24, 0x02D1	; 0x8002d1 <f_power_state>
     55e:	81 11       	cpse	r24, r1
     560:	1e c0       	rjmp	.+60     	; 0x59e <Key_Proc()+0xa4>
     562:	81 e0       	ldi	r24, 0x01	; 1
     564:	80 93 d1 02 	sts	0x02D1, r24	; 0x8002d1 <f_power_state>
     568:	61 e0       	ldi	r22, 0x01	; 1
     56a:	89 e0       	ldi	r24, 0x09	; 9
     56c:	0e 94 b8 1c 	call	0x3970	; 0x3970 <digitalWrite>
     570:	10 92 d0 02 	sts	0x02D0, r1	; 0x8002d0 <active_step>
     574:	10 92 d3 02 	sts	0x02D3, r1	; 0x8002d3 <is_target_psi_set>
     578:	82 e0       	ldi	r24, 0x02	; 2
     57a:	80 93 cf 02 	sts	0x02CF, r24	; 0x8002cf <working_mode>
     57e:	80 93 cc 02 	sts	0x02CC, r24	; 0x8002cc <Sound_Update>
     582:	85 e0       	ldi	r24, 0x05	; 5
     584:	80 93 cd 02 	sts	0x02CD, r24	; 0x8002cd <Sound_Num>
     588:	0e 94 3f 1b 	call	0x367e	; 0x367e <millis>
     58c:	60 93 a5 02 	sts	0x02A5, r22	; 0x8002a5 <pre_buzzer_tic>
     590:	70 93 a6 02 	sts	0x02A6, r23	; 0x8002a6 <pre_buzzer_tic+0x1>
     594:	80 93 a7 02 	sts	0x02A7, r24	; 0x8002a7 <pre_buzzer_tic+0x2>
     598:	90 93 a8 02 	sts	0x02A8, r25	; 0x8002a8 <pre_buzzer_tic+0x3>
     59c:	c1 cf       	rjmp	.-126    	; 0x520 <Key_Proc()+0x26>
     59e:	80 91 d0 02 	lds	r24, 0x02D0	; 0x8002d0 <active_step>
     5a2:	81 11       	cpse	r24, r1
     5a4:	1b c0       	rjmp	.+54     	; 0x5dc <Key_Proc()+0xe2>
     5a6:	10 92 d1 02 	sts	0x02D1, r1	; 0x8002d1 <f_power_state>
     5aa:	60 e0       	ldi	r22, 0x00	; 0
     5ac:	88 e0       	ldi	r24, 0x08	; 8
     5ae:	0e 94 b8 1c 	call	0x3970	; 0x3970 <digitalWrite>
     5b2:	60 e0       	ldi	r22, 0x00	; 0
     5b4:	87 e0       	ldi	r24, 0x07	; 7
     5b6:	0e 94 b8 1c 	call	0x3970	; 0x3970 <digitalWrite>
     5ba:	60 e0       	ldi	r22, 0x00	; 0
     5bc:	87 e1       	ldi	r24, 0x17	; 23
     5be:	0e 94 b8 1c 	call	0x3970	; 0x3970 <digitalWrite>
     5c2:	60 e0       	ldi	r22, 0x00	; 0
     5c4:	89 e1       	ldi	r24, 0x19	; 25
     5c6:	0e 94 b8 1c 	call	0x3970	; 0x3970 <digitalWrite>
     5ca:	60 e0       	ldi	r22, 0x00	; 0
     5cc:	89 e0       	ldi	r24, 0x09	; 9
     5ce:	0e 94 b8 1c 	call	0x3970	; 0x3970 <digitalWrite>
     5d2:	82 e0       	ldi	r24, 0x02	; 2
     5d4:	80 93 cc 02 	sts	0x02CC, r24	; 0x8002cc <Sound_Update>
     5d8:	81 e0       	ldi	r24, 0x01	; 1
     5da:	d4 cf       	rjmp	.-88     	; 0x584 <Key_Proc()+0x8a>
     5dc:	88 30       	cpi	r24, 0x08	; 8
     5de:	09 f4       	brne	.+2      	; 0x5e2 <Key_Proc()+0xe8>
     5e0:	9f cf       	rjmp	.-194    	; 0x520 <Key_Proc()+0x26>
     5e2:	60 e0       	ldi	r22, 0x00	; 0
     5e4:	89 e1       	ldi	r24, 0x19	; 25
     5e6:	0e 94 b8 1c 	call	0x3970	; 0x3970 <digitalWrite>
     5ea:	61 e0       	ldi	r22, 0x01	; 1
     5ec:	87 e1       	ldi	r24, 0x17	; 23
     5ee:	0e 94 b8 1c 	call	0x3970	; 0x3970 <digitalWrite>
     5f2:	0e 94 3f 1b 	call	0x367e	; 0x367e <millis>
     5f6:	60 93 b9 02 	sts	0x02B9, r22	; 0x8002b9 <pre_valve_close_time>
     5fa:	70 93 ba 02 	sts	0x02BA, r23	; 0x8002ba <pre_valve_close_time+0x1>
     5fe:	80 93 bb 02 	sts	0x02BB, r24	; 0x8002bb <pre_valve_close_time+0x2>
     602:	90 93 bc 02 	sts	0x02BC, r25	; 0x8002bc <pre_valve_close_time+0x3>
     606:	82 e0       	ldi	r24, 0x02	; 2
     608:	80 93 cc 02 	sts	0x02CC, r24	; 0x8002cc <Sound_Update>
     60c:	81 e0       	ldi	r24, 0x01	; 1
     60e:	80 93 cd 02 	sts	0x02CD, r24	; 0x8002cd <Sound_Num>
     612:	0e 94 3f 1b 	call	0x367e	; 0x367e <millis>
     616:	60 93 a5 02 	sts	0x02A5, r22	; 0x8002a5 <pre_buzzer_tic>
     61a:	70 93 a6 02 	sts	0x02A6, r23	; 0x8002a6 <pre_buzzer_tic+0x1>
     61e:	80 93 a7 02 	sts	0x02A7, r24	; 0x8002a7 <pre_buzzer_tic+0x2>
     622:	90 93 a8 02 	sts	0x02A8, r25	; 0x8002a8 <pre_buzzer_tic+0x3>
     626:	88 e0       	ldi	r24, 0x08	; 8
     628:	80 93 d0 02 	sts	0x02D0, r24	; 0x8002d0 <active_step>
     62c:	79 cf       	rjmp	.-270    	; 0x520 <Key_Proc()+0x26>
     62e:	80 91 d1 02 	lds	r24, 0x02D1	; 0x8002d1 <f_power_state>
     632:	88 23       	and	r24, r24
     634:	09 f4       	brne	.+2      	; 0x638 <Key_Proc()+0x13e>
     636:	74 cf       	rjmp	.-280    	; 0x520 <Key_Proc()+0x26>
     638:	80 91 97 02 	lds	r24, 0x0297	; 0x800297 <mokup_motor_run_state>
     63c:	81 30       	cpi	r24, 0x01	; 1
     63e:	09 f1       	breq	.+66     	; 0x682 <Key_Proc()+0x188>
     640:	81 e0       	ldi	r24, 0x01	; 1
     642:	80 93 97 02 	sts	0x0297, r24	; 0x800297 <mokup_motor_run_state>
     646:	0e 94 3f 1b 	call	0x367e	; 0x367e <millis>
     64a:	60 93 b1 02 	sts	0x02B1, r22	; 0x8002b1 <pre_encodercheck_time>
     64e:	70 93 b2 02 	sts	0x02B2, r23	; 0x8002b2 <pre_encodercheck_time+0x1>
     652:	80 93 b3 02 	sts	0x02B3, r24	; 0x8002b3 <pre_encodercheck_time+0x2>
     656:	90 93 b4 02 	sts	0x02B4, r25	; 0x8002b4 <pre_encodercheck_time+0x3>
     65a:	0e 94 3f 1b 	call	0x367e	; 0x367e <millis>
     65e:	60 93 a1 02 	sts	0x02A1, r22	; 0x8002a1 <pre_user_motor_worktime>
     662:	70 93 a2 02 	sts	0x02A2, r23	; 0x8002a2 <pre_user_motor_worktime+0x1>
     666:	80 93 a3 02 	sts	0x02A3, r24	; 0x8002a3 <pre_user_motor_worktime+0x2>
     66a:	90 93 a4 02 	sts	0x02A4, r25	; 0x8002a4 <pre_user_motor_worktime+0x3>
     66e:	61 e0       	ldi	r22, 0x01	; 1
     670:	88 e0       	ldi	r24, 0x08	; 8
     672:	0e 94 b8 1c 	call	0x3970	; 0x3970 <digitalWrite>
     676:	60 e0       	ldi	r22, 0x00	; 0
     678:	87 e0       	ldi	r24, 0x07	; 7
     67a:	1f 91       	pop	r17
     67c:	0f 91       	pop	r16
     67e:	0c 94 b8 1c 	jmp	0x3970	; 0x3970 <digitalWrite>
     682:	0e 94 3f 1b 	call	0x367e	; 0x367e <millis>
     686:	00 91 b1 02 	lds	r16, 0x02B1	; 0x8002b1 <pre_encodercheck_time>
     68a:	10 91 b2 02 	lds	r17, 0x02B2	; 0x8002b2 <pre_encodercheck_time+0x1>
     68e:	20 91 b3 02 	lds	r18, 0x02B3	; 0x8002b3 <pre_encodercheck_time+0x2>
     692:	30 91 b4 02 	lds	r19, 0x02B4	; 0x8002b4 <pre_encodercheck_time+0x3>
     696:	60 1b       	sub	r22, r16
     698:	71 0b       	sbc	r23, r17
     69a:	82 0b       	sbc	r24, r18
     69c:	93 0b       	sbc	r25, r19
     69e:	69 30       	cpi	r22, 0x09	; 9
     6a0:	71 05       	cpc	r23, r1
     6a2:	81 05       	cpc	r24, r1
     6a4:	91 05       	cpc	r25, r1
     6a6:	58 f1       	brcs	.+86     	; 0x6fe <Key_Proc()+0x204>
     6a8:	60 e0       	ldi	r22, 0x00	; 0
     6aa:	88 e0       	ldi	r24, 0x08	; 8
     6ac:	0e 94 b8 1c 	call	0x3970	; 0x3970 <digitalWrite>
     6b0:	60 e0       	ldi	r22, 0x00	; 0
     6b2:	87 e0       	ldi	r24, 0x07	; 7
     6b4:	0e 94 b8 1c 	call	0x3970	; 0x3970 <digitalWrite>
     6b8:	10 92 ca 02 	sts	0x02CA, r1	; 0x8002ca <pulses+0x1>
     6bc:	10 92 c9 02 	sts	0x02C9, r1	; 0x8002c9 <pulses>
     6c0:	2f cf       	rjmp	.-418    	; 0x520 <Key_Proc()+0x26>
     6c2:	80 91 d1 02 	lds	r24, 0x02D1	; 0x8002d1 <f_power_state>
     6c6:	88 23       	and	r24, r24
     6c8:	09 f4       	brne	.+2      	; 0x6cc <Key_Proc()+0x1d2>
     6ca:	2a cf       	rjmp	.-428    	; 0x520 <Key_Proc()+0x26>
     6cc:	80 91 97 02 	lds	r24, 0x0297	; 0x800297 <mokup_motor_run_state>
     6d0:	82 30       	cpi	r24, 0x02	; 2
     6d2:	b9 f2       	breq	.-82     	; 0x682 <Key_Proc()+0x188>
     6d4:	82 e0       	ldi	r24, 0x02	; 2
     6d6:	80 93 97 02 	sts	0x0297, r24	; 0x800297 <mokup_motor_run_state>
     6da:	0e 94 3f 1b 	call	0x367e	; 0x367e <millis>
     6de:	60 93 b1 02 	sts	0x02B1, r22	; 0x8002b1 <pre_encodercheck_time>
     6e2:	70 93 b2 02 	sts	0x02B2, r23	; 0x8002b2 <pre_encodercheck_time+0x1>
     6e6:	80 93 b3 02 	sts	0x02B3, r24	; 0x8002b3 <pre_encodercheck_time+0x2>
     6ea:	90 93 b4 02 	sts	0x02B4, r25	; 0x8002b4 <pre_encodercheck_time+0x3>
     6ee:	60 e0       	ldi	r22, 0x00	; 0
     6f0:	88 e0       	ldi	r24, 0x08	; 8
     6f2:	0e 94 b8 1c 	call	0x3970	; 0x3970 <digitalWrite>
     6f6:	61 e0       	ldi	r22, 0x01	; 1
     6f8:	87 e0       	ldi	r24, 0x07	; 7
     6fa:	0e 94 b8 1c 	call	0x3970	; 0x3970 <digitalWrite>
     6fe:	0e 94 3f 1b 	call	0x367e	; 0x367e <millis>
     702:	60 93 a1 02 	sts	0x02A1, r22	; 0x8002a1 <pre_user_motor_worktime>
     706:	70 93 a2 02 	sts	0x02A2, r23	; 0x8002a2 <pre_user_motor_worktime+0x1>
     70a:	80 93 a3 02 	sts	0x02A3, r24	; 0x8002a3 <pre_user_motor_worktime+0x2>
     70e:	90 93 a4 02 	sts	0x02A4, r25	; 0x8002a4 <pre_user_motor_worktime+0x3>
     712:	06 cf       	rjmp	.-500    	; 0x520 <Key_Proc()+0x26>
     714:	10 92 cb 02 	sts	0x02CB, r1	; 0x8002cb <f_ble_state>
     718:	61 e0       	ldi	r22, 0x01	; 1
     71a:	17 cf       	rjmp	.-466    	; 0x54a <Key_Proc()+0x50>

0000071c <Key_Scan()>:
_Z8Key_Scanv():
     71c:	0f 93       	push	r16
     71e:	1f 93       	push	r17
     720:	80 91 d1 02 	lds	r24, 0x02D1	; 0x8002d1 <f_power_state>
     724:	88 23       	and	r24, r24
     726:	69 f1       	breq	.+90     	; 0x782 <Key_Scan()+0x66>
     728:	80 91 d1 02 	lds	r24, 0x02D1	; 0x8002d1 <f_power_state>
     72c:	81 30       	cpi	r24, 0x01	; 1
     72e:	99 f4       	brne	.+38     	; 0x756 <Key_Scan()+0x3a>
     730:	0e 94 3f 1b 	call	0x367e	; 0x367e <millis>
     734:	00 91 c5 02 	lds	r16, 0x02C5	; 0x8002c5 <pre_key_readtime>
     738:	10 91 c6 02 	lds	r17, 0x02C6	; 0x8002c6 <pre_key_readtime+0x1>
     73c:	20 91 c7 02 	lds	r18, 0x02C7	; 0x8002c7 <pre_key_readtime+0x2>
     740:	30 91 c8 02 	lds	r19, 0x02C8	; 0x8002c8 <pre_key_readtime+0x3>
     744:	60 1b       	sub	r22, r16
     746:	71 0b       	sbc	r23, r17
     748:	82 0b       	sbc	r24, r18
     74a:	93 0b       	sbc	r25, r19
     74c:	68 30       	cpi	r22, 0x08	; 8
     74e:	71 05       	cpc	r23, r1
     750:	81 05       	cpc	r24, r1
     752:	91 05       	cpc	r25, r1
     754:	50 f1       	brcs	.+84     	; 0x7aa <Key_Scan()+0x8e>
     756:	0e 94 3f 1b 	call	0x367e	; 0x367e <millis>
     75a:	60 93 c5 02 	sts	0x02C5, r22	; 0x8002c5 <pre_key_readtime>
     75e:	70 93 c6 02 	sts	0x02C6, r23	; 0x8002c6 <pre_key_readtime+0x1>
     762:	80 93 c7 02 	sts	0x02C7, r24	; 0x8002c7 <pre_key_readtime+0x2>
     766:	90 93 c8 02 	sts	0x02C8, r25	; 0x8002c8 <pre_key_readtime+0x3>
     76a:	0e 94 17 02 	call	0x42e	; 0x42e <Key_Read()>
     76e:	80 91 02 02 	lds	r24, 0x0202	; 0x800202 <Key>
     772:	90 91 03 02 	lds	r25, 0x0203	; 0x800203 <Key+0x1>
     776:	8f 3f       	cpi	r24, 0xFF	; 255
     778:	91 05       	cpc	r25, r1
     77a:	d1 f4       	brne	.+52     	; 0x7b0 <Key_Scan()+0x94>
     77c:	10 92 76 02 	sts	0x0276, r1	; 0x800276 <Key_Scan()::f_PressedKey>
     780:	27 c0       	rjmp	.+78     	; 0x7d0 <Key_Scan()+0xb4>
     782:	0e 94 3f 1b 	call	0x367e	; 0x367e <millis>
     786:	00 91 c5 02 	lds	r16, 0x02C5	; 0x8002c5 <pre_key_readtime>
     78a:	10 91 c6 02 	lds	r17, 0x02C6	; 0x8002c6 <pre_key_readtime+0x1>
     78e:	20 91 c7 02 	lds	r18, 0x02C7	; 0x8002c7 <pre_key_readtime+0x2>
     792:	30 91 c8 02 	lds	r19, 0x02C8	; 0x8002c8 <pre_key_readtime+0x3>
     796:	60 1b       	sub	r22, r16
     798:	71 0b       	sbc	r23, r17
     79a:	82 0b       	sbc	r24, r18
     79c:	93 0b       	sbc	r25, r19
     79e:	64 31       	cpi	r22, 0x14	; 20
     7a0:	71 05       	cpc	r23, r1
     7a2:	81 05       	cpc	r24, r1
     7a4:	91 05       	cpc	r25, r1
     7a6:	08 f0       	brcs	.+2      	; 0x7aa <Key_Scan()+0x8e>
     7a8:	bf cf       	rjmp	.-130    	; 0x728 <Key_Scan()+0xc>
     7aa:	1f 91       	pop	r17
     7ac:	0f 91       	pop	r16
     7ae:	08 95       	ret
     7b0:	20 91 00 02 	lds	r18, 0x0200	; 0x800200 <__DATA_REGION_ORIGIN__>
     7b4:	28 17       	cp	r18, r24
     7b6:	19 06       	cpc	r1, r25
     7b8:	09 f7       	brne	.-62     	; 0x77c <Key_Scan()+0x60>
     7ba:	20 91 76 02 	lds	r18, 0x0276	; 0x800276 <Key_Scan()::f_PressedKey>
     7be:	21 11       	cpse	r18, r1
     7c0:	0d c0       	rjmp	.+26     	; 0x7dc <Key_Scan()+0xc0>
     7c2:	21 e0       	ldi	r18, 0x01	; 1
     7c4:	20 93 d5 02 	sts	0x02D5, r18	; 0x8002d5 <is_key_change>
     7c8:	20 93 76 02 	sts	0x0276, r18	; 0x800276 <Key_Scan()::f_PressedKey>
     7cc:	20 93 77 02 	sts	0x0277, r18	; 0x800277 <Key_Scan()::AutoKeyCount>
     7d0:	80 93 00 02 	sts	0x0200, r24	; 0x800200 <__DATA_REGION_ORIGIN__>
     7d4:	1f 91       	pop	r17
     7d6:	0f 91       	pop	r16
     7d8:	0c 94 7d 02 	jmp	0x4fa	; 0x4fa <Key_Proc()>
     7dc:	20 91 77 02 	lds	r18, 0x0277	; 0x800277 <Key_Scan()::AutoKeyCount>
     7e0:	21 50       	subi	r18, 0x01	; 1
     7e2:	20 93 77 02 	sts	0x0277, r18	; 0x800277 <Key_Scan()::AutoKeyCount>
     7e6:	21 11       	cpse	r18, r1
     7e8:	f3 cf       	rjmp	.-26     	; 0x7d0 <Key_Scan()+0xb4>
     7ea:	84 30       	cpi	r24, 0x04	; 4
     7ec:	91 05       	cpc	r25, r1
     7ee:	19 f0       	breq	.+6      	; 0x7f6 <Key_Scan()+0xda>
     7f0:	82 30       	cpi	r24, 0x02	; 2
     7f2:	91 05       	cpc	r25, r1
     7f4:	69 f7       	brne	.-38     	; 0x7d0 <Key_Scan()+0xb4>
     7f6:	21 e0       	ldi	r18, 0x01	; 1
     7f8:	20 93 d5 02 	sts	0x02D5, r18	; 0x8002d5 <is_key_change>
     7fc:	e7 cf       	rjmp	.-50     	; 0x7cc <Key_Scan()+0xb0>

000007fe <updateTemperatrue()>:
_Z17updateTemperatruev():
     7fe:	0f 93       	push	r16
     800:	1f 93       	push	r17
     802:	0e 94 3f 1b 	call	0x367e	; 0x367e <millis>
     806:	00 91 c1 02 	lds	r16, 0x02C1	; 0x8002c1 <pre_temp_readtime>
     80a:	10 91 c2 02 	lds	r17, 0x02C2	; 0x8002c2 <pre_temp_readtime+0x1>
     80e:	20 91 c3 02 	lds	r18, 0x02C3	; 0x8002c3 <pre_temp_readtime+0x2>
     812:	30 91 c4 02 	lds	r19, 0x02C4	; 0x8002c4 <pre_temp_readtime+0x3>
     816:	60 1b       	sub	r22, r16
     818:	71 0b       	sbc	r23, r17
     81a:	82 0b       	sbc	r24, r18
     81c:	93 0b       	sbc	r25, r19
     81e:	62 33       	cpi	r22, 0x32	; 50
     820:	71 05       	cpc	r23, r1
     822:	81 05       	cpc	r24, r1
     824:	91 05       	cpc	r25, r1
     826:	48 f1       	brcs	.+82     	; 0x87a <updateTemperatrue()+0x7c>
     828:	0e 94 3f 1b 	call	0x367e	; 0x367e <millis>
     82c:	60 93 c1 02 	sts	0x02C1, r22	; 0x8002c1 <pre_temp_readtime>
     830:	70 93 c2 02 	sts	0x02C2, r23	; 0x8002c2 <pre_temp_readtime+0x1>
     834:	80 93 c3 02 	sts	0x02C3, r24	; 0x8002c3 <pre_temp_readtime+0x2>
     838:	90 93 c4 02 	sts	0x02C4, r25	; 0x8002c4 <pre_temp_readtime+0x3>
     83c:	84 e4       	ldi	r24, 0x44	; 68
     83e:	0e 94 ef 1b 	call	0x37de	; 0x37de <analogRead>
     842:	83 3f       	cpi	r24, 0xF3	; 243
     844:	22 e0       	ldi	r18, 0x02	; 2
     846:	92 07       	cpc	r25, r18
     848:	68 f4       	brcc	.+26     	; 0x864 <updateTemperatrue()+0x66>
     84a:	81 e0       	ldi	r24, 0x01	; 1
     84c:	80 93 d2 02 	sts	0x02D2, r24	; 0x8002d2 <f_peltier_state>
     850:	61 e0       	ldi	r22, 0x01	; 1
     852:	8a e1       	ldi	r24, 0x1A	; 26
     854:	0e 94 b8 1c 	call	0x3970	; 0x3970 <digitalWrite>
     858:	61 e0       	ldi	r22, 0x01	; 1
     85a:	88 e1       	ldi	r24, 0x18	; 24
     85c:	1f 91       	pop	r17
     85e:	0f 91       	pop	r16
     860:	0c 94 b8 1c 	jmp	0x3970	; 0x3970 <digitalWrite>
     864:	83 30       	cpi	r24, 0x03	; 3
     866:	93 40       	sbci	r25, 0x03	; 3
     868:	40 f0       	brcs	.+16     	; 0x87a <updateTemperatrue()+0x7c>
     86a:	10 92 d2 02 	sts	0x02D2, r1	; 0x8002d2 <f_peltier_state>
     86e:	60 e0       	ldi	r22, 0x00	; 0
     870:	8a e1       	ldi	r24, 0x1A	; 26
     872:	0e 94 b8 1c 	call	0x3970	; 0x3970 <digitalWrite>
     876:	60 e0       	ldi	r22, 0x00	; 0
     878:	f0 cf       	rjmp	.-32     	; 0x85a <updateTemperatrue()+0x5c>
     87a:	1f 91       	pop	r17
     87c:	0f 91       	pop	r16
     87e:	08 95       	ret

00000880 <updatePSI()>:
_Z9updatePSIv():
     880:	0f 93       	push	r16
     882:	1f 93       	push	r17
     884:	80 91 d1 02 	lds	r24, 0x02D1	; 0x8002d1 <f_power_state>
     888:	88 23       	and	r24, r24
     88a:	a9 f1       	breq	.+106    	; 0x8f6 <updatePSI()+0x76>
     88c:	0e 94 3f 1b 	call	0x367e	; 0x367e <millis>
     890:	00 91 bd 02 	lds	r16, 0x02BD	; 0x8002bd <pre_psi_readtime>
     894:	10 91 be 02 	lds	r17, 0x02BE	; 0x8002be <pre_psi_readtime+0x1>
     898:	20 91 bf 02 	lds	r18, 0x02BF	; 0x8002bf <pre_psi_readtime+0x2>
     89c:	30 91 c0 02 	lds	r19, 0x02C0	; 0x8002c0 <pre_psi_readtime+0x3>
     8a0:	60 1b       	sub	r22, r16
     8a2:	71 0b       	sbc	r23, r17
     8a4:	82 0b       	sbc	r24, r18
     8a6:	93 0b       	sbc	r25, r19
     8a8:	6c 30       	cpi	r22, 0x0C	; 12
     8aa:	71 05       	cpc	r23, r1
     8ac:	81 05       	cpc	r24, r1
     8ae:	91 05       	cpc	r25, r1
     8b0:	10 f1       	brcs	.+68     	; 0x8f6 <updatePSI()+0x76>
     8b2:	0e 94 3f 1b 	call	0x367e	; 0x367e <millis>
     8b6:	60 93 bd 02 	sts	0x02BD, r22	; 0x8002bd <pre_psi_readtime>
     8ba:	70 93 be 02 	sts	0x02BE, r23	; 0x8002be <pre_psi_readtime+0x1>
     8be:	80 93 bf 02 	sts	0x02BF, r24	; 0x8002bf <pre_psi_readtime+0x2>
     8c2:	90 93 c0 02 	sts	0x02C0, r25	; 0x8002c0 <pre_psi_readtime+0x3>
     8c6:	80 91 d0 02 	lds	r24, 0x02D0	; 0x8002d0 <active_step>
     8ca:	85 30       	cpi	r24, 0x05	; 5
     8cc:	70 f4       	brcc	.+28     	; 0x8ea <updatePSI()+0x6a>
     8ce:	81 30       	cpi	r24, 0x01	; 1
     8d0:	a8 f0       	brcs	.+42     	; 0x8fc <updatePSI()+0x7c>
     8d2:	88 e3       	ldi	r24, 0x38	; 56
     8d4:	0e 94 ef 1b 	call	0x37de	; 0x37de <analogRead>
     8d8:	86 3c       	cpi	r24, 0xC6	; 198
     8da:	91 05       	cpc	r25, r1
     8dc:	44 f5       	brge	.+80     	; 0x92e <updatePSI()+0xae>
     8de:	61 e0       	ldi	r22, 0x01	; 1
     8e0:	89 e1       	ldi	r24, 0x19	; 25
     8e2:	1f 91       	pop	r17
     8e4:	0f 91       	pop	r16
     8e6:	0c 94 b8 1c 	jmp	0x3970	; 0x3970 <digitalWrite>
     8ea:	86 30       	cpi	r24, 0x06	; 6
     8ec:	f1 f1       	breq	.+124    	; 0x96a <updatePSI()+0xea>
     8ee:	38 f1       	brcs	.+78     	; 0x93e <updatePSI()+0xbe>
     8f0:	88 30       	cpi	r24, 0x08	; 8
     8f2:	09 f4       	brne	.+2      	; 0x8f6 <updatePSI()+0x76>
     8f4:	7d c0       	rjmp	.+250    	; 0x9f0 <updatePSI()+0x170>
     8f6:	1f 91       	pop	r17
     8f8:	0f 91       	pop	r16
     8fa:	08 95       	ret
     8fc:	80 91 cf 02 	lds	r24, 0x02CF	; 0x8002cf <working_mode>
     900:	81 30       	cpi	r24, 0x01	; 1
     902:	91 f4       	brne	.+36     	; 0x928 <updatePSI()+0xa8>
     904:	80 93 d0 02 	sts	0x02D0, r24	; 0x8002d0 <active_step>
     908:	82 e0       	ldi	r24, 0x02	; 2
     90a:	80 93 cc 02 	sts	0x02CC, r24	; 0x8002cc <Sound_Update>
     90e:	83 e0       	ldi	r24, 0x03	; 3
     910:	80 93 cd 02 	sts	0x02CD, r24	; 0x8002cd <Sound_Num>
     914:	0e 94 3f 1b 	call	0x367e	; 0x367e <millis>
     918:	60 93 a5 02 	sts	0x02A5, r22	; 0x8002a5 <pre_buzzer_tic>
     91c:	70 93 a6 02 	sts	0x02A6, r23	; 0x8002a6 <pre_buzzer_tic+0x1>
     920:	80 93 a7 02 	sts	0x02A7, r24	; 0x8002a7 <pre_buzzer_tic+0x2>
     924:	90 93 a8 02 	sts	0x02A8, r25	; 0x8002a8 <pre_buzzer_tic+0x3>
     928:	10 92 d3 02 	sts	0x02D3, r1	; 0x8002d3 <is_target_psi_set>
     92c:	e4 cf       	rjmp	.-56     	; 0x8f6 <updatePSI()+0x76>
     92e:	60 e0       	ldi	r22, 0x00	; 0
     930:	89 e1       	ldi	r24, 0x19	; 25
     932:	0e 94 b8 1c 	call	0x3970	; 0x3970 <digitalWrite>
     936:	81 e0       	ldi	r24, 0x01	; 1
     938:	80 93 d3 02 	sts	0x02D3, r24	; 0x8002d3 <is_target_psi_set>
     93c:	dc cf       	rjmp	.-72     	; 0x8f6 <updatePSI()+0x76>
     93e:	60 e0       	ldi	r22, 0x00	; 0
     940:	89 e1       	ldi	r24, 0x19	; 25
     942:	0e 94 b8 1c 	call	0x3970	; 0x3970 <digitalWrite>
     946:	61 e0       	ldi	r22, 0x01	; 1
     948:	87 e1       	ldi	r24, 0x17	; 23
     94a:	0e 94 b8 1c 	call	0x3970	; 0x3970 <digitalWrite>
     94e:	0e 94 3f 1b 	call	0x367e	; 0x367e <millis>
     952:	60 93 b9 02 	sts	0x02B9, r22	; 0x8002b9 <pre_valve_close_time>
     956:	70 93 ba 02 	sts	0x02BA, r23	; 0x8002ba <pre_valve_close_time+0x1>
     95a:	80 93 bb 02 	sts	0x02BB, r24	; 0x8002bb <pre_valve_close_time+0x2>
     95e:	90 93 bc 02 	sts	0x02BC, r25	; 0x8002bc <pre_valve_close_time+0x3>
     962:	86 e0       	ldi	r24, 0x06	; 6
     964:	80 93 d0 02 	sts	0x02D0, r24	; 0x8002d0 <active_step>
     968:	c6 cf       	rjmp	.-116    	; 0x8f6 <updatePSI()+0x76>
     96a:	0e 94 3f 1b 	call	0x367e	; 0x367e <millis>
     96e:	00 91 b9 02 	lds	r16, 0x02B9	; 0x8002b9 <pre_valve_close_time>
     972:	10 91 ba 02 	lds	r17, 0x02BA	; 0x8002ba <pre_valve_close_time+0x1>
     976:	20 91 bb 02 	lds	r18, 0x02BB	; 0x8002bb <pre_valve_close_time+0x2>
     97a:	30 91 bc 02 	lds	r19, 0x02BC	; 0x8002bc <pre_valve_close_time+0x3>
     97e:	60 1b       	sub	r22, r16
     980:	71 0b       	sbc	r23, r17
     982:	82 0b       	sbc	r24, r18
     984:	93 0b       	sbc	r25, r19
     986:	69 3c       	cpi	r22, 0xC9	; 201
     988:	71 05       	cpc	r23, r1
     98a:	81 05       	cpc	r24, r1
     98c:	91 05       	cpc	r25, r1
     98e:	08 f4       	brcc	.+2      	; 0x992 <updatePSI()+0x112>
     990:	b2 cf       	rjmp	.-156    	; 0x8f6 <updatePSI()+0x76>
     992:	60 e0       	ldi	r22, 0x00	; 0
     994:	87 e1       	ldi	r24, 0x17	; 23
     996:	0e 94 b8 1c 	call	0x3970	; 0x3970 <digitalWrite>
     99a:	60 e0       	ldi	r22, 0x00	; 0
     99c:	89 e1       	ldi	r24, 0x19	; 25
     99e:	0e 94 b8 1c 	call	0x3970	; 0x3970 <digitalWrite>
     9a2:	60 e0       	ldi	r22, 0x00	; 0
     9a4:	89 e0       	ldi	r24, 0x09	; 9
     9a6:	0e 94 b8 1c 	call	0x3970	; 0x3970 <digitalWrite>
     9aa:	10 92 d1 02 	sts	0x02D1, r1	; 0x8002d1 <f_power_state>
     9ae:	60 e0       	ldi	r22, 0x00	; 0
     9b0:	88 e0       	ldi	r24, 0x08	; 8
     9b2:	0e 94 b8 1c 	call	0x3970	; 0x3970 <digitalWrite>
     9b6:	60 e0       	ldi	r22, 0x00	; 0
     9b8:	87 e0       	ldi	r24, 0x07	; 7
     9ba:	0e 94 b8 1c 	call	0x3970	; 0x3970 <digitalWrite>
     9be:	60 e0       	ldi	r22, 0x00	; 0
     9c0:	87 e1       	ldi	r24, 0x17	; 23
     9c2:	0e 94 b8 1c 	call	0x3970	; 0x3970 <digitalWrite>
     9c6:	60 e0       	ldi	r22, 0x00	; 0
     9c8:	89 e1       	ldi	r24, 0x19	; 25
     9ca:	0e 94 b8 1c 	call	0x3970	; 0x3970 <digitalWrite>
     9ce:	82 e0       	ldi	r24, 0x02	; 2
     9d0:	80 93 cc 02 	sts	0x02CC, r24	; 0x8002cc <Sound_Update>
     9d4:	81 e0       	ldi	r24, 0x01	; 1
     9d6:	80 93 cd 02 	sts	0x02CD, r24	; 0x8002cd <Sound_Num>
     9da:	0e 94 3f 1b 	call	0x367e	; 0x367e <millis>
     9de:	60 93 a5 02 	sts	0x02A5, r22	; 0x8002a5 <pre_buzzer_tic>
     9e2:	70 93 a6 02 	sts	0x02A6, r23	; 0x8002a6 <pre_buzzer_tic+0x1>
     9e6:	80 93 a7 02 	sts	0x02A7, r24	; 0x8002a7 <pre_buzzer_tic+0x2>
     9ea:	90 93 a8 02 	sts	0x02A8, r25	; 0x8002a8 <pre_buzzer_tic+0x3>
     9ee:	83 cf       	rjmp	.-250    	; 0x8f6 <updatePSI()+0x76>
     9f0:	0e 94 3f 1b 	call	0x367e	; 0x367e <millis>
     9f4:	00 91 b9 02 	lds	r16, 0x02B9	; 0x8002b9 <pre_valve_close_time>
     9f8:	10 91 ba 02 	lds	r17, 0x02BA	; 0x8002ba <pre_valve_close_time+0x1>
     9fc:	20 91 bb 02 	lds	r18, 0x02BB	; 0x8002bb <pre_valve_close_time+0x2>
     a00:	30 91 bc 02 	lds	r19, 0x02BC	; 0x8002bc <pre_valve_close_time+0x3>
     a04:	60 1b       	sub	r22, r16
     a06:	71 0b       	sbc	r23, r17
     a08:	82 0b       	sbc	r24, r18
     a0a:	93 0b       	sbc	r25, r19
     a0c:	6b 3f       	cpi	r22, 0xFB	; 251
     a0e:	71 05       	cpc	r23, r1
     a10:	81 05       	cpc	r24, r1
     a12:	91 05       	cpc	r25, r1
     a14:	08 f4       	brcc	.+2      	; 0xa18 <updatePSI()+0x198>
     a16:	6f cf       	rjmp	.-290    	; 0x8f6 <updatePSI()+0x76>
     a18:	60 e0       	ldi	r22, 0x00	; 0
     a1a:	87 e1       	ldi	r24, 0x17	; 23
     a1c:	0e 94 b8 1c 	call	0x3970	; 0x3970 <digitalWrite>
     a20:	60 e0       	ldi	r22, 0x00	; 0
     a22:	89 e1       	ldi	r24, 0x19	; 25
     a24:	0e 94 b8 1c 	call	0x3970	; 0x3970 <digitalWrite>
     a28:	10 92 d1 02 	sts	0x02D1, r1	; 0x8002d1 <f_power_state>
     a2c:	60 e0       	ldi	r22, 0x00	; 0
     a2e:	88 e0       	ldi	r24, 0x08	; 8
     a30:	0e 94 b8 1c 	call	0x3970	; 0x3970 <digitalWrite>
     a34:	60 e0       	ldi	r22, 0x00	; 0
     a36:	87 e0       	ldi	r24, 0x07	; 7
     a38:	0e 94 b8 1c 	call	0x3970	; 0x3970 <digitalWrite>
     a3c:	60 e0       	ldi	r22, 0x00	; 0
     a3e:	87 e1       	ldi	r24, 0x17	; 23
     a40:	0e 94 b8 1c 	call	0x3970	; 0x3970 <digitalWrite>
     a44:	60 e0       	ldi	r22, 0x00	; 0
     a46:	89 e1       	ldi	r24, 0x19	; 25
     a48:	0e 94 b8 1c 	call	0x3970	; 0x3970 <digitalWrite>
     a4c:	60 e0       	ldi	r22, 0x00	; 0
     a4e:	89 e0       	ldi	r24, 0x09	; 9
     a50:	48 cf       	rjmp	.-368    	; 0x8e2 <updatePSI()+0x62>

00000a52 <updateMotor()>:
_Z11updateMotorv():
     a52:	0f 93       	push	r16
     a54:	1f 93       	push	r17
     a56:	cf 93       	push	r28
     a58:	df 93       	push	r29
     a5a:	80 91 d1 02 	lds	r24, 0x02D1	; 0x8002d1 <f_power_state>
     a5e:	88 23       	and	r24, r24
     a60:	51 f0       	breq	.+20     	; 0xa76 <updateMotor()+0x24>
     a62:	c0 91 d0 02 	lds	r28, 0x02D0	; 0x8002d0 <active_step>
     a66:	c3 30       	cpi	r28, 0x03	; 3
     a68:	09 f4       	brne	.+2      	; 0xa6c <updateMotor()+0x1a>
     a6a:	7a c0       	rjmp	.+244    	; 0xb60 <updateMotor()+0x10e>
     a6c:	48 f4       	brcc	.+18     	; 0xa80 <updateMotor()+0x2e>
     a6e:	c1 30       	cpi	r28, 0x01	; 1
     a70:	c1 f0       	breq	.+48     	; 0xaa2 <updateMotor()+0x50>
     a72:	c2 30       	cpi	r28, 0x02	; 2
     a74:	b9 f1       	breq	.+110    	; 0xae4 <updateMotor()+0x92>
     a76:	df 91       	pop	r29
     a78:	cf 91       	pop	r28
     a7a:	1f 91       	pop	r17
     a7c:	0f 91       	pop	r16
     a7e:	08 95       	ret
     a80:	c4 30       	cpi	r28, 0x04	; 4
     a82:	09 f4       	brne	.+2      	; 0xa86 <updateMotor()+0x34>
     a84:	af c0       	rjmp	.+350    	; 0xbe4 <updateMotor()+0x192>
     a86:	c7 30       	cpi	r28, 0x07	; 7
     a88:	b0 f7       	brcc	.-20     	; 0xa76 <updateMotor()+0x24>
     a8a:	60 e0       	ldi	r22, 0x00	; 0
     a8c:	88 e0       	ldi	r24, 0x08	; 8
     a8e:	0e 94 b8 1c 	call	0x3970	; 0x3970 <digitalWrite>
     a92:	60 e0       	ldi	r22, 0x00	; 0
     a94:	87 e0       	ldi	r24, 0x07	; 7
     a96:	df 91       	pop	r29
     a98:	cf 91       	pop	r28
     a9a:	1f 91       	pop	r17
     a9c:	0f 91       	pop	r16
     a9e:	0c 94 b8 1c 	jmp	0x3970	; 0x3970 <digitalWrite>
     aa2:	80 91 d3 02 	lds	r24, 0x02D3	; 0x8002d3 <is_target_psi_set>
     aa6:	88 23       	and	r24, r24
     aa8:	31 f3       	breq	.-52     	; 0xa76 <updateMotor()+0x24>
     aaa:	c2 e0       	ldi	r28, 0x02	; 2
     aac:	c0 93 cc 02 	sts	0x02CC, r28	; 0x8002cc <Sound_Update>
     ab0:	83 e0       	ldi	r24, 0x03	; 3
     ab2:	80 93 cd 02 	sts	0x02CD, r24	; 0x8002cd <Sound_Num>
     ab6:	0e 94 3f 1b 	call	0x367e	; 0x367e <millis>
     aba:	60 93 a5 02 	sts	0x02A5, r22	; 0x8002a5 <pre_buzzer_tic>
     abe:	70 93 a6 02 	sts	0x02A6, r23	; 0x8002a6 <pre_buzzer_tic+0x1>
     ac2:	80 93 a7 02 	sts	0x02A7, r24	; 0x8002a7 <pre_buzzer_tic+0x2>
     ac6:	90 93 a8 02 	sts	0x02A8, r25	; 0x8002a8 <pre_buzzer_tic+0x3>
     aca:	0e 94 3f 1b 	call	0x367e	; 0x367e <millis>
     ace:	60 93 ad 02 	sts	0x02AD, r22	; 0x8002ad <pre_motor_stop_time>
     ad2:	70 93 ae 02 	sts	0x02AE, r23	; 0x8002ae <pre_motor_stop_time+0x1>
     ad6:	80 93 af 02 	sts	0x02AF, r24	; 0x8002af <pre_motor_stop_time+0x2>
     ada:	90 93 b0 02 	sts	0x02B0, r25	; 0x8002b0 <pre_motor_stop_time+0x3>
     ade:	c0 93 d0 02 	sts	0x02D0, r28	; 0x8002d0 <active_step>
     ae2:	c9 cf       	rjmp	.-110    	; 0xa76 <updateMotor()+0x24>
     ae4:	0e 94 3f 1b 	call	0x367e	; 0x367e <millis>
     ae8:	00 91 ad 02 	lds	r16, 0x02AD	; 0x8002ad <pre_motor_stop_time>
     aec:	10 91 ae 02 	lds	r17, 0x02AE	; 0x8002ae <pre_motor_stop_time+0x1>
     af0:	20 91 af 02 	lds	r18, 0x02AF	; 0x8002af <pre_motor_stop_time+0x2>
     af4:	30 91 b0 02 	lds	r19, 0x02B0	; 0x8002b0 <pre_motor_stop_time+0x3>
     af8:	60 1b       	sub	r22, r16
     afa:	71 0b       	sbc	r23, r17
     afc:	82 0b       	sbc	r24, r18
     afe:	93 0b       	sbc	r25, r19
     b00:	65 31       	cpi	r22, 0x15	; 21
     b02:	71 05       	cpc	r23, r1
     b04:	81 05       	cpc	r24, r1
     b06:	91 05       	cpc	r25, r1
     b08:	08 f4       	brcc	.+2      	; 0xb0c <updateMotor()+0xba>
     b0a:	b5 cf       	rjmp	.-150    	; 0xa76 <updateMotor()+0x24>
     b0c:	61 e0       	ldi	r22, 0x01	; 1
     b0e:	88 e0       	ldi	r24, 0x08	; 8
     b10:	0e 94 b8 1c 	call	0x3970	; 0x3970 <digitalWrite>
     b14:	d3 e0       	ldi	r29, 0x03	; 3
     b16:	d0 93 d0 02 	sts	0x02D0, r29	; 0x8002d0 <active_step>
     b1a:	0e 94 3f 1b 	call	0x367e	; 0x367e <millis>
     b1e:	60 93 b1 02 	sts	0x02B1, r22	; 0x8002b1 <pre_encodercheck_time>
     b22:	70 93 b2 02 	sts	0x02B2, r23	; 0x8002b2 <pre_encodercheck_time+0x1>
     b26:	80 93 b3 02 	sts	0x02B3, r24	; 0x8002b3 <pre_encodercheck_time+0x2>
     b2a:	90 93 b4 02 	sts	0x02B4, r25	; 0x8002b4 <pre_encodercheck_time+0x3>
     b2e:	0e 94 3f 1b 	call	0x367e	; 0x367e <millis>
     b32:	60 93 ad 02 	sts	0x02AD, r22	; 0x8002ad <pre_motor_stop_time>
     b36:	70 93 ae 02 	sts	0x02AE, r23	; 0x8002ae <pre_motor_stop_time+0x1>
     b3a:	80 93 af 02 	sts	0x02AF, r24	; 0x8002af <pre_motor_stop_time+0x2>
     b3e:	90 93 b0 02 	sts	0x02B0, r25	; 0x8002b0 <pre_motor_stop_time+0x3>
     b42:	c0 93 cc 02 	sts	0x02CC, r28	; 0x8002cc <Sound_Update>
     b46:	d0 93 cd 02 	sts	0x02CD, r29	; 0x8002cd <Sound_Num>
     b4a:	0e 94 3f 1b 	call	0x367e	; 0x367e <millis>
     b4e:	60 93 a5 02 	sts	0x02A5, r22	; 0x8002a5 <pre_buzzer_tic>
     b52:	70 93 a6 02 	sts	0x02A6, r23	; 0x8002a6 <pre_buzzer_tic+0x1>
     b56:	80 93 a7 02 	sts	0x02A7, r24	; 0x8002a7 <pre_buzzer_tic+0x2>
     b5a:	90 93 a8 02 	sts	0x02A8, r25	; 0x8002a8 <pre_buzzer_tic+0x3>
     b5e:	8b cf       	rjmp	.-234    	; 0xa76 <updateMotor()+0x24>
     b60:	0e 94 3f 1b 	call	0x367e	; 0x367e <millis>
     b64:	00 91 ad 02 	lds	r16, 0x02AD	; 0x8002ad <pre_motor_stop_time>
     b68:	10 91 ae 02 	lds	r17, 0x02AE	; 0x8002ae <pre_motor_stop_time+0x1>
     b6c:	20 91 af 02 	lds	r18, 0x02AF	; 0x8002af <pre_motor_stop_time+0x2>
     b70:	30 91 b0 02 	lds	r19, 0x02B0	; 0x8002b0 <pre_motor_stop_time+0x3>
     b74:	60 1b       	sub	r22, r16
     b76:	71 0b       	sbc	r23, r17
     b78:	82 0b       	sbc	r24, r18
     b7a:	93 0b       	sbc	r25, r19
     b7c:	65 31       	cpi	r22, 0x15	; 21
     b7e:	71 05       	cpc	r23, r1
     b80:	81 05       	cpc	r24, r1
     b82:	91 05       	cpc	r25, r1
     b84:	08 f4       	brcc	.+2      	; 0xb88 <updateMotor()+0x136>
     b86:	77 cf       	rjmp	.-274    	; 0xa76 <updateMotor()+0x24>
     b88:	0e 94 3f 1b 	call	0x367e	; 0x367e <millis>
     b8c:	00 91 b1 02 	lds	r16, 0x02B1	; 0x8002b1 <pre_encodercheck_time>
     b90:	10 91 b2 02 	lds	r17, 0x02B2	; 0x8002b2 <pre_encodercheck_time+0x1>
     b94:	20 91 b3 02 	lds	r18, 0x02B3	; 0x8002b3 <pre_encodercheck_time+0x2>
     b98:	30 91 b4 02 	lds	r19, 0x02B4	; 0x8002b4 <pre_encodercheck_time+0x3>
     b9c:	60 1b       	sub	r22, r16
     b9e:	71 0b       	sbc	r23, r17
     ba0:	82 0b       	sbc	r24, r18
     ba2:	93 0b       	sbc	r25, r19
     ba4:	69 30       	cpi	r22, 0x09	; 9
     ba6:	71 05       	cpc	r23, r1
     ba8:	81 05       	cpc	r24, r1
     baa:	91 05       	cpc	r25, r1
     bac:	08 f4       	brcc	.+2      	; 0xbb0 <updateMotor()+0x15e>
     bae:	63 cf       	rjmp	.-314    	; 0xa76 <updateMotor()+0x24>
     bb0:	60 e0       	ldi	r22, 0x00	; 0
     bb2:	88 e0       	ldi	r24, 0x08	; 8
     bb4:	0e 94 b8 1c 	call	0x3970	; 0x3970 <digitalWrite>
     bb8:	60 e0       	ldi	r22, 0x00	; 0
     bba:	87 e0       	ldi	r24, 0x07	; 7
     bbc:	0e 94 b8 1c 	call	0x3970	; 0x3970 <digitalWrite>
     bc0:	10 92 ca 02 	sts	0x02CA, r1	; 0x8002ca <pulses+0x1>
     bc4:	10 92 c9 02 	sts	0x02C9, r1	; 0x8002c9 <pulses>
     bc8:	0e 94 3f 1b 	call	0x367e	; 0x367e <millis>
     bcc:	60 93 ad 02 	sts	0x02AD, r22	; 0x8002ad <pre_motor_stop_time>
     bd0:	70 93 ae 02 	sts	0x02AE, r23	; 0x8002ae <pre_motor_stop_time+0x1>
     bd4:	80 93 af 02 	sts	0x02AF, r24	; 0x8002af <pre_motor_stop_time+0x2>
     bd8:	90 93 b0 02 	sts	0x02B0, r25	; 0x8002b0 <pre_motor_stop_time+0x3>
     bdc:	84 e0       	ldi	r24, 0x04	; 4
     bde:	80 93 d0 02 	sts	0x02D0, r24	; 0x8002d0 <active_step>
     be2:	49 cf       	rjmp	.-366    	; 0xa76 <updateMotor()+0x24>
     be4:	0e 94 3f 1b 	call	0x367e	; 0x367e <millis>
     be8:	00 91 ad 02 	lds	r16, 0x02AD	; 0x8002ad <pre_motor_stop_time>
     bec:	10 91 ae 02 	lds	r17, 0x02AE	; 0x8002ae <pre_motor_stop_time+0x1>
     bf0:	20 91 af 02 	lds	r18, 0x02AF	; 0x8002af <pre_motor_stop_time+0x2>
     bf4:	30 91 b0 02 	lds	r19, 0x02B0	; 0x8002b0 <pre_motor_stop_time+0x3>
     bf8:	60 1b       	sub	r22, r16
     bfa:	71 0b       	sbc	r23, r17
     bfc:	82 0b       	sbc	r24, r18
     bfe:	93 0b       	sbc	r25, r19
     c00:	62 37       	cpi	r22, 0x72	; 114
     c02:	72 40       	sbci	r23, 0x02	; 2
     c04:	81 05       	cpc	r24, r1
     c06:	91 05       	cpc	r25, r1
     c08:	08 f4       	brcc	.+2      	; 0xc0c <updateMotor()+0x1ba>
     c0a:	35 cf       	rjmp	.-406    	; 0xa76 <updateMotor()+0x24>
     c0c:	85 e0       	ldi	r24, 0x05	; 5
     c0e:	80 93 d0 02 	sts	0x02D0, r24	; 0x8002d0 <active_step>
     c12:	82 e0       	ldi	r24, 0x02	; 2
     c14:	80 93 cc 02 	sts	0x02CC, r24	; 0x8002cc <Sound_Update>
     c18:	83 e0       	ldi	r24, 0x03	; 3
     c1a:	80 93 cd 02 	sts	0x02CD, r24	; 0x8002cd <Sound_Num>
     c1e:	95 cf       	rjmp	.-214    	; 0xb4a <updateMotor()+0xf8>

00000c20 <ledOffAll()>:
_Z9ledOffAllv():
     c20:	61 e0       	ldi	r22, 0x01	; 1
     c22:	84 e2       	ldi	r24, 0x24	; 36
     c24:	0e 94 b8 1c 	call	0x3970	; 0x3970 <digitalWrite>
     c28:	61 e0       	ldi	r22, 0x01	; 1
     c2a:	88 e2       	ldi	r24, 0x28	; 40
     c2c:	0e 94 b8 1c 	call	0x3970	; 0x3970 <digitalWrite>
     c30:	61 e0       	ldi	r22, 0x01	; 1
     c32:	85 e2       	ldi	r24, 0x25	; 37
     c34:	0e 94 b8 1c 	call	0x3970	; 0x3970 <digitalWrite>
     c38:	61 e0       	ldi	r22, 0x01	; 1
     c3a:	89 e2       	ldi	r24, 0x29	; 41
     c3c:	0e 94 b8 1c 	call	0x3970	; 0x3970 <digitalWrite>
     c40:	61 e0       	ldi	r22, 0x01	; 1
     c42:	82 e2       	ldi	r24, 0x22	; 34
     c44:	0e 94 b8 1c 	call	0x3970	; 0x3970 <digitalWrite>
     c48:	61 e0       	ldi	r22, 0x01	; 1
     c4a:	83 e2       	ldi	r24, 0x23	; 35
     c4c:	0e 94 b8 1c 	call	0x3970	; 0x3970 <digitalWrite>
     c50:	61 e0       	ldi	r22, 0x01	; 1
     c52:	81 e2       	ldi	r24, 0x21	; 33
     c54:	0e 94 b8 1c 	call	0x3970	; 0x3970 <digitalWrite>
     c58:	61 e0       	ldi	r22, 0x01	; 1
     c5a:	80 e2       	ldi	r24, 0x20	; 32
     c5c:	0e 94 b8 1c 	call	0x3970	; 0x3970 <digitalWrite>
     c60:	61 e0       	ldi	r22, 0x01	; 1
     c62:	8e e0       	ldi	r24, 0x0E	; 14
     c64:	0e 94 b8 1c 	call	0x3970	; 0x3970 <digitalWrite>
     c68:	61 e0       	ldi	r22, 0x01	; 1
     c6a:	8f e1       	ldi	r24, 0x1F	; 31
     c6c:	0e 94 b8 1c 	call	0x3970	; 0x3970 <digitalWrite>
     c70:	61 e0       	ldi	r22, 0x01	; 1
     c72:	8e e1       	ldi	r24, 0x1E	; 30
     c74:	0e 94 b8 1c 	call	0x3970	; 0x3970 <digitalWrite>
     c78:	61 e0       	ldi	r22, 0x01	; 1
     c7a:	8f e0       	ldi	r24, 0x0F	; 15
     c7c:	0e 94 b8 1c 	call	0x3970	; 0x3970 <digitalWrite>
     c80:	61 e0       	ldi	r22, 0x01	; 1
     c82:	87 e2       	ldi	r24, 0x27	; 39
     c84:	0e 94 b8 1c 	call	0x3970	; 0x3970 <digitalWrite>
     c88:	61 e0       	ldi	r22, 0x01	; 1
     c8a:	8d e1       	ldi	r24, 0x1D	; 29
     c8c:	0e 94 b8 1c 	call	0x3970	; 0x3970 <digitalWrite>
     c90:	61 e0       	ldi	r22, 0x01	; 1
     c92:	8c e1       	ldi	r24, 0x1C	; 28
     c94:	0c 94 b8 1c 	jmp	0x3970	; 0x3970 <digitalWrite>

00000c98 <updateLED()>:
_Z9updateLEDv():
     c98:	0f 93       	push	r16
     c9a:	1f 93       	push	r17
     c9c:	80 91 75 02 	lds	r24, 0x0275	; 0x800275 <updateLED()::led_timing>
     ca0:	84 30       	cpi	r24, 0x04	; 4
     ca2:	10 f0       	brcs	.+4      	; 0xca8 <updateLED()+0x10>
     ca4:	10 92 75 02 	sts	0x0275, r1	; 0x800275 <updateLED()::led_timing>
     ca8:	80 91 d1 02 	lds	r24, 0x02D1	; 0x8002d1 <f_power_state>
     cac:	81 11       	cpse	r24, r1
     cae:	02 c0       	rjmp	.+4      	; 0xcb4 <updateLED()+0x1c>
     cb0:	0e 94 10 06 	call	0xc20	; 0xc20 <ledOffAll()>
     cb4:	80 91 75 02 	lds	r24, 0x0275	; 0x800275 <updateLED()::led_timing>
     cb8:	81 30       	cpi	r24, 0x01	; 1
     cba:	09 f4       	brne	.+2      	; 0xcbe <updateLED()+0x26>
     cbc:	53 c0       	rjmp	.+166    	; 0xd64 <updateLED()+0xcc>
     cbe:	90 f1       	brcs	.+100    	; 0xd24 <updateLED()+0x8c>
     cc0:	82 30       	cpi	r24, 0x02	; 2
     cc2:	09 f4       	brne	.+2      	; 0xcc6 <updateLED()+0x2e>
     cc4:	96 c0       	rjmp	.+300    	; 0xdf2 <updateLED()+0x15a>
     cc6:	83 30       	cpi	r24, 0x03	; 3
     cc8:	09 f4       	brne	.+2      	; 0xccc <updateLED()+0x34>
     cca:	ec c0       	rjmp	.+472    	; 0xea4 <updateLED()+0x20c>
     ccc:	0e 94 3f 1b 	call	0x367e	; 0x367e <millis>
     cd0:	00 91 a9 02 	lds	r16, 0x02A9	; 0x8002a9 <pre_led_flash_time>
     cd4:	10 91 aa 02 	lds	r17, 0x02AA	; 0x8002aa <pre_led_flash_time+0x1>
     cd8:	20 91 ab 02 	lds	r18, 0x02AB	; 0x8002ab <pre_led_flash_time+0x2>
     cdc:	30 91 ac 02 	lds	r19, 0x02AC	; 0x8002ac <pre_led_flash_time+0x3>
     ce0:	60 1b       	sub	r22, r16
     ce2:	71 0b       	sbc	r23, r17
     ce4:	82 0b       	sbc	r24, r18
     ce6:	93 0b       	sbc	r25, r19
     ce8:	63 33       	cpi	r22, 0x33	; 51
     cea:	71 05       	cpc	r23, r1
     cec:	81 05       	cpc	r24, r1
     cee:	91 05       	cpc	r25, r1
     cf0:	88 f0       	brcs	.+34     	; 0xd14 <updateLED()+0x7c>
     cf2:	0e 94 3f 1b 	call	0x367e	; 0x367e <millis>
     cf6:	60 93 a9 02 	sts	0x02A9, r22	; 0x8002a9 <pre_led_flash_time>
     cfa:	70 93 aa 02 	sts	0x02AA, r23	; 0x8002aa <pre_led_flash_time+0x1>
     cfe:	80 93 ab 02 	sts	0x02AB, r24	; 0x8002ab <pre_led_flash_time+0x2>
     d02:	90 93 ac 02 	sts	0x02AC, r25	; 0x8002ac <pre_led_flash_time+0x3>
     d06:	80 91 ce 02 	lds	r24, 0x02CE	; 0x8002ce <flash_statae>
     d0a:	81 11       	cpse	r24, r1
     d0c:	dc c0       	rjmp	.+440    	; 0xec6 <updateLED()+0x22e>
     d0e:	81 e0       	ldi	r24, 0x01	; 1
     d10:	80 93 ce 02 	sts	0x02CE, r24	; 0x8002ce <flash_statae>
     d14:	80 91 75 02 	lds	r24, 0x0275	; 0x800275 <updateLED()::led_timing>
     d18:	8f 5f       	subi	r24, 0xFF	; 255
     d1a:	80 93 75 02 	sts	0x0275, r24	; 0x800275 <updateLED()::led_timing>
     d1e:	1f 91       	pop	r17
     d20:	0f 91       	pop	r16
     d22:	08 95       	ret
     d24:	80 91 d1 02 	lds	r24, 0x02D1	; 0x8002d1 <f_power_state>
     d28:	88 23       	and	r24, r24
     d2a:	81 f2       	breq	.-96     	; 0xccc <updateLED()+0x34>
     d2c:	60 e0       	ldi	r22, 0x00	; 0
     d2e:	84 e2       	ldi	r24, 0x24	; 36
     d30:	0e 94 b8 1c 	call	0x3970	; 0x3970 <digitalWrite>
     d34:	60 e0       	ldi	r22, 0x00	; 0
     d36:	85 e2       	ldi	r24, 0x25	; 37
     d38:	0e 94 b8 1c 	call	0x3970	; 0x3970 <digitalWrite>
     d3c:	60 e0       	ldi	r22, 0x00	; 0
     d3e:	88 e2       	ldi	r24, 0x28	; 40
     d40:	0e 94 b8 1c 	call	0x3970	; 0x3970 <digitalWrite>
     d44:	8c e2       	ldi	r24, 0x2C	; 44
     d46:	0e 94 e6 1c 	call	0x39cc	; 0x39cc <digitalRead>
     d4a:	01 97       	sbiw	r24, 0x01	; 1
     d4c:	29 f4       	brne	.+10     	; 0xd58 <updateLED()+0xc0>
     d4e:	60 e0       	ldi	r22, 0x00	; 0
     d50:	89 e2       	ldi	r24, 0x29	; 41
     d52:	0e 94 b8 1c 	call	0x3970	; 0x3970 <digitalWrite>
     d56:	ba cf       	rjmp	.-140    	; 0xccc <updateLED()+0x34>
     d58:	80 91 ce 02 	lds	r24, 0x02CE	; 0x8002ce <flash_statae>
     d5c:	88 23       	and	r24, r24
     d5e:	b9 f3       	breq	.-18     	; 0xd4e <updateLED()+0xb6>
     d60:	61 e0       	ldi	r22, 0x01	; 1
     d62:	f6 cf       	rjmp	.-20     	; 0xd50 <updateLED()+0xb8>
     d64:	80 91 d1 02 	lds	r24, 0x02D1	; 0x8002d1 <f_power_state>
     d68:	88 23       	and	r24, r24
     d6a:	09 f4       	brne	.+2      	; 0xd6e <updateLED()+0xd6>
     d6c:	af cf       	rjmp	.-162    	; 0xccc <updateLED()+0x34>
     d6e:	8a e3       	ldi	r24, 0x3A	; 58
     d70:	0e 94 ef 1b 	call	0x37de	; 0x37de <analogRead>
     d74:	81 30       	cpi	r24, 0x01	; 1
     d76:	92 40       	sbci	r25, 0x02	; 2
     d78:	2c f0       	brlt	.+10     	; 0xd84 <updateLED()+0xec>
     d7a:	80 91 ce 02 	lds	r24, 0x02CE	; 0x8002ce <flash_statae>
     d7e:	61 e0       	ldi	r22, 0x01	; 1
     d80:	81 11       	cpse	r24, r1
     d82:	01 c0       	rjmp	.+2      	; 0xd86 <updateLED()+0xee>
     d84:	60 e0       	ldi	r22, 0x00	; 0
     d86:	82 e2       	ldi	r24, 0x22	; 34
     d88:	0e 94 b8 1c 	call	0x3970	; 0x3970 <digitalWrite>
     d8c:	86 e3       	ldi	r24, 0x36	; 54
     d8e:	0e 94 ef 1b 	call	0x37de	; 0x37de <analogRead>
     d92:	8d 3e       	cpi	r24, 0xED	; 237
     d94:	92 40       	sbci	r25, 0x02	; 2
     d96:	5c f0       	brlt	.+22     	; 0xdae <updateLED()+0x116>
     d98:	60 e0       	ldi	r22, 0x00	; 0
     d9a:	83 e2       	ldi	r24, 0x23	; 35
     d9c:	0e 94 b8 1c 	call	0x3970	; 0x3970 <digitalWrite>
     da0:	60 e0       	ldi	r22, 0x00	; 0
     da2:	81 e2       	ldi	r24, 0x21	; 33
     da4:	0e 94 b8 1c 	call	0x3970	; 0x3970 <digitalWrite>
     da8:	60 e0       	ldi	r22, 0x00	; 0
     daa:	80 e2       	ldi	r24, 0x20	; 32
     dac:	d2 cf       	rjmp	.-92     	; 0xd52 <updateLED()+0xba>
     dae:	86 e3       	ldi	r24, 0x36	; 54
     db0:	0e 94 ef 1b 	call	0x37de	; 0x37de <analogRead>
     db4:	8d 33       	cpi	r24, 0x3D	; 61
     db6:	92 40       	sbci	r25, 0x02	; 2
     db8:	54 f0       	brlt	.+20     	; 0xdce <updateLED()+0x136>
     dba:	60 e0       	ldi	r22, 0x00	; 0
     dbc:	83 e2       	ldi	r24, 0x23	; 35
     dbe:	0e 94 b8 1c 	call	0x3970	; 0x3970 <digitalWrite>
     dc2:	60 e0       	ldi	r22, 0x00	; 0
     dc4:	81 e2       	ldi	r24, 0x21	; 33
     dc6:	0e 94 b8 1c 	call	0x3970	; 0x3970 <digitalWrite>
     dca:	61 e0       	ldi	r22, 0x01	; 1
     dcc:	ee cf       	rjmp	.-36     	; 0xdaa <updateLED()+0x112>
     dce:	86 e3       	ldi	r24, 0x36	; 54
     dd0:	0e 94 ef 1b 	call	0x37de	; 0x37de <analogRead>
     dd4:	8d 3d       	cpi	r24, 0xDD	; 221
     dd6:	91 05       	cpc	r25, r1
     dd8:	14 f0       	brlt	.+4      	; 0xdde <updateLED()+0x146>
     dda:	60 e0       	ldi	r22, 0x00	; 0
     ddc:	05 c0       	rjmp	.+10     	; 0xde8 <updateLED()+0x150>
     dde:	80 91 ce 02 	lds	r24, 0x02CE	; 0x8002ce <flash_statae>
     de2:	61 e0       	ldi	r22, 0x01	; 1
     de4:	88 23       	and	r24, r24
     de6:	c9 f3       	breq	.-14     	; 0xdda <updateLED()+0x142>
     de8:	83 e2       	ldi	r24, 0x23	; 35
     dea:	0e 94 b8 1c 	call	0x3970	; 0x3970 <digitalWrite>
     dee:	61 e0       	ldi	r22, 0x01	; 1
     df0:	e9 cf       	rjmp	.-46     	; 0xdc4 <updateLED()+0x12c>
     df2:	80 91 d1 02 	lds	r24, 0x02D1	; 0x8002d1 <f_power_state>
     df6:	88 23       	and	r24, r24
     df8:	09 f4       	brne	.+2      	; 0xdfc <updateLED()+0x164>
     dfa:	68 cf       	rjmp	.-304    	; 0xccc <updateLED()+0x34>
     dfc:	60 e0       	ldi	r22, 0x00	; 0
     dfe:	8e e0       	ldi	r24, 0x0E	; 14
     e00:	0e 94 b8 1c 	call	0x3970	; 0x3970 <digitalWrite>
     e04:	e0 91 d0 02 	lds	r30, 0x02D0	; 0x8002d0 <active_step>
     e08:	e7 30       	cpi	r30, 0x07	; 7
     e0a:	08 f0       	brcs	.+2      	; 0xe0e <updateLED()+0x176>
     e0c:	5f cf       	rjmp	.-322    	; 0xccc <updateLED()+0x34>
     e0e:	f0 e0       	ldi	r31, 0x00	; 0
     e10:	88 27       	eor	r24, r24
     e12:	e2 5f       	subi	r30, 0xF2	; 242
     e14:	f8 4f       	sbci	r31, 0xF8	; 248
     e16:	8f 4f       	sbci	r24, 0xFF	; 255
     e18:	0c 94 51 1d 	jmp	0x3aa2	; 0x3aa2 <__tablejump2__>
     e1c:	19 07       	cpc	r17, r25
     e1e:	15 07       	cpc	r17, r21
     e20:	28 07       	cpc	r18, r24
     e22:	28 07       	cpc	r18, r24
     e24:	32 07       	cpc	r19, r18
     e26:	40 07       	cpc	r20, r16
     e28:	40 07       	cpc	r20, r16
     e2a:	80 91 ce 02 	lds	r24, 0x02CE	; 0x8002ce <flash_statae>
     e2e:	60 e0       	ldi	r22, 0x00	; 0
     e30:	81 11       	cpse	r24, r1
     e32:	61 e0       	ldi	r22, 0x01	; 1
     e34:	8f e1       	ldi	r24, 0x1F	; 31
     e36:	0e 94 b8 1c 	call	0x3970	; 0x3970 <digitalWrite>
     e3a:	61 e0       	ldi	r22, 0x01	; 1
     e3c:	8e e1       	ldi	r24, 0x1E	; 30
     e3e:	0e 94 b8 1c 	call	0x3970	; 0x3970 <digitalWrite>
     e42:	61 e0       	ldi	r22, 0x01	; 1
     e44:	8f e0       	ldi	r24, 0x0F	; 15
     e46:	0e 94 b8 1c 	call	0x3970	; 0x3970 <digitalWrite>
     e4a:	61 e0       	ldi	r22, 0x01	; 1
     e4c:	87 e2       	ldi	r24, 0x27	; 39
     e4e:	81 cf       	rjmp	.-254    	; 0xd52 <updateLED()+0xba>
     e50:	60 e0       	ldi	r22, 0x00	; 0
     e52:	8f e1       	ldi	r24, 0x1F	; 31
     e54:	0e 94 b8 1c 	call	0x3970	; 0x3970 <digitalWrite>
     e58:	80 91 ce 02 	lds	r24, 0x02CE	; 0x8002ce <flash_statae>
     e5c:	60 e0       	ldi	r22, 0x00	; 0
     e5e:	88 23       	and	r24, r24
     e60:	69 f3       	breq	.-38     	; 0xe3c <updateLED()+0x1a4>
     e62:	eb cf       	rjmp	.-42     	; 0xe3a <updateLED()+0x1a2>
     e64:	60 e0       	ldi	r22, 0x00	; 0
     e66:	8f e1       	ldi	r24, 0x1F	; 31
     e68:	0e 94 b8 1c 	call	0x3970	; 0x3970 <digitalWrite>
     e6c:	60 e0       	ldi	r22, 0x00	; 0
     e6e:	8e e1       	ldi	r24, 0x1E	; 30
     e70:	0e 94 b8 1c 	call	0x3970	; 0x3970 <digitalWrite>
     e74:	80 91 ce 02 	lds	r24, 0x02CE	; 0x8002ce <flash_statae>
     e78:	60 e0       	ldi	r22, 0x00	; 0
     e7a:	88 23       	and	r24, r24
     e7c:	19 f3       	breq	.-58     	; 0xe44 <updateLED()+0x1ac>
     e7e:	e1 cf       	rjmp	.-62     	; 0xe42 <updateLED()+0x1aa>
     e80:	60 e0       	ldi	r22, 0x00	; 0
     e82:	8f e1       	ldi	r24, 0x1F	; 31
     e84:	0e 94 b8 1c 	call	0x3970	; 0x3970 <digitalWrite>
     e88:	60 e0       	ldi	r22, 0x00	; 0
     e8a:	8e e1       	ldi	r24, 0x1E	; 30
     e8c:	0e 94 b8 1c 	call	0x3970	; 0x3970 <digitalWrite>
     e90:	60 e0       	ldi	r22, 0x00	; 0
     e92:	8f e0       	ldi	r24, 0x0F	; 15
     e94:	0e 94 b8 1c 	call	0x3970	; 0x3970 <digitalWrite>
     e98:	80 91 ce 02 	lds	r24, 0x02CE	; 0x8002ce <flash_statae>
     e9c:	60 e0       	ldi	r22, 0x00	; 0
     e9e:	88 23       	and	r24, r24
     ea0:	a9 f2       	breq	.-86     	; 0xe4c <updateLED()+0x1b4>
     ea2:	d3 cf       	rjmp	.-90     	; 0xe4a <updateLED()+0x1b2>
     ea4:	80 91 d2 02 	lds	r24, 0x02D2	; 0x8002d2 <f_peltier_state>
     ea8:	88 23       	and	r24, r24
     eaa:	39 f0       	breq	.+14     	; 0xeba <updateLED()+0x222>
     eac:	60 e0       	ldi	r22, 0x00	; 0
     eae:	8d e1       	ldi	r24, 0x1D	; 29
     eb0:	0e 94 b8 1c 	call	0x3970	; 0x3970 <digitalWrite>
     eb4:	61 e0       	ldi	r22, 0x01	; 1
     eb6:	8c e1       	ldi	r24, 0x1C	; 28
     eb8:	4c cf       	rjmp	.-360    	; 0xd52 <updateLED()+0xba>
     eba:	61 e0       	ldi	r22, 0x01	; 1
     ebc:	8d e1       	ldi	r24, 0x1D	; 29
     ebe:	0e 94 b8 1c 	call	0x3970	; 0x3970 <digitalWrite>
     ec2:	60 e0       	ldi	r22, 0x00	; 0
     ec4:	f8 cf       	rjmp	.-16     	; 0xeb6 <updateLED()+0x21e>
     ec6:	10 92 ce 02 	sts	0x02CE, r1	; 0x8002ce <flash_statae>
     eca:	24 cf       	rjmp	.-440    	; 0xd14 <updateLED()+0x7c>

00000ecc <updateEEPROM()>:
_Z12updateEEPROMv():
     ecc:	cf 93       	push	r28
     ece:	df 93       	push	r29
     ed0:	80 91 d4 02 	lds	r24, 0x02D4	; 0x8002d4 <is_update_infor>
     ed4:	88 23       	and	r24, r24
     ed6:	51 f1       	breq	.+84     	; 0xf2c <updateEEPROM()+0x60>
     ed8:	10 92 d4 02 	sts	0x02D4, r1	; 0x8002d4 <is_update_infor>
     edc:	d0 e0       	ldi	r29, 0x00	; 0
     ede:	c0 e0       	ldi	r28, 0x00	; 0
_ZN5EERefaSEh():
     ee0:	60 e0       	ldi	r22, 0x00	; 0
     ee2:	ce 01       	movw	r24, r28
     ee4:	0e 94 73 1d 	call	0x3ae6	; 0x3ae6 <eeprom_write_byte>
_Z12updateEEPROMv():
     ee8:	61 e0       	ldi	r22, 0x01	; 1
     eea:	70 e0       	ldi	r23, 0x00	; 0
     eec:	80 e0       	ldi	r24, 0x00	; 0
     eee:	90 e0       	ldi	r25, 0x00	; 0
     ef0:	0e 94 70 1b 	call	0x36e0	; 0x36e0 <delay>
     ef4:	21 96       	adiw	r28, 0x01	; 1
     ef6:	ca 30       	cpi	r28, 0x0A	; 10
     ef8:	d1 05       	cpc	r29, r1
     efa:	91 f7       	brne	.-28     	; 0xee0 <updateEEPROM()+0x14>
_ZN5EERefaSEh():
     efc:	65 e5       	ldi	r22, 0x55	; 85
     efe:	90 e0       	ldi	r25, 0x00	; 0
     f00:	80 e0       	ldi	r24, 0x00	; 0
     f02:	0e 94 73 1d 	call	0x3ae6	; 0x3ae6 <eeprom_write_byte>
_Z12updateEEPROMv():
     f06:	61 e0       	ldi	r22, 0x01	; 1
     f08:	70 e0       	ldi	r23, 0x00	; 0
     f0a:	80 e0       	ldi	r24, 0x00	; 0
     f0c:	90 e0       	ldi	r25, 0x00	; 0
     f0e:	0e 94 70 1b 	call	0x36e0	; 0x36e0 <delay>
_ZN5EERefaSEh():
     f12:	65 e5       	ldi	r22, 0x55	; 85
     f14:	82 e0       	ldi	r24, 0x02	; 2
     f16:	90 e0       	ldi	r25, 0x00	; 0
     f18:	0e 94 73 1d 	call	0x3ae6	; 0x3ae6 <eeprom_write_byte>
_Z12updateEEPROMv():
     f1c:	61 e0       	ldi	r22, 0x01	; 1
     f1e:	70 e0       	ldi	r23, 0x00	; 0
     f20:	80 e0       	ldi	r24, 0x00	; 0
     f22:	90 e0       	ldi	r25, 0x00	; 0
     f24:	df 91       	pop	r29
     f26:	cf 91       	pop	r28
     f28:	0c 94 70 1b 	jmp	0x36e0	; 0x36e0 <delay>
     f2c:	df 91       	pop	r29
     f2e:	cf 91       	pop	r28
     f30:	08 95       	ret

00000f32 <enableTouch()>:
_Z11enableTouchv():
     f32:	20 e3       	ldi	r18, 0x30	; 48
     f34:	30 e0       	ldi	r19, 0x00	; 0
     f36:	49 e3       	ldi	r20, 0x39	; 57
     f38:	50 e0       	ldi	r21, 0x00	; 0
     f3a:	64 e2       	ldi	r22, 0x24	; 36
     f3c:	70 e0       	ldi	r23, 0x00	; 0
     f3e:	85 e9       	ldi	r24, 0x95	; 149
     f40:	93 e0       	ldi	r25, 0x03	; 3
     f42:	0e 94 cc 0e 	call	0x1d98	; 0x1d98 <I2C::write(int, int, int)>
     f46:	20 e3       	ldi	r18, 0x30	; 48
     f48:	30 e0       	ldi	r19, 0x00	; 0
     f4a:	4a e3       	ldi	r20, 0x3A	; 58
     f4c:	50 e0       	ldi	r21, 0x00	; 0
     f4e:	64 e2       	ldi	r22, 0x24	; 36
     f50:	70 e0       	ldi	r23, 0x00	; 0
     f52:	85 e9       	ldi	r24, 0x95	; 149
     f54:	93 e0       	ldi	r25, 0x03	; 3
     f56:	0e 94 cc 0e 	call	0x1d98	; 0x1d98 <I2C::write(int, int, int)>
     f5a:	20 e3       	ldi	r18, 0x30	; 48
     f5c:	30 e0       	ldi	r19, 0x00	; 0
     f5e:	4b e3       	ldi	r20, 0x3B	; 59
     f60:	50 e0       	ldi	r21, 0x00	; 0
     f62:	64 e2       	ldi	r22, 0x24	; 36
     f64:	70 e0       	ldi	r23, 0x00	; 0
     f66:	85 e9       	ldi	r24, 0x95	; 149
     f68:	93 e0       	ldi	r25, 0x03	; 3
     f6a:	0e 94 cc 0e 	call	0x1d98	; 0x1d98 <I2C::write(int, int, int)>
     f6e:	20 e3       	ldi	r18, 0x30	; 48
     f70:	30 e0       	ldi	r19, 0x00	; 0
     f72:	4c e3       	ldi	r20, 0x3C	; 60
     f74:	50 e0       	ldi	r21, 0x00	; 0
     f76:	64 e2       	ldi	r22, 0x24	; 36
     f78:	70 e0       	ldi	r23, 0x00	; 0
     f7a:	85 e9       	ldi	r24, 0x95	; 149
     f7c:	93 e0       	ldi	r25, 0x03	; 3
     f7e:	0e 94 cc 0e 	call	0x1d98	; 0x1d98 <I2C::write(int, int, int)>
     f82:	20 e3       	ldi	r18, 0x30	; 48
     f84:	30 e0       	ldi	r19, 0x00	; 0
     f86:	4d e3       	ldi	r20, 0x3D	; 61
     f88:	50 e0       	ldi	r21, 0x00	; 0
     f8a:	64 e2       	ldi	r22, 0x24	; 36
     f8c:	70 e0       	ldi	r23, 0x00	; 0
     f8e:	85 e9       	ldi	r24, 0x95	; 149
     f90:	93 e0       	ldi	r25, 0x03	; 3
     f92:	0e 94 cc 0e 	call	0x1d98	; 0x1d98 <I2C::write(int, int, int)>
     f96:	20 e3       	ldi	r18, 0x30	; 48
     f98:	30 e0       	ldi	r19, 0x00	; 0
     f9a:	4e e3       	ldi	r20, 0x3E	; 62
     f9c:	50 e0       	ldi	r21, 0x00	; 0
     f9e:	64 e2       	ldi	r22, 0x24	; 36
     fa0:	70 e0       	ldi	r23, 0x00	; 0
     fa2:	85 e9       	ldi	r24, 0x95	; 149
     fa4:	93 e0       	ldi	r25, 0x03	; 3
     fa6:	0e 94 cc 0e 	call	0x1d98	; 0x1d98 <I2C::write(int, int, int)>
     faa:	20 e3       	ldi	r18, 0x30	; 48
     fac:	30 e0       	ldi	r19, 0x00	; 0
     fae:	4f e3       	ldi	r20, 0x3F	; 63
     fb0:	50 e0       	ldi	r21, 0x00	; 0
     fb2:	64 e2       	ldi	r22, 0x24	; 36
     fb4:	70 e0       	ldi	r23, 0x00	; 0
     fb6:	85 e9       	ldi	r24, 0x95	; 149
     fb8:	93 e0       	ldi	r25, 0x03	; 3
     fba:	0e 94 cc 0e 	call	0x1d98	; 0x1d98 <I2C::write(int, int, int)>
     fbe:	20 e3       	ldi	r18, 0x30	; 48
     fc0:	30 e0       	ldi	r19, 0x00	; 0
     fc2:	40 e4       	ldi	r20, 0x40	; 64
     fc4:	50 e0       	ldi	r21, 0x00	; 0
     fc6:	64 e2       	ldi	r22, 0x24	; 36
     fc8:	70 e0       	ldi	r23, 0x00	; 0
     fca:	85 e9       	ldi	r24, 0x95	; 149
     fcc:	93 e0       	ldi	r25, 0x03	; 3
     fce:	0e 94 cc 0e 	call	0x1d98	; 0x1d98 <I2C::write(int, int, int)>
     fd2:	64 e6       	ldi	r22, 0x64	; 100
     fd4:	70 e0       	ldi	r23, 0x00	; 0
     fd6:	80 e0       	ldi	r24, 0x00	; 0
     fd8:	90 e0       	ldi	r25, 0x00	; 0
     fda:	0e 94 70 1b 	call	0x36e0	; 0x36e0 <delay>
     fde:	2f e0       	ldi	r18, 0x0F	; 15
     fe0:	30 e0       	ldi	r19, 0x00	; 0
     fe2:	41 e0       	ldi	r20, 0x01	; 1
     fe4:	50 e0       	ldi	r21, 0x00	; 0
     fe6:	64 e2       	ldi	r22, 0x24	; 36
     fe8:	70 e0       	ldi	r23, 0x00	; 0
     fea:	85 e9       	ldi	r24, 0x95	; 149
     fec:	93 e0       	ldi	r25, 0x03	; 3
     fee:	0c 94 cc 0e 	jmp	0x1d98	; 0x1d98 <I2C::write(int, int, int)>

00000ff2 <Melody_Proc()>:
_Z11Melody_Procv():
     ff2:	0f 93       	push	r16
     ff4:	1f 93       	push	r17
     ff6:	80 91 cc 02 	lds	r24, 0x02CC	; 0x8002cc <Sound_Update>
     ffa:	88 23       	and	r24, r24
     ffc:	09 f4       	brne	.+2      	; 0x1000 <Melody_Proc()+0xe>
     ffe:	71 c0       	rjmp	.+226    	; 0x10e2 <Melody_Proc()+0xf0>
    1000:	0e 94 3f 1b 	call	0x367e	; 0x367e <millis>
    1004:	00 91 a5 02 	lds	r16, 0x02A5	; 0x8002a5 <pre_buzzer_tic>
    1008:	10 91 a6 02 	lds	r17, 0x02A6	; 0x8002a6 <pre_buzzer_tic+0x1>
    100c:	20 91 a7 02 	lds	r18, 0x02A7	; 0x8002a7 <pre_buzzer_tic+0x2>
    1010:	30 91 a8 02 	lds	r19, 0x02A8	; 0x8002a8 <pre_buzzer_tic+0x3>
    1014:	60 1b       	sub	r22, r16
    1016:	71 0b       	sbc	r23, r17
    1018:	82 0b       	sbc	r24, r18
    101a:	93 0b       	sbc	r25, r19
    101c:	68 30       	cpi	r22, 0x08	; 8
    101e:	71 05       	cpc	r23, r1
    1020:	81 05       	cpc	r24, r1
    1022:	91 05       	cpc	r25, r1
    1024:	08 f4       	brcc	.+2      	; 0x1028 <Melody_Proc()+0x36>
    1026:	5d c0       	rjmp	.+186    	; 0x10e2 <Melody_Proc()+0xf0>
    1028:	0e 94 3f 1b 	call	0x367e	; 0x367e <millis>
    102c:	60 93 a5 02 	sts	0x02A5, r22	; 0x8002a5 <pre_buzzer_tic>
    1030:	70 93 a6 02 	sts	0x02A6, r23	; 0x8002a6 <pre_buzzer_tic+0x1>
    1034:	80 93 a7 02 	sts	0x02A7, r24	; 0x8002a7 <pre_buzzer_tic+0x2>
    1038:	90 93 a8 02 	sts	0x02A8, r25	; 0x8002a8 <pre_buzzer_tic+0x3>
    103c:	80 91 cc 02 	lds	r24, 0x02CC	; 0x8002cc <Sound_Update>
    1040:	82 30       	cpi	r24, 0x02	; 2
    1042:	29 f4       	brne	.+10     	; 0x104e <Melody_Proc()+0x5c>
    1044:	10 92 74 02 	sts	0x0274, r1	; 0x800274 <__data_end>
    1048:	81 e0       	ldi	r24, 0x01	; 1
    104a:	80 93 cc 02 	sts	0x02CC, r24	; 0x8002cc <Sound_Update>
    104e:	e0 91 74 02 	lds	r30, 0x0274	; 0x800274 <__data_end>
    1052:	81 e0       	ldi	r24, 0x01	; 1
    1054:	8e 0f       	add	r24, r30
    1056:	80 93 74 02 	sts	0x0274, r24	; 0x800274 <__data_end>
    105a:	90 91 cd 02 	lds	r25, 0x02CD	; 0x8002cd <Sound_Num>
    105e:	91 30       	cpi	r25, 0x01	; 1
    1060:	09 f0       	breq	.+2      	; 0x1064 <Melody_Proc()+0x72>
    1062:	38 c0       	rjmp	.+112    	; 0x10d4 <Melody_Proc()+0xe2>
    1064:	ee 30       	cpi	r30, 0x0E	; 14
    1066:	08 f0       	brcs	.+2      	; 0x106a <Melody_Proc()+0x78>
    1068:	3c c0       	rjmp	.+120    	; 0x10e2 <Melody_Proc()+0xf0>
    106a:	f0 e0       	ldi	r31, 0x00	; 0
    106c:	88 27       	eor	r24, r24
    106e:	e4 5c       	subi	r30, 0xC4	; 196
    1070:	f7 4f       	sbci	r31, 0xF7	; 247
    1072:	8f 4f       	sbci	r24, 0xFF	; 255
    1074:	0c 94 51 1d 	jmp	0x3aa2	; 0x3aa2 <__tablejump2__>
    1078:	4a 08       	sbc	r4, r10
    107a:	71 08       	sbc	r7, r1
    107c:	54 08       	sbc	r5, r4
    107e:	71 08       	sbc	r7, r1
    1080:	be 08       	sbc	r11, r14
    1082:	71 08       	sbc	r7, r1
    1084:	5e 08       	sbc	r5, r14
    1086:	71 08       	sbc	r7, r1
    1088:	94 08       	sbc	r9, r4
    108a:	71 08       	sbc	r7, r1
    108c:	64 08       	sbc	r6, r4
    108e:	71 08       	sbc	r7, r1
    1090:	c7 08       	sbc	r12, r7
    1092:	7d 08       	sbc	r7, r13
    1094:	8e e2       	ldi	r24, 0x2E	; 46
    1096:	0e 94 9d 18 	call	0x313a	; 0x313a <noTone(unsigned char)>
    109a:	60 e0       	ldi	r22, 0x00	; 0
    109c:	8e e2       	ldi	r24, 0x2E	; 46
    109e:	0e 94 b8 1c 	call	0x3970	; 0x3970 <digitalWrite>
    10a2:	61 e0       	ldi	r22, 0x01	; 1
    10a4:	8d e2       	ldi	r24, 0x2D	; 45
    10a6:	32 c0       	rjmp	.+100    	; 0x110c <Melody_Proc()+0x11a>
    10a8:	20 e0       	ldi	r18, 0x00	; 0
    10aa:	30 e0       	ldi	r19, 0x00	; 0
    10ac:	a9 01       	movw	r20, r18
    10ae:	68 ec       	ldi	r22, 0xC8	; 200
    10b0:	79 e1       	ldi	r23, 0x19	; 25
    10b2:	8e e2       	ldi	r24, 0x2E	; 46
    10b4:	1f 91       	pop	r17
    10b6:	0f 91       	pop	r16
    10b8:	0c 94 0d 15 	jmp	0x2a1a	; 0x2a1a <tone(unsigned char, unsigned int, unsigned long)>
    10bc:	20 e0       	ldi	r18, 0x00	; 0
    10be:	30 e0       	ldi	r19, 0x00	; 0
    10c0:	a9 01       	movw	r20, r18
    10c2:	60 ea       	ldi	r22, 0xA0	; 160
    10c4:	7f e0       	ldi	r23, 0x0F	; 15
    10c6:	f5 cf       	rjmp	.-22     	; 0x10b2 <Melody_Proc()+0xc0>
    10c8:	20 e0       	ldi	r18, 0x00	; 0
    10ca:	30 e0       	ldi	r19, 0x00	; 0
    10cc:	a9 01       	movw	r20, r18
    10ce:	60 e6       	ldi	r22, 0x60	; 96
    10d0:	79 e0       	ldi	r23, 0x09	; 9
    10d2:	ef cf       	rjmp	.-34     	; 0x10b2 <Melody_Proc()+0xc0>
    10d4:	92 30       	cpi	r25, 0x02	; 2
    10d6:	f1 f4       	brne	.+60     	; 0x1114 <Melody_Proc()+0x122>
    10d8:	84 30       	cpi	r24, 0x04	; 4
    10da:	81 f3       	breq	.-32     	; 0x10bc <Melody_Proc()+0xca>
    10dc:	28 f4       	brcc	.+10     	; 0x10e8 <Melody_Proc()+0xf6>
    10de:	81 30       	cpi	r24, 0x01	; 1
    10e0:	c9 f2       	breq	.-78     	; 0x1094 <Melody_Proc()+0xa2>
    10e2:	1f 91       	pop	r17
    10e4:	0f 91       	pop	r16
    10e6:	08 95       	ret
    10e8:	86 30       	cpi	r24, 0x06	; 6
    10ea:	19 f0       	breq	.+6      	; 0x10f2 <Melody_Proc()+0x100>
    10ec:	88 30       	cpi	r24, 0x08	; 8
    10ee:	29 f0       	breq	.+10     	; 0x10fa <Melody_Proc()+0x108>
    10f0:	f8 cf       	rjmp	.-16     	; 0x10e2 <Melody_Proc()+0xf0>
    10f2:	60 e0       	ldi	r22, 0x00	; 0
    10f4:	8d e2       	ldi	r24, 0x2D	; 45
    10f6:	0e 94 b8 1c 	call	0x3970	; 0x3970 <digitalWrite>
    10fa:	10 92 cc 02 	sts	0x02CC, r1	; 0x8002cc <Sound_Update>
    10fe:	10 92 74 02 	sts	0x0274, r1	; 0x800274 <__data_end>
    1102:	8e e2       	ldi	r24, 0x2E	; 46
    1104:	0e 94 9d 18 	call	0x313a	; 0x313a <noTone(unsigned char)>
    1108:	60 e0       	ldi	r22, 0x00	; 0
    110a:	8e e2       	ldi	r24, 0x2E	; 46
    110c:	1f 91       	pop	r17
    110e:	0f 91       	pop	r16
    1110:	0c 94 b8 1c 	jmp	0x3970	; 0x3970 <digitalWrite>
    1114:	93 30       	cpi	r25, 0x03	; 3
    1116:	41 f5       	brne	.+80     	; 0x1168 <Melody_Proc()+0x176>
    1118:	85 30       	cpi	r24, 0x05	; 5
    111a:	81 f1       	breq	.+96     	; 0x117c <Melody_Proc()+0x18a>
    111c:	58 f4       	brcc	.+22     	; 0x1134 <Melody_Proc()+0x142>
    111e:	81 30       	cpi	r24, 0x01	; 1
    1120:	09 f4       	brne	.+2      	; 0x1124 <Melody_Proc()+0x132>
    1122:	b8 cf       	rjmp	.-144    	; 0x1094 <Melody_Proc()+0xa2>
    1124:	83 30       	cpi	r24, 0x03	; 3
    1126:	e9 f6       	brne	.-70     	; 0x10e2 <Melody_Proc()+0xf0>
    1128:	20 e0       	ldi	r18, 0x00	; 0
    112a:	30 e0       	ldi	r19, 0x00	; 0
    112c:	a9 01       	movw	r20, r18
    112e:	60 e8       	ldi	r22, 0x80	; 128
    1130:	7c e0       	ldi	r23, 0x0C	; 12
    1132:	bf cf       	rjmp	.-130    	; 0x10b2 <Melody_Proc()+0xc0>
    1134:	87 30       	cpi	r24, 0x07	; 7
    1136:	59 f1       	breq	.+86     	; 0x118e <Melody_Proc()+0x19c>
    1138:	88 30       	cpi	r24, 0x08	; 8
    113a:	99 f6       	brne	.-90     	; 0x10e2 <Melody_Proc()+0xf0>
    113c:	10 92 cc 02 	sts	0x02CC, r1	; 0x8002cc <Sound_Update>
    1140:	10 92 74 02 	sts	0x0274, r1	; 0x800274 <__data_end>
    1144:	8e e2       	ldi	r24, 0x2E	; 46
    1146:	0e 94 9d 18 	call	0x313a	; 0x313a <noTone(unsigned char)>
    114a:	60 e0       	ldi	r22, 0x00	; 0
    114c:	8e e2       	ldi	r24, 0x2E	; 46
    114e:	0e 94 b8 1c 	call	0x3970	; 0x3970 <digitalWrite>
    1152:	80 91 9c 02 	lds	r24, 0x029C	; 0x80029c <is_touch_enable>
    1156:	81 11       	cpse	r24, r1
    1158:	c4 cf       	rjmp	.-120    	; 0x10e2 <Melody_Proc()+0xf0>
    115a:	81 e0       	ldi	r24, 0x01	; 1
    115c:	80 93 9c 02 	sts	0x029C, r24	; 0x80029c <is_touch_enable>
    1160:	1f 91       	pop	r17
    1162:	0f 91       	pop	r16
    1164:	0c 94 99 07 	jmp	0xf32	; 0xf32 <enableTouch()>
    1168:	94 30       	cpi	r25, 0x04	; 4
    116a:	d9 f4       	brne	.+54     	; 0x11a2 <Melody_Proc()+0x1b0>
    116c:	85 30       	cpi	r24, 0x05	; 5
    116e:	e1 f2       	breq	.-72     	; 0x1128 <Melody_Proc()+0x136>
    1170:	58 f4       	brcc	.+22     	; 0x1188 <Melody_Proc()+0x196>
    1172:	81 30       	cpi	r24, 0x01	; 1
    1174:	71 f0       	breq	.+28     	; 0x1192 <Melody_Proc()+0x1a0>
    1176:	83 30       	cpi	r24, 0x03	; 3
    1178:	09 f0       	breq	.+2      	; 0x117c <Melody_Proc()+0x18a>
    117a:	b3 cf       	rjmp	.-154    	; 0x10e2 <Melody_Proc()+0xf0>
    117c:	20 e0       	ldi	r18, 0x00	; 0
    117e:	30 e0       	ldi	r19, 0x00	; 0
    1180:	a9 01       	movw	r20, r18
    1182:	68 e8       	ldi	r22, 0x88	; 136
    1184:	73 e1       	ldi	r23, 0x13	; 19
    1186:	95 cf       	rjmp	.-214    	; 0x10b2 <Melody_Proc()+0xc0>
    1188:	87 30       	cpi	r24, 0x07	; 7
    118a:	09 f0       	breq	.+2      	; 0x118e <Melody_Proc()+0x19c>
    118c:	af cf       	rjmp	.-162    	; 0x10ec <Melody_Proc()+0xfa>
    118e:	60 e0       	ldi	r22, 0x00	; 0
    1190:	89 cf       	rjmp	.-238    	; 0x10a4 <Melody_Proc()+0xb2>
    1192:	8e e2       	ldi	r24, 0x2E	; 46
    1194:	0e 94 9d 18 	call	0x313a	; 0x313a <noTone(unsigned char)>
    1198:	60 e0       	ldi	r22, 0x00	; 0
    119a:	8e e2       	ldi	r24, 0x2E	; 46
    119c:	0e 94 b8 1c 	call	0x3970	; 0x3970 <digitalWrite>
    11a0:	f6 cf       	rjmp	.-20     	; 0x118e <Melody_Proc()+0x19c>
    11a2:	95 30       	cpi	r25, 0x05	; 5
    11a4:	09 f0       	breq	.+2      	; 0x11a8 <Melody_Proc()+0x1b6>
    11a6:	9d cf       	rjmp	.-198    	; 0x10e2 <Melody_Proc()+0xf0>
    11a8:	ee 30       	cpi	r30, 0x0E	; 14
    11aa:	08 f0       	brcs	.+2      	; 0x11ae <Melody_Proc()+0x1bc>
    11ac:	9a cf       	rjmp	.-204    	; 0x10e2 <Melody_Proc()+0xf0>
    11ae:	f0 e0       	ldi	r31, 0x00	; 0
    11b0:	88 27       	eor	r24, r24
    11b2:	e2 52       	subi	r30, 0x22	; 34
    11b4:	f7 4f       	sbci	r31, 0xF7	; 247
    11b6:	8f 4f       	sbci	r24, 0xFF	; 255
    11b8:	0c 94 51 1d 	jmp	0x3aa2	; 0x3aa2 <__tablejump2__>
    11bc:	4a 08       	sbc	r4, r10
    11be:	71 08       	sbc	r7, r1
    11c0:	64 08       	sbc	r6, r4
    11c2:	71 08       	sbc	r7, r1
    11c4:	94 08       	sbc	r9, r4
    11c6:	71 08       	sbc	r7, r1
    11c8:	5e 08       	sbc	r5, r14
    11ca:	71 08       	sbc	r7, r1
    11cc:	be 08       	sbc	r11, r14
    11ce:	71 08       	sbc	r7, r1
    11d0:	54 08       	sbc	r5, r4
    11d2:	71 08       	sbc	r7, r1
    11d4:	c7 08       	sbc	r12, r7
    11d6:	ec 08       	sbc	r14, r12
    11d8:	10 92 cc 02 	sts	0x02CC, r1	; 0x8002cc <Sound_Update>
    11dc:	10 92 74 02 	sts	0x0274, r1	; 0x800274 <__data_end>
    11e0:	8e e2       	ldi	r24, 0x2E	; 46
    11e2:	0e 94 9d 18 	call	0x313a	; 0x313a <noTone(unsigned char)>
    11e6:	60 e0       	ldi	r22, 0x00	; 0
    11e8:	8e e2       	ldi	r24, 0x2E	; 46
    11ea:	0e 94 b8 1c 	call	0x3970	; 0x3970 <digitalWrite>
    11ee:	81 e0       	ldi	r24, 0x01	; 1
    11f0:	80 93 cf 02 	sts	0x02CF, r24	; 0x8002cf <working_mode>
    11f4:	76 cf       	rjmp	.-276    	; 0x10e2 <Melody_Proc()+0xf0>

000011f6 <loop>:
loop():
    11f6:	0e 94 8e 03 	call	0x71c	; 0x71c <Key_Scan()>
    11fa:	0e 94 ff 03 	call	0x7fe	; 0x7fe <updateTemperatrue()>
    11fe:	0e 94 4c 06 	call	0xc98	; 0xc98 <updateLED()>
    1202:	0e 94 40 04 	call	0x880	; 0x880 <updatePSI()>
    1206:	0e 94 29 05 	call	0xa52	; 0xa52 <updateMotor()>
    120a:	0e 94 f9 07 	call	0xff2	; 0xff2 <Melody_Proc()>
    120e:	0c 94 66 07 	jmp	0xecc	; 0xecc <updateEEPROM()>

00001212 <_GLOBAL__sub_I_Key>:
_GLOBAL__sub_I_Key():
C:\Users\DH\Documents\GitHub\MCure\insulin_pen(REVB)\insulin_peb_revb/insulin_peb_revb.ino:30
unsigned char f_ble_state = 0;


signed int pulses = 0;

unsigned long pre_key_readtime = millis();
    1212:	0e 94 3f 1b 	call	0x367e	; 0x367e <millis>
    1216:	60 93 c5 02 	sts	0x02C5, r22	; 0x8002c5 <pre_key_readtime>
    121a:	70 93 c6 02 	sts	0x02C6, r23	; 0x8002c6 <pre_key_readtime+0x1>
    121e:	80 93 c7 02 	sts	0x02C7, r24	; 0x8002c7 <pre_key_readtime+0x2>
    1222:	90 93 c8 02 	sts	0x02C8, r25	; 0x8002c8 <pre_key_readtime+0x3>
C:\Users\DH\Documents\GitHub\MCure\insulin_pen(REVB)\insulin_peb_revb/insulin_peb_revb.ino:31
unsigned long pre_temp_readtime = millis();
    1226:	0e 94 3f 1b 	call	0x367e	; 0x367e <millis>
    122a:	60 93 c1 02 	sts	0x02C1, r22	; 0x8002c1 <pre_temp_readtime>
    122e:	70 93 c2 02 	sts	0x02C2, r23	; 0x8002c2 <pre_temp_readtime+0x1>
    1232:	80 93 c3 02 	sts	0x02C3, r24	; 0x8002c3 <pre_temp_readtime+0x2>
    1236:	90 93 c4 02 	sts	0x02C4, r25	; 0x8002c4 <pre_temp_readtime+0x3>
C:\Users\DH\Documents\GitHub\MCure\insulin_pen(REVB)\insulin_peb_revb/insulin_peb_revb.ino:32
unsigned long pre_psi_readtime = millis();
    123a:	0e 94 3f 1b 	call	0x367e	; 0x367e <millis>
    123e:	60 93 bd 02 	sts	0x02BD, r22	; 0x8002bd <pre_psi_readtime>
    1242:	70 93 be 02 	sts	0x02BE, r23	; 0x8002be <pre_psi_readtime+0x1>
    1246:	80 93 bf 02 	sts	0x02BF, r24	; 0x8002bf <pre_psi_readtime+0x2>
    124a:	90 93 c0 02 	sts	0x02C0, r25	; 0x8002c0 <pre_psi_readtime+0x3>
C:\Users\DH\Documents\GitHub\MCure\insulin_pen(REVB)\insulin_peb_revb/insulin_peb_revb.ino:33
unsigned long pre_valve_close_time = millis();
    124e:	0e 94 3f 1b 	call	0x367e	; 0x367e <millis>
    1252:	60 93 b9 02 	sts	0x02B9, r22	; 0x8002b9 <pre_valve_close_time>
    1256:	70 93 ba 02 	sts	0x02BA, r23	; 0x8002ba <pre_valve_close_time+0x1>
    125a:	80 93 bb 02 	sts	0x02BB, r24	; 0x8002bb <pre_valve_close_time+0x2>
    125e:	90 93 bc 02 	sts	0x02BC, r25	; 0x8002bc <pre_valve_close_time+0x3>
C:\Users\DH\Documents\GitHub\MCure\insulin_pen(REVB)\insulin_peb_revb/insulin_peb_revb.ino:34
unsigned long pre_eeprom_time = millis();
    1262:	0e 94 3f 1b 	call	0x367e	; 0x367e <millis>
    1266:	60 93 b5 02 	sts	0x02B5, r22	; 0x8002b5 <pre_eeprom_time>
    126a:	70 93 b6 02 	sts	0x02B6, r23	; 0x8002b6 <pre_eeprom_time+0x1>
    126e:	80 93 b7 02 	sts	0x02B7, r24	; 0x8002b7 <pre_eeprom_time+0x2>
    1272:	90 93 b8 02 	sts	0x02B8, r25	; 0x8002b8 <pre_eeprom_time+0x3>
C:\Users\DH\Documents\GitHub\MCure\insulin_pen(REVB)\insulin_peb_revb/insulin_peb_revb.ino:35
unsigned long pre_encodercheck_time = millis();
    1276:	0e 94 3f 1b 	call	0x367e	; 0x367e <millis>
    127a:	60 93 b1 02 	sts	0x02B1, r22	; 0x8002b1 <pre_encodercheck_time>
    127e:	70 93 b2 02 	sts	0x02B2, r23	; 0x8002b2 <pre_encodercheck_time+0x1>
    1282:	80 93 b3 02 	sts	0x02B3, r24	; 0x8002b3 <pre_encodercheck_time+0x2>
    1286:	90 93 b4 02 	sts	0x02B4, r25	; 0x8002b4 <pre_encodercheck_time+0x3>
C:\Users\DH\Documents\GitHub\MCure\insulin_pen(REVB)\insulin_peb_revb/insulin_peb_revb.ino:36
unsigned long pre_motor_stop_time = millis();
    128a:	0e 94 3f 1b 	call	0x367e	; 0x367e <millis>
    128e:	60 93 ad 02 	sts	0x02AD, r22	; 0x8002ad <pre_motor_stop_time>
    1292:	70 93 ae 02 	sts	0x02AE, r23	; 0x8002ae <pre_motor_stop_time+0x1>
    1296:	80 93 af 02 	sts	0x02AF, r24	; 0x8002af <pre_motor_stop_time+0x2>
    129a:	90 93 b0 02 	sts	0x02B0, r25	; 0x8002b0 <pre_motor_stop_time+0x3>
C:\Users\DH\Documents\GitHub\MCure\insulin_pen(REVB)\insulin_peb_revb/insulin_peb_revb.ino:37
unsigned long pre_led_flash_time = millis();
    129e:	0e 94 3f 1b 	call	0x367e	; 0x367e <millis>
    12a2:	60 93 a9 02 	sts	0x02A9, r22	; 0x8002a9 <pre_led_flash_time>
    12a6:	70 93 aa 02 	sts	0x02AA, r23	; 0x8002aa <pre_led_flash_time+0x1>
    12aa:	80 93 ab 02 	sts	0x02AB, r24	; 0x8002ab <pre_led_flash_time+0x2>
    12ae:	90 93 ac 02 	sts	0x02AC, r25	; 0x8002ac <pre_led_flash_time+0x3>
C:\Users\DH\Documents\GitHub\MCure\insulin_pen(REVB)\insulin_peb_revb/insulin_peb_revb.ino:38
unsigned long pre_buzzer_tic = millis();
    12b2:	0e 94 3f 1b 	call	0x367e	; 0x367e <millis>
    12b6:	60 93 a5 02 	sts	0x02A5, r22	; 0x8002a5 <pre_buzzer_tic>
    12ba:	70 93 a6 02 	sts	0x02A6, r23	; 0x8002a6 <pre_buzzer_tic+0x1>
    12be:	80 93 a7 02 	sts	0x02A7, r24	; 0x8002a7 <pre_buzzer_tic+0x2>
    12c2:	90 93 a8 02 	sts	0x02A8, r25	; 0x8002a8 <pre_buzzer_tic+0x3>
C:\Users\DH\Documents\GitHub\MCure\insulin_pen(REVB)\insulin_peb_revb/insulin_peb_revb.ino:39
unsigned long pre_user_motor_worktime = millis();
    12c6:	0e 94 3f 1b 	call	0x367e	; 0x367e <millis>
    12ca:	60 93 a1 02 	sts	0x02A1, r22	; 0x8002a1 <pre_user_motor_worktime>
    12ce:	70 93 a2 02 	sts	0x02A2, r23	; 0x8002a2 <pre_user_motor_worktime+0x1>
    12d2:	80 93 a3 02 	sts	0x02A3, r24	; 0x8002a3 <pre_user_motor_worktime+0x2>
    12d6:	90 93 a4 02 	sts	0x02A4, r25	; 0x8002a4 <pre_user_motor_worktime+0x3>
C:\Users\DH\Documents\GitHub\MCure\insulin_pen(REVB)\insulin_peb_revb/insulin_peb_revb.ino:41

unsigned long pre_touch_stabil_time = millis();
    12da:	0e 94 3f 1b 	call	0x367e	; 0x367e <millis>
    12de:	60 93 9d 02 	sts	0x029D, r22	; 0x80029d <pre_touch_stabil_time>
    12e2:	70 93 9e 02 	sts	0x029E, r23	; 0x80029e <pre_touch_stabil_time+0x1>
    12e6:	80 93 9f 02 	sts	0x029F, r24	; 0x80029f <pre_touch_stabil_time+0x2>
    12ea:	90 93 a0 02 	sts	0x02A0, r25	; 0x8002a0 <pre_touch_stabil_time+0x3>
C:\Users\DH\Documents\GitHub\MCure\insulin_pen(REVB)\insulin_peb_revb/insulin_peb_revb.ino:44
unsigned char is_touch_enable;

unsigned long pre_led_update_time = millis();
    12ee:	0e 94 3f 1b 	call	0x367e	; 0x367e <millis>
    12f2:	60 93 98 02 	sts	0x0298, r22	; 0x800298 <pre_led_update_time>
    12f6:	70 93 99 02 	sts	0x0299, r23	; 0x800299 <pre_led_update_time+0x1>
    12fa:	80 93 9a 02 	sts	0x029A, r24	; 0x80029a <pre_led_update_time+0x2>
    12fe:	90 93 9b 02 	sts	0x029B, r25	; 0x80029b <pre_led_update_time+0x3>
C:\Users\DH\Documents\GitHub\MCure\insulin_pen(REVB)\insulin_peb_revb/insulin_peb_revb.ino:51
unsigned char mokup_motor_run_state;
unsigned char mokup_motor_stop_state;
// for debug
unsigned char ch;

SoftwareSerial ble(18, 19); // RX, TX
    1302:	20 e0       	ldi	r18, 0x00	; 0
    1304:	43 e1       	ldi	r20, 0x13	; 19
    1306:	62 e1       	ldi	r22, 0x12	; 18
    1308:	88 e7       	ldi	r24, 0x78	; 120
    130a:	92 e0       	ldi	r25, 0x02	; 2
    130c:	0c 94 6a 11 	jmp	0x22d4	; 0x22d4 <SoftwareSerial::SoftwareSerial(signed char, signed char, bool)>

00001310 <_GLOBAL__sub_D_Key>:
_GLOBAL__sub_D_Key():
    1310:	88 e7       	ldi	r24, 0x78	; 120
    1312:	92 e0       	ldi	r25, 0x02	; 2
    1314:	0c 94 0f 11 	jmp	0x221e	; 0x221e <SoftwareSerial::~SoftwareSerial()>

00001318 <readEEPROM()>:
_Z10readEEPROMv():
C:\Users\DH\Documents\GitHub\MCure\insulin_pen(REVB)\insulin_peb_revb/insulin_peb_revb.ino:794

  for (int i = 0; i < 2; i++)
  {
    data[i] = EEPROM.read(addr);
    addr += sizeof(signed int);
    delay(1);
    1318:	61 e0       	ldi	r22, 0x01	; 1
    131a:	70 e0       	ldi	r23, 0x00	; 0
    131c:	80 e0       	ldi	r24, 0x00	; 0
    131e:	90 e0       	ldi	r25, 0x00	; 0
    1320:	0e 94 70 1b 	call	0x36e0	; 0x36e0 <delay>
    1324:	61 e0       	ldi	r22, 0x01	; 1
    1326:	70 e0       	ldi	r23, 0x00	; 0
    1328:	80 e0       	ldi	r24, 0x00	; 0
    132a:	90 e0       	ldi	r25, 0x00	; 0
    132c:	0e 94 70 1b 	call	0x36e0	; 0x36e0 <delay>
C:\Users\DH\Documents\GitHub\MCure\insulin_pen(REVB)\insulin_peb_revb/insulin_peb_revb.ino:804
    //uint8_t tx_set_adv[19] = {0x41, 0x54, 0x2b, 0x41, 0x44, 0x56, 0x44, 0x41, 0x54, 0x41, 0x3d, 0x69, 0x6e, 0x73, 0x75, 0x41, 0x49, 0x44, 0x0D};
    //uint8_t tx_set_man[17] = {0x41, 0x54, 0x2b, 0x4d, 0x41, 0x4e, 0x55, 0x46, 0x3d, 0x69, 0x6e, 0x73, 0x75, 0x41, 0x49, 0x44, 0x0D};
    //uint8_t tx_at[3] = {0x41, 0x54, 0x0D};
    //uint8_t tx_atnF[5] = {0x41, 0x54, 0x26, 0x46, 0x0D};

    is_update_infor = true;
    1330:	81 e0       	ldi	r24, 0x01	; 1
    1332:	80 93 d4 02 	sts	0x02D4, r24	; 0x8002d4 <is_update_infor>
_ZN5Print5writeEPKc():
    1336:	66 e1       	ldi	r22, 0x16	; 22
    1338:	72 e0       	ldi	r23, 0x02	; 2
    133a:	88 e7       	ldi	r24, 0x78	; 120
    133c:	92 e0       	ldi	r25, 0x02	; 2
    133e:	0e 94 08 02 	call	0x410	; 0x410 <Print::write(char const*) [clone .part.0]>
_Z10readEEPROMv():
C:\Users\DH\Documents\GitHub\MCure\insulin_pen(REVB)\insulin_peb_revb/insulin_peb_revb.ino:808

    // TODO : update Ble Data
    ble.write("AT");
    ble.write(0x0D);
    1342:	6d e0       	ldi	r22, 0x0D	; 13
    1344:	88 e7       	ldi	r24, 0x78	; 120
    1346:	92 e0       	ldi	r25, 0x02	; 2
    1348:	0e 94 c9 0f 	call	0x1f92	; 0x1f92 <SoftwareSerial::write(unsigned char)>
C:\Users\DH\Documents\GitHub\MCure\insulin_pen(REVB)\insulin_peb_revb/insulin_peb_revb.ino:809
    delay(100);
    134c:	64 e6       	ldi	r22, 0x64	; 100
    134e:	70 e0       	ldi	r23, 0x00	; 0
    1350:	80 e0       	ldi	r24, 0x00	; 0
    1352:	90 e0       	ldi	r25, 0x00	; 0
    1354:	0e 94 70 1b 	call	0x36e0	; 0x36e0 <delay>
_ZN5Print5writeEPKc():
    1358:	69 e1       	ldi	r22, 0x19	; 25
    135a:	72 e0       	ldi	r23, 0x02	; 2
    135c:	88 e7       	ldi	r24, 0x78	; 120
    135e:	92 e0       	ldi	r25, 0x02	; 2
    1360:	0e 94 08 02 	call	0x410	; 0x410 <Print::write(char const*) [clone .part.0]>
_Z10readEEPROMv():
C:\Users\DH\Documents\GitHub\MCure\insulin_pen(REVB)\insulin_peb_revb/insulin_peb_revb.ino:812

    ble.write("AT+MANUF=insuAID");
    ble.write(0x0D);
    1364:	6d e0       	ldi	r22, 0x0D	; 13
    1366:	88 e7       	ldi	r24, 0x78	; 120
    1368:	92 e0       	ldi	r25, 0x02	; 2
    136a:	0e 94 c9 0f 	call	0x1f92	; 0x1f92 <SoftwareSerial::write(unsigned char)>
C:\Users\DH\Documents\GitHub\MCure\insulin_pen(REVB)\insulin_peb_revb/insulin_peb_revb.ino:813
    delay(100);
    136e:	64 e6       	ldi	r22, 0x64	; 100
    1370:	70 e0       	ldi	r23, 0x00	; 0
    1372:	80 e0       	ldi	r24, 0x00	; 0
    1374:	90 e0       	ldi	r25, 0x00	; 0
    1376:	0e 94 70 1b 	call	0x36e0	; 0x36e0 <delay>
_ZN5Print5writeEPKc():
    137a:	6a e2       	ldi	r22, 0x2A	; 42
    137c:	72 e0       	ldi	r23, 0x02	; 2
    137e:	88 e7       	ldi	r24, 0x78	; 120
    1380:	92 e0       	ldi	r25, 0x02	; 2
    1382:	0e 94 08 02 	call	0x410	; 0x410 <Print::write(char const*) [clone .part.0]>
_Z10readEEPROMv():
C:\Users\DH\Documents\GitHub\MCure\insulin_pen(REVB)\insulin_peb_revb/insulin_peb_revb.ino:816

    ble.write("AT+ADVDATA=insuAID");
    ble.write(0x0D);
    1386:	6d e0       	ldi	r22, 0x0D	; 13
    1388:	88 e7       	ldi	r24, 0x78	; 120
    138a:	92 e0       	ldi	r25, 0x02	; 2
    138c:	0e 94 c9 0f 	call	0x1f92	; 0x1f92 <SoftwareSerial::write(unsigned char)>
C:\Users\DH\Documents\GitHub\MCure\insulin_pen(REVB)\insulin_peb_revb/insulin_peb_revb.ino:817
    delay(100);
    1390:	64 e6       	ldi	r22, 0x64	; 100
    1392:	70 e0       	ldi	r23, 0x00	; 0
    1394:	80 e0       	ldi	r24, 0x00	; 0
    1396:	90 e0       	ldi	r25, 0x00	; 0
    1398:	0c 94 70 1b 	jmp	0x36e0	; 0x36e0 <delay>

0000139c <setup>:
setup():
C:\Users\DH\Documents\GitHub\MCure\insulin_pen(REVB)\insulin_peb_revb/insulin_peb_revb.ino:55

SoftwareSerial ble(18, 19); // RX, TX

void setup() {
  // put your setup code here, to run once:
  Serial.end();
    139c:	80 e0       	ldi	r24, 0x00	; 0
    139e:	94 e0       	ldi	r25, 0x04	; 4
    13a0:	0e 94 9f 13 	call	0x273e	; 0x273e <HardwareSerial::end()>
C:\Users\DH\Documents\GitHub\MCure\insulin_pen(REVB)\insulin_peb_revb/insulin_peb_revb.ino:56
  Serial1.end();
    13a4:	8d e9       	ldi	r24, 0x9D	; 157
    13a6:	94 e0       	ldi	r25, 0x04	; 4
    13a8:	0e 94 9f 13 	call	0x273e	; 0x273e <HardwareSerial::end()>
C:\Users\DH\Documents\GitHub\MCure\insulin_pen(REVB)\insulin_peb_revb/insulin_peb_revb.ino:57
  ble.begin(9600);
    13ac:	40 e8       	ldi	r20, 0x80	; 128
    13ae:	55 e2       	ldi	r21, 0x25	; 37
    13b0:	60 e0       	ldi	r22, 0x00	; 0
    13b2:	70 e0       	ldi	r23, 0x00	; 0
    13b4:	88 e7       	ldi	r24, 0x78	; 120
    13b6:	92 e0       	ldi	r25, 0x02	; 2
    13b8:	0e 94 95 11 	call	0x232a	; 0x232a <SoftwareSerial::begin(long)>
C:\Users\DH\Documents\GitHub\MCure\insulin_pen(REVB)\insulin_peb_revb/insulin_peb_revb.ino:59

  pinMode(BLE_STATE, INPUT);
    13bc:	60 e0       	ldi	r22, 0x00	; 0
    13be:	8c e2       	ldi	r24, 0x2C	; 44
    13c0:	0e 94 7c 1c 	call	0x38f8	; 0x38f8 <pinMode>
C:\Users\DH\Documents\GitHub\MCure\insulin_pen(REVB)\insulin_peb_revb/insulin_peb_revb.ino:63

  // after connected keep high -> atmode
  // after connected keep low  -> bypass mode // default
  pinMode(BLE_MODE, OUTPUT);
    13c4:	61 e0       	ldi	r22, 0x01	; 1
    13c6:	8b e2       	ldi	r24, 0x2B	; 43
    13c8:	0e 94 7c 1c 	call	0x38f8	; 0x38f8 <pinMode>
C:\Users\DH\Documents\GitHub\MCure\insulin_pen(REVB)\insulin_peb_revb/insulin_peb_revb.ino:64
  digitalWrite(BLE_MODE, LOW);
    13cc:	60 e0       	ldi	r22, 0x00	; 0
    13ce:	8b e2       	ldi	r24, 0x2B	; 43
    13d0:	0e 94 b8 1c 	call	0x3970	; 0x3970 <digitalWrite>
C:\Users\DH\Documents\GitHub\MCure\insulin_pen(REVB)\insulin_peb_revb/insulin_peb_revb.ino:68

  // rising edge -> uart off
  // falling edge-> uart on
  pinMode(BLE_UART, OUTPUT);
    13d4:	61 e0       	ldi	r22, 0x01	; 1
    13d6:	8a e2       	ldi	r24, 0x2A	; 42
    13d8:	0e 94 7c 1c 	call	0x38f8	; 0x38f8 <pinMode>
C:\Users\DH\Documents\GitHub\MCure\insulin_pen(REVB)\insulin_peb_revb/insulin_peb_revb.ino:69
  digitalWrite(BLE_UART, LOW);
    13dc:	60 e0       	ldi	r22, 0x00	; 0
    13de:	8a e2       	ldi	r24, 0x2A	; 42
    13e0:	0e 94 b8 1c 	call	0x3970	; 0x3970 <digitalWrite>
C:\Users\DH\Documents\GitHub\MCure\insulin_pen(REVB)\insulin_peb_revb/insulin_peb_revb.ino:71

  I2c.begin();
    13e4:	85 e9       	ldi	r24, 0x95	; 149
    13e6:	93 e0       	ldi	r25, 0x03	; 3
    13e8:	0e 94 ee 0c 	call	0x19dc	; 0x19dc <I2C::begin()>
C:\Users\DH\Documents\GitHub\MCure\insulin_pen(REVB)\insulin_peb_revb/insulin_peb_revb.ino:72
  I2c.timeOut(2000);
    13ec:	60 ed       	ldi	r22, 0xD0	; 208
    13ee:	77 e0       	ldi	r23, 0x07	; 7
    13f0:	85 e9       	ldi	r24, 0x95	; 149
    13f2:	93 e0       	ldi	r25, 0x03	; 3
    13f4:	0e 94 ff 0c 	call	0x19fe	; 0x19fe <I2C::timeOut(unsigned int)>
C:\Users\DH\Documents\GitHub\MCure\insulin_pen(REVB)\insulin_peb_revb/insulin_peb_revb.ino:73
  I2c.pullup(true);
    13f8:	61 e0       	ldi	r22, 0x01	; 1
    13fa:	85 e9       	ldi	r24, 0x95	; 149
    13fc:	93 e0       	ldi	r25, 0x03	; 3
    13fe:	0e 94 04 0d 	call	0x1a08	; 0x1a08 <I2C::pullup(unsigned char)>
C:\Users\DH\Documents\GitHub\MCure\insulin_pen(REVB)\insulin_peb_revb/insulin_peb_revb.ino:76

  // motor
  pinMode(MOTOR_PORT_F, OUTPUT);
    1402:	61 e0       	ldi	r22, 0x01	; 1
    1404:	88 e0       	ldi	r24, 0x08	; 8
    1406:	0e 94 7c 1c 	call	0x38f8	; 0x38f8 <pinMode>
C:\Users\DH\Documents\GitHub\MCure\insulin_pen(REVB)\insulin_peb_revb/insulin_peb_revb.ino:77
  digitalWrite(MOTOR_PORT_F, LOW);
    140a:	60 e0       	ldi	r22, 0x00	; 0
    140c:	88 e0       	ldi	r24, 0x08	; 8
    140e:	0e 94 b8 1c 	call	0x3970	; 0x3970 <digitalWrite>
C:\Users\DH\Documents\GitHub\MCure\insulin_pen(REVB)\insulin_peb_revb/insulin_peb_revb.ino:79

  pinMode(MOTOR_PORT_R, OUTPUT);
    1412:	61 e0       	ldi	r22, 0x01	; 1
    1414:	87 e0       	ldi	r24, 0x07	; 7
    1416:	0e 94 7c 1c 	call	0x38f8	; 0x38f8 <pinMode>
C:\Users\DH\Documents\GitHub\MCure\insulin_pen(REVB)\insulin_peb_revb/insulin_peb_revb.ino:80
  digitalWrite(MOTOR_PORT_R, LOW);
    141a:	60 e0       	ldi	r22, 0x00	; 0
    141c:	87 e0       	ldi	r24, 0x07	; 7
    141e:	0e 94 b8 1c 	call	0x3970	; 0x3970 <digitalWrite>
C:\Users\DH\Documents\GitHub\MCure\insulin_pen(REVB)\insulin_peb_revb/insulin_peb_revb.ino:82

  pinMode(MOTOR_SLEEP, OUTPUT);
    1422:	61 e0       	ldi	r22, 0x01	; 1
    1424:	89 e0       	ldi	r24, 0x09	; 9
    1426:	0e 94 7c 1c 	call	0x38f8	; 0x38f8 <pinMode>
C:\Users\DH\Documents\GitHub\MCure\insulin_pen(REVB)\insulin_peb_revb/insulin_peb_revb.ino:83
  digitalWrite(MOTOR_SLEEP, LOW);
    142a:	60 e0       	ldi	r22, 0x00	; 0
    142c:	89 e0       	ldi	r24, 0x09	; 9
    142e:	0e 94 b8 1c 	call	0x3970	; 0x3970 <digitalWrite>
C:\Users\DH\Documents\GitHub\MCure\insulin_pen(REVB)\insulin_peb_revb/insulin_peb_revb.ino:85

  pinMode(MOTOR_FALT, INPUT_PULLUP);
    1432:	62 e0       	ldi	r22, 0x02	; 2
    1434:	86 e0       	ldi	r24, 0x06	; 6
    1436:	0e 94 7c 1c 	call	0x38f8	; 0x38f8 <pinMode>
C:\Users\DH\Documents\GitHub\MCure\insulin_pen(REVB)\insulin_peb_revb/insulin_peb_revb.ino:86
  pinMode(ENCODER_A, INPUT_PULLUP);
    143a:	62 e0       	ldi	r22, 0x02	; 2
    143c:	83 e0       	ldi	r24, 0x03	; 3
    143e:	0e 94 7c 1c 	call	0x38f8	; 0x38f8 <pinMode>
C:\Users\DH\Documents\GitHub\MCure\insulin_pen(REVB)\insulin_peb_revb/insulin_peb_revb.ino:87
  pinMode(ENCODER_B, INPUT_PULLUP);
    1442:	62 e0       	ldi	r22, 0x02	; 2
    1444:	82 e0       	ldi	r24, 0x02	; 2
    1446:	0e 94 7c 1c 	call	0x38f8	; 0x38f8 <pinMode>
C:\Users\DH\Documents\GitHub\MCure\insulin_pen(REVB)\insulin_peb_revb/insulin_peb_revb.ino:88
  attachInterrupt(0, A_CHANGE, CHANGE);
    144a:	41 e0       	ldi	r20, 0x01	; 1
    144c:	50 e0       	ldi	r21, 0x00	; 0
    144e:	6d ed       	ldi	r22, 0xDD	; 221
    1450:	71 e0       	ldi	r23, 0x01	; 1
    1452:	80 e0       	ldi	r24, 0x00	; 0
    1454:	0e 94 13 19 	call	0x3226	; 0x3226 <attachInterrupt>
C:\Users\DH\Documents\GitHub\MCure\insulin_pen(REVB)\insulin_peb_revb/insulin_peb_revb.ino:91

  // temp control
  pinMode(PELTIER_PORT, OUTPUT);
    1458:	61 e0       	ldi	r22, 0x01	; 1
    145a:	88 e1       	ldi	r24, 0x18	; 24
    145c:	0e 94 7c 1c 	call	0x38f8	; 0x38f8 <pinMode>
C:\Users\DH\Documents\GitHub\MCure\insulin_pen(REVB)\insulin_peb_revb/insulin_peb_revb.ino:92
  digitalWrite(PELTIER_PORT, LOW);
    1460:	60 e0       	ldi	r22, 0x00	; 0
    1462:	88 e1       	ldi	r24, 0x18	; 24
    1464:	0e 94 b8 1c 	call	0x3970	; 0x3970 <digitalWrite>
C:\Users\DH\Documents\GitHub\MCure\insulin_pen(REVB)\insulin_peb_revb/insulin_peb_revb.ino:94

  pinMode(PELTIER_FAN, OUTPUT);
    1468:	61 e0       	ldi	r22, 0x01	; 1
    146a:	8a e1       	ldi	r24, 0x1A	; 26
    146c:	0e 94 7c 1c 	call	0x38f8	; 0x38f8 <pinMode>
C:\Users\DH\Documents\GitHub\MCure\insulin_pen(REVB)\insulin_peb_revb/insulin_peb_revb.ino:95
  digitalWrite(PELTIER_FAN, LOW);
    1470:	60 e0       	ldi	r22, 0x00	; 0
    1472:	8a e1       	ldi	r24, 0x1A	; 26
    1474:	0e 94 b8 1c 	call	0x3970	; 0x3970 <digitalWrite>
C:\Users\DH\Documents\GitHub\MCure\insulin_pen(REVB)\insulin_peb_revb/insulin_peb_revb.ino:98

  // psi
  pinMode(SOLENOID_PORT, OUTPUT);
    1478:	61 e0       	ldi	r22, 0x01	; 1
    147a:	87 e1       	ldi	r24, 0x17	; 23
    147c:	0e 94 7c 1c 	call	0x38f8	; 0x38f8 <pinMode>
C:\Users\DH\Documents\GitHub\MCure\insulin_pen(REVB)\insulin_peb_revb/insulin_peb_revb.ino:99
  digitalWrite(SOLENOID_PORT, LOW);
    1480:	60 e0       	ldi	r22, 0x00	; 0
    1482:	87 e1       	ldi	r24, 0x17	; 23
    1484:	0e 94 b8 1c 	call	0x3970	; 0x3970 <digitalWrite>
C:\Users\DH\Documents\GitHub\MCure\insulin_pen(REVB)\insulin_peb_revb/insulin_peb_revb.ino:101

  pinMode(AIRPUMP_PORT, OUTPUT);
    1488:	61 e0       	ldi	r22, 0x01	; 1
    148a:	89 e1       	ldi	r24, 0x19	; 25
    148c:	0e 94 7c 1c 	call	0x38f8	; 0x38f8 <pinMode>
C:\Users\DH\Documents\GitHub\MCure\insulin_pen(REVB)\insulin_peb_revb/insulin_peb_revb.ino:102
  digitalWrite(AIRPUMP_PORT, LOW);
    1490:	60 e0       	ldi	r22, 0x00	; 0
    1492:	89 e1       	ldi	r24, 0x19	; 25
    1494:	0e 94 b8 1c 	call	0x3970	; 0x3970 <digitalWrite>
C:\Users\DH\Documents\GitHub\MCure\insulin_pen(REVB)\insulin_peb_revb/insulin_peb_revb.ino:105


  pinMode(BUZZER_PWM, OUTPUT);
    1498:	61 e0       	ldi	r22, 0x01	; 1
    149a:	8e e2       	ldi	r24, 0x2E	; 46
    149c:	0e 94 7c 1c 	call	0x38f8	; 0x38f8 <pinMode>
C:\Users\DH\Documents\GitHub\MCure\insulin_pen(REVB)\insulin_peb_revb/insulin_peb_revb.ino:106
  noTone(BUZZER_PWM);
    14a0:	8e e2       	ldi	r24, 0x2E	; 46
    14a2:	0e 94 9d 18 	call	0x313a	; 0x313a <noTone(unsigned char)>
C:\Users\DH\Documents\GitHub\MCure\insulin_pen(REVB)\insulin_peb_revb/insulin_peb_revb.ino:107
  digitalWrite(BUZZER_PWM, LOW);
    14a6:	60 e0       	ldi	r22, 0x00	; 0
    14a8:	8e e2       	ldi	r24, 0x2E	; 46
    14aa:	0e 94 b8 1c 	call	0x3970	; 0x3970 <digitalWrite>
C:\Users\DH\Documents\GitHub\MCure\insulin_pen(REVB)\insulin_peb_revb/insulin_peb_revb.ino:109

  pinMode(BUZZER_POWER, OUTPUT);
    14ae:	61 e0       	ldi	r22, 0x01	; 1
    14b0:	8d e2       	ldi	r24, 0x2D	; 45
    14b2:	0e 94 7c 1c 	call	0x38f8	; 0x38f8 <pinMode>
C:\Users\DH\Documents\GitHub\MCure\insulin_pen(REVB)\insulin_peb_revb/insulin_peb_revb.ino:110
  digitalWrite(BUZZER_POWER, LOW);
    14b6:	60 e0       	ldi	r22, 0x00	; 0
    14b8:	8d e2       	ldi	r24, 0x2D	; 45
    14ba:	0e 94 b8 1c 	call	0x3970	; 0x3970 <digitalWrite>
C:\Users\DH\Documents\GitHub\MCure\insulin_pen(REVB)\insulin_peb_revb/insulin_peb_revb.ino:112

  pinMode(LED_PWR, OUTPUT);
    14be:	61 e0       	ldi	r22, 0x01	; 1
    14c0:	84 e2       	ldi	r24, 0x24	; 36
    14c2:	0e 94 7c 1c 	call	0x38f8	; 0x38f8 <pinMode>
C:\Users\DH\Documents\GitHub\MCure\insulin_pen(REVB)\insulin_peb_revb/insulin_peb_revb.ino:113
  pinMode(LED_MTF, OUTPUT);
    14c6:	61 e0       	ldi	r22, 0x01	; 1
    14c8:	85 e2       	ldi	r24, 0x25	; 37
    14ca:	0e 94 7c 1c 	call	0x38f8	; 0x38f8 <pinMode>
C:\Users\DH\Documents\GitHub\MCure\insulin_pen(REVB)\insulin_peb_revb/insulin_peb_revb.ino:114
  pinMode(LED_MTR, OUTPUT);
    14ce:	61 e0       	ldi	r22, 0x01	; 1
    14d0:	88 e2       	ldi	r24, 0x28	; 40
    14d2:	0e 94 7c 1c 	call	0x38f8	; 0x38f8 <pinMode>
C:\Users\DH\Documents\GitHub\MCure\insulin_pen(REVB)\insulin_peb_revb/insulin_peb_revb.ino:115
  pinMode(LED_BLE, OUTPUT);
    14d6:	61 e0       	ldi	r22, 0x01	; 1
    14d8:	89 e2       	ldi	r24, 0x29	; 41
    14da:	0e 94 7c 1c 	call	0x38f8	; 0x38f8 <pinMode>
C:\Users\DH\Documents\GitHub\MCure\insulin_pen(REVB)\insulin_peb_revb/insulin_peb_revb.ino:116
  pinMode(LED_BAT_ICO, OUTPUT);
    14de:	61 e0       	ldi	r22, 0x01	; 1
    14e0:	82 e2       	ldi	r24, 0x22	; 34
    14e2:	0e 94 7c 1c 	call	0x38f8	; 0x38f8 <pinMode>
C:\Users\DH\Documents\GitHub\MCure\insulin_pen(REVB)\insulin_peb_revb/insulin_peb_revb.ino:117
  pinMode(LED_BAT_STATE1, OUTPUT);
    14e6:	61 e0       	ldi	r22, 0x01	; 1
    14e8:	83 e2       	ldi	r24, 0x23	; 35
    14ea:	0e 94 7c 1c 	call	0x38f8	; 0x38f8 <pinMode>
C:\Users\DH\Documents\GitHub\MCure\insulin_pen(REVB)\insulin_peb_revb/insulin_peb_revb.ino:118
  pinMode(LED_BAT_STATE2, OUTPUT);
    14ee:	61 e0       	ldi	r22, 0x01	; 1
    14f0:	81 e2       	ldi	r24, 0x21	; 33
    14f2:	0e 94 7c 1c 	call	0x38f8	; 0x38f8 <pinMode>
C:\Users\DH\Documents\GitHub\MCure\insulin_pen(REVB)\insulin_peb_revb/insulin_peb_revb.ino:119
  pinMode(LED_BAT_STATE3, OUTPUT);
    14f6:	61 e0       	ldi	r22, 0x01	; 1
    14f8:	80 e2       	ldi	r24, 0x20	; 32
    14fa:	0e 94 7c 1c 	call	0x38f8	; 0x38f8 <pinMode>
C:\Users\DH\Documents\GitHub\MCure\insulin_pen(REVB)\insulin_peb_revb/insulin_peb_revb.ino:120
  pinMode(LED_MOTOR_ICO, OUTPUT);
    14fe:	61 e0       	ldi	r22, 0x01	; 1
    1500:	8e e0       	ldi	r24, 0x0E	; 14
    1502:	0e 94 7c 1c 	call	0x38f8	; 0x38f8 <pinMode>
C:\Users\DH\Documents\GitHub\MCure\insulin_pen(REVB)\insulin_peb_revb/insulin_peb_revb.ino:121
  pinMode(LED_MOTOR_STATE1, OUTPUT);
    1506:	61 e0       	ldi	r22, 0x01	; 1
    1508:	8f e1       	ldi	r24, 0x1F	; 31
    150a:	0e 94 7c 1c 	call	0x38f8	; 0x38f8 <pinMode>
C:\Users\DH\Documents\GitHub\MCure\insulin_pen(REVB)\insulin_peb_revb/insulin_peb_revb.ino:122
  pinMode(LED_MOTOR_STATE2, OUTPUT);
    150e:	61 e0       	ldi	r22, 0x01	; 1
    1510:	8e e1       	ldi	r24, 0x1E	; 30
    1512:	0e 94 7c 1c 	call	0x38f8	; 0x38f8 <pinMode>
C:\Users\DH\Documents\GitHub\MCure\insulin_pen(REVB)\insulin_peb_revb/insulin_peb_revb.ino:123
  pinMode(LED_MOTOR_STATE3, OUTPUT);
    1516:	61 e0       	ldi	r22, 0x01	; 1
    1518:	8f e0       	ldi	r24, 0x0F	; 15
    151a:	0e 94 7c 1c 	call	0x38f8	; 0x38f8 <pinMode>
C:\Users\DH\Documents\GitHub\MCure\insulin_pen(REVB)\insulin_peb_revb/insulin_peb_revb.ino:124
  pinMode(LED_MOTOR_STATE4, OUTPUT);
    151e:	61 e0       	ldi	r22, 0x01	; 1
    1520:	87 e2       	ldi	r24, 0x27	; 39
    1522:	0e 94 7c 1c 	call	0x38f8	; 0x38f8 <pinMode>
C:\Users\DH\Documents\GitHub\MCure\insulin_pen(REVB)\insulin_peb_revb/insulin_peb_revb.ino:125
  pinMode(LED_TEMP_DANGER, OUTPUT);
    1526:	61 e0       	ldi	r22, 0x01	; 1
    1528:	8d e1       	ldi	r24, 0x1D	; 29
    152a:	0e 94 7c 1c 	call	0x38f8	; 0x38f8 <pinMode>
C:\Users\DH\Documents\GitHub\MCure\insulin_pen(REVB)\insulin_peb_revb/insulin_peb_revb.ino:126
  pinMode(LED_TEMP_NORMAL, OUTPUT);
    152e:	61 e0       	ldi	r22, 0x01	; 1
    1530:	8c e1       	ldi	r24, 0x1C	; 28
    1532:	0e 94 7c 1c 	call	0x38f8	; 0x38f8 <pinMode>
C:\Users\DH\Documents\GitHub\MCure\insulin_pen(REVB)\insulin_peb_revb/insulin_peb_revb.ino:128

  digitalWrite(LED_PWR, HIGH);
    1536:	61 e0       	ldi	r22, 0x01	; 1
    1538:	84 e2       	ldi	r24, 0x24	; 36
    153a:	0e 94 b8 1c 	call	0x3970	; 0x3970 <digitalWrite>
C:\Users\DH\Documents\GitHub\MCure\insulin_pen(REVB)\insulin_peb_revb/insulin_peb_revb.ino:129
  digitalWrite(LED_MTF, HIGH);
    153e:	61 e0       	ldi	r22, 0x01	; 1
    1540:	85 e2       	ldi	r24, 0x25	; 37
    1542:	0e 94 b8 1c 	call	0x3970	; 0x3970 <digitalWrite>
C:\Users\DH\Documents\GitHub\MCure\insulin_pen(REVB)\insulin_peb_revb/insulin_peb_revb.ino:130
  digitalWrite(LED_MTR, HIGH);
    1546:	61 e0       	ldi	r22, 0x01	; 1
    1548:	88 e2       	ldi	r24, 0x28	; 40
    154a:	0e 94 b8 1c 	call	0x3970	; 0x3970 <digitalWrite>
C:\Users\DH\Documents\GitHub\MCure\insulin_pen(REVB)\insulin_peb_revb/insulin_peb_revb.ino:131
  digitalWrite(LED_BLE, HIGH);
    154e:	61 e0       	ldi	r22, 0x01	; 1
    1550:	89 e2       	ldi	r24, 0x29	; 41
    1552:	0e 94 b8 1c 	call	0x3970	; 0x3970 <digitalWrite>
C:\Users\DH\Documents\GitHub\MCure\insulin_pen(REVB)\insulin_peb_revb/insulin_peb_revb.ino:132
  digitalWrite(LED_BAT_ICO, HIGH);
    1556:	61 e0       	ldi	r22, 0x01	; 1
    1558:	82 e2       	ldi	r24, 0x22	; 34
    155a:	0e 94 b8 1c 	call	0x3970	; 0x3970 <digitalWrite>
C:\Users\DH\Documents\GitHub\MCure\insulin_pen(REVB)\insulin_peb_revb/insulin_peb_revb.ino:133
  digitalWrite(LED_BAT_STATE1, HIGH);
    155e:	61 e0       	ldi	r22, 0x01	; 1
    1560:	83 e2       	ldi	r24, 0x23	; 35
    1562:	0e 94 b8 1c 	call	0x3970	; 0x3970 <digitalWrite>
C:\Users\DH\Documents\GitHub\MCure\insulin_pen(REVB)\insulin_peb_revb/insulin_peb_revb.ino:134
  digitalWrite(LED_BAT_STATE2, HIGH);
    1566:	61 e0       	ldi	r22, 0x01	; 1
    1568:	81 e2       	ldi	r24, 0x21	; 33
    156a:	0e 94 b8 1c 	call	0x3970	; 0x3970 <digitalWrite>
C:\Users\DH\Documents\GitHub\MCure\insulin_pen(REVB)\insulin_peb_revb/insulin_peb_revb.ino:135
  digitalWrite(LED_BAT_STATE3, HIGH);
    156e:	61 e0       	ldi	r22, 0x01	; 1
    1570:	80 e2       	ldi	r24, 0x20	; 32
    1572:	0e 94 b8 1c 	call	0x3970	; 0x3970 <digitalWrite>
C:\Users\DH\Documents\GitHub\MCure\insulin_pen(REVB)\insulin_peb_revb/insulin_peb_revb.ino:136
  digitalWrite(LED_MOTOR_ICO, HIGH);
    1576:	61 e0       	ldi	r22, 0x01	; 1
    1578:	8e e0       	ldi	r24, 0x0E	; 14
    157a:	0e 94 b8 1c 	call	0x3970	; 0x3970 <digitalWrite>
C:\Users\DH\Documents\GitHub\MCure\insulin_pen(REVB)\insulin_peb_revb/insulin_peb_revb.ino:137
  digitalWrite(LED_MOTOR_STATE1, HIGH);
    157e:	61 e0       	ldi	r22, 0x01	; 1
    1580:	8f e1       	ldi	r24, 0x1F	; 31
    1582:	0e 94 b8 1c 	call	0x3970	; 0x3970 <digitalWrite>
C:\Users\DH\Documents\GitHub\MCure\insulin_pen(REVB)\insulin_peb_revb/insulin_peb_revb.ino:138
  digitalWrite(LED_MOTOR_STATE2, HIGH);
    1586:	61 e0       	ldi	r22, 0x01	; 1
    1588:	8e e1       	ldi	r24, 0x1E	; 30
    158a:	0e 94 b8 1c 	call	0x3970	; 0x3970 <digitalWrite>
C:\Users\DH\Documents\GitHub\MCure\insulin_pen(REVB)\insulin_peb_revb/insulin_peb_revb.ino:139
  digitalWrite(LED_MOTOR_STATE3, HIGH);
    158e:	61 e0       	ldi	r22, 0x01	; 1
    1590:	8f e0       	ldi	r24, 0x0F	; 15
    1592:	0e 94 b8 1c 	call	0x3970	; 0x3970 <digitalWrite>
C:\Users\DH\Documents\GitHub\MCure\insulin_pen(REVB)\insulin_peb_revb/insulin_peb_revb.ino:140
  digitalWrite(LED_MOTOR_STATE4, HIGH);
    1596:	61 e0       	ldi	r22, 0x01	; 1
    1598:	87 e2       	ldi	r24, 0x27	; 39
    159a:	0e 94 b8 1c 	call	0x3970	; 0x3970 <digitalWrite>
C:\Users\DH\Documents\GitHub\MCure\insulin_pen(REVB)\insulin_peb_revb/insulin_peb_revb.ino:141
  digitalWrite(LED_TEMP_DANGER, HIGH);
    159e:	61 e0       	ldi	r22, 0x01	; 1
    15a0:	8d e1       	ldi	r24, 0x1D	; 29
    15a2:	0e 94 b8 1c 	call	0x3970	; 0x3970 <digitalWrite>
C:\Users\DH\Documents\GitHub\MCure\insulin_pen(REVB)\insulin_peb_revb/insulin_peb_revb.ino:142
  digitalWrite(LED_TEMP_NORMAL, HIGH);
    15a6:	61 e0       	ldi	r22, 0x01	; 1
    15a8:	8c e1       	ldi	r24, 0x1C	; 28
    15aa:	0e 94 b8 1c 	call	0x3970	; 0x3970 <digitalWrite>
C:\Users\DH\Documents\GitHub\MCure\insulin_pen(REVB)\insulin_peb_revb/insulin_peb_revb.ino:144

  pulses = 0;
    15ae:	10 92 ca 02 	sts	0x02CA, r1	; 0x8002ca <pulses+0x1>
    15b2:	10 92 c9 02 	sts	0x02C9, r1	; 0x8002c9 <pulses>
C:\Users\DH\Documents\GitHub\MCure\insulin_pen(REVB)\insulin_peb_revb/insulin_peb_revb.ino:145
  pre_encodercheck_time = millis();
    15b6:	0e 94 3f 1b 	call	0x367e	; 0x367e <millis>
    15ba:	60 93 b1 02 	sts	0x02B1, r22	; 0x8002b1 <pre_encodercheck_time>
    15be:	70 93 b2 02 	sts	0x02B2, r23	; 0x8002b2 <pre_encodercheck_time+0x1>
    15c2:	80 93 b3 02 	sts	0x02B3, r24	; 0x8002b3 <pre_encodercheck_time+0x2>
    15c6:	90 93 b4 02 	sts	0x02B4, r25	; 0x8002b4 <pre_encodercheck_time+0x3>
C:\Users\DH\Documents\GitHub\MCure\insulin_pen(REVB)\insulin_peb_revb/insulin_peb_revb.ino:147

  active_step = STEP_USER_INPUT;
    15ca:	10 92 d0 02 	sts	0x02D0, r1	; 0x8002d0 <active_step>
C:\Users\DH\Documents\GitHub\MCure\insulin_pen(REVB)\insulin_peb_revb/insulin_peb_revb.ino:148
  is_target_psi_set = false;
    15ce:	10 92 d3 02 	sts	0x02D3, r1	; 0x8002d3 <is_target_psi_set>
C:\Users\DH\Documents\GitHub\MCure\insulin_pen(REVB)\insulin_peb_revb/insulin_peb_revb.ino:150

  readEEPROM();
    15d2:	0e 94 8c 09 	call	0x1318	; 0x1318 <readEEPROM()>
C:\Users\DH\Documents\GitHub\MCure\insulin_pen(REVB)\insulin_peb_revb/insulin_peb_revb.ino:153

  //working_mode = MODE_AUTO; // auto mode is default
  working_mode = MODE_MANUAL;
    15d6:	82 e0       	ldi	r24, 0x02	; 2
    15d8:	80 93 cf 02 	sts	0x02CF, r24	; 0x8002cf <working_mode>
C:\Users\DH\Documents\GitHub\MCure\insulin_pen(REVB)\insulin_peb_revb/insulin_peb_revb.ino:155

  Sound_Update = 2;
    15dc:	80 93 cc 02 	sts	0x02CC, r24	; 0x8002cc <Sound_Update>
C:\Users\DH\Documents\GitHub\MCure\insulin_pen(REVB)\insulin_peb_revb/insulin_peb_revb.ino:156
  Sound_Num = 3;
    15e0:	83 e0       	ldi	r24, 0x03	; 3
    15e2:	80 93 cd 02 	sts	0x02CD, r24	; 0x8002cd <Sound_Num>
C:\Users\DH\Documents\GitHub\MCure\insulin_pen(REVB)\insulin_peb_revb/insulin_peb_revb.ino:157
  is_touch_enable = 0;
    15e6:	10 92 9c 02 	sts	0x029C, r1	; 0x80029c <is_touch_enable>
C:\Users\DH\Documents\GitHub\MCure\insulin_pen(REVB)\insulin_peb_revb/insulin_peb_revb.ino:158
}
    15ea:	08 95       	ret

000015ec <Print::availableForWrite()>:
_ZN5Print17availableForWriteEv():
C:\Users\DH\AppData\Local\Arduino15\packages\MegaCore\hardware\avr\2.2.0\libraries\Wire\src\TwoWire/TwoWire.cpp:331

// sets function called on slave read
void TwoWire::onRequest( void (*function)(void) )
{
  user_onRequest = function;
}
    15ec:	90 e0       	ldi	r25, 0x00	; 0
    15ee:	80 e0       	ldi	r24, 0x00	; 0
    15f0:	08 95       	ret

000015f2 <TwoWire::available()>:
_ZN7TwoWire9availableEv():
    15f2:	80 91 05 03 	lds	r24, 0x0305	; 0x800305 <TwoWire::rxBufferLength>
    15f6:	90 91 06 03 	lds	r25, 0x0306	; 0x800306 <TwoWire::rxBufferIndex>
    15fa:	89 1b       	sub	r24, r25
    15fc:	99 0b       	sbc	r25, r25
    15fe:	08 95       	ret

00001600 <TwoWire::read()>:
_ZN7TwoWire4readEv():
    1600:	90 91 06 03 	lds	r25, 0x0306	; 0x800306 <TwoWire::rxBufferIndex>
    1604:	80 91 05 03 	lds	r24, 0x0305	; 0x800305 <TwoWire::rxBufferLength>
    1608:	2f ef       	ldi	r18, 0xFF	; 255
    160a:	3f ef       	ldi	r19, 0xFF	; 255
    160c:	98 17       	cp	r25, r24
    160e:	48 f4       	brcc	.+18     	; 0x1622 <TwoWire::read()+0x22>
    1610:	e9 2f       	mov	r30, r25
    1612:	f0 e0       	ldi	r31, 0x00	; 0
    1614:	e9 5f       	subi	r30, 0xF9	; 249
    1616:	fc 4f       	sbci	r31, 0xFC	; 252
    1618:	20 81       	ld	r18, Z
    161a:	30 e0       	ldi	r19, 0x00	; 0
    161c:	9f 5f       	subi	r25, 0xFF	; 255
    161e:	90 93 06 03 	sts	0x0306, r25	; 0x800306 <TwoWire::rxBufferIndex>
    1622:	c9 01       	movw	r24, r18
    1624:	08 95       	ret

00001626 <TwoWire::peek()>:
_ZN7TwoWire4peekEv():
    1626:	e0 91 06 03 	lds	r30, 0x0306	; 0x800306 <TwoWire::rxBufferIndex>
    162a:	80 91 05 03 	lds	r24, 0x0305	; 0x800305 <TwoWire::rxBufferLength>
    162e:	e8 17       	cp	r30, r24
    1630:	30 f4       	brcc	.+12     	; 0x163e <TwoWire::peek()+0x18>
    1632:	f0 e0       	ldi	r31, 0x00	; 0
    1634:	e9 5f       	subi	r30, 0xF9	; 249
    1636:	fc 4f       	sbci	r31, 0xFC	; 252
    1638:	80 81       	ld	r24, Z
    163a:	90 e0       	ldi	r25, 0x00	; 0
    163c:	08 95       	ret
    163e:	8f ef       	ldi	r24, 0xFF	; 255
    1640:	9f ef       	ldi	r25, 0xFF	; 255
    1642:	08 95       	ret

00001644 <TwoWire::flush()>:
_ZN7TwoWire5flushEv():
    1644:	08 95       	ret

00001646 <TwoWire::write(unsigned char)>:
_ZN7TwoWire5writeEh():
    1646:	cf 93       	push	r28
    1648:	df 93       	push	r29
    164a:	1f 92       	push	r1
    164c:	cd b7       	in	r28, 0x3d	; 61
    164e:	de b7       	in	r29, 0x3e	; 62
    1650:	69 83       	std	Y+1, r22	; 0x01
    1652:	20 91 e2 02 	lds	r18, 0x02E2	; 0x8002e2 <TwoWire::transmitting>
    1656:	22 23       	and	r18, r18
    1658:	f9 f0       	breq	.+62     	; 0x1698 <TwoWire::write(unsigned char)+0x52>
    165a:	20 91 e3 02 	lds	r18, 0x02E3	; 0x8002e3 <TwoWire::txBufferLength>
    165e:	20 32       	cpi	r18, 0x20	; 32
    1660:	58 f0       	brcs	.+22     	; 0x1678 <TwoWire::write(unsigned char)+0x32>
_ZN5Print13setWriteErrorEi():
    1662:	21 e0       	ldi	r18, 0x01	; 1
    1664:	30 e0       	ldi	r19, 0x00	; 0
    1666:	fc 01       	movw	r30, r24
    1668:	33 83       	std	Z+3, r19	; 0x03
    166a:	22 83       	std	Z+2, r18	; 0x02
_ZN7TwoWire5writeEh():
    166c:	90 e0       	ldi	r25, 0x00	; 0
    166e:	80 e0       	ldi	r24, 0x00	; 0
    1670:	0f 90       	pop	r0
    1672:	df 91       	pop	r29
    1674:	cf 91       	pop	r28
    1676:	08 95       	ret
    1678:	80 91 e4 02 	lds	r24, 0x02E4	; 0x8002e4 <TwoWire::txBufferIndex>
    167c:	e8 2f       	mov	r30, r24
    167e:	f0 e0       	ldi	r31, 0x00	; 0
    1680:	eb 51       	subi	r30, 0x1B	; 27
    1682:	fd 4f       	sbci	r31, 0xFD	; 253
    1684:	99 81       	ldd	r25, Y+1	; 0x01
    1686:	90 83       	st	Z, r25
    1688:	8f 5f       	subi	r24, 0xFF	; 255
    168a:	80 93 e4 02 	sts	0x02E4, r24	; 0x8002e4 <TwoWire::txBufferIndex>
    168e:	80 93 e3 02 	sts	0x02E3, r24	; 0x8002e3 <TwoWire::txBufferLength>
    1692:	81 e0       	ldi	r24, 0x01	; 1
    1694:	90 e0       	ldi	r25, 0x00	; 0
    1696:	ec cf       	rjmp	.-40     	; 0x1670 <TwoWire::write(unsigned char)+0x2a>
    1698:	61 e0       	ldi	r22, 0x01	; 1
    169a:	ce 01       	movw	r24, r28
    169c:	01 96       	adiw	r24, 0x01	; 1
    169e:	0e 94 90 0b 	call	0x1720	; 0x1720 <twi_transmit>
    16a2:	f7 cf       	rjmp	.-18     	; 0x1692 <TwoWire::write(unsigned char)+0x4c>

000016a4 <TwoWire::write(unsigned char const*, unsigned int)>:
_ZN7TwoWire5writeEPKhj():
    16a4:	cf 92       	push	r12
    16a6:	df 92       	push	r13
    16a8:	ef 92       	push	r14
    16aa:	ff 92       	push	r15
    16ac:	0f 93       	push	r16
    16ae:	1f 93       	push	r17
    16b0:	cf 93       	push	r28
    16b2:	df 93       	push	r29
    16b4:	7c 01       	movw	r14, r24
    16b6:	cb 01       	movw	r24, r22
    16b8:	8a 01       	movw	r16, r20
    16ba:	20 91 e2 02 	lds	r18, 0x02E2	; 0x8002e2 <TwoWire::transmitting>
    16be:	22 23       	and	r18, r18
    16c0:	89 f0       	breq	.+34     	; 0x16e4 <TwoWire::write(unsigned char const*, unsigned int)+0x40>
    16c2:	eb 01       	movw	r28, r22
    16c4:	6b 01       	movw	r12, r22
    16c6:	c4 0e       	add	r12, r20
    16c8:	d5 1e       	adc	r13, r21
    16ca:	cc 15       	cp	r28, r12
    16cc:	dd 05       	cpc	r29, r13
    16ce:	69 f0       	breq	.+26     	; 0x16ea <TwoWire::write(unsigned char const*, unsigned int)+0x46>
    16d0:	69 91       	ld	r22, Y+
    16d2:	d7 01       	movw	r26, r14
    16d4:	ed 91       	ld	r30, X+
    16d6:	fc 91       	ld	r31, X
    16d8:	01 90       	ld	r0, Z+
    16da:	f0 81       	ld	r31, Z
    16dc:	e0 2d       	mov	r30, r0
    16de:	c7 01       	movw	r24, r14
    16e0:	19 95       	eicall
    16e2:	f3 cf       	rjmp	.-26     	; 0x16ca <TwoWire::write(unsigned char const*, unsigned int)+0x26>
    16e4:	64 2f       	mov	r22, r20
    16e6:	0e 94 90 0b 	call	0x1720	; 0x1720 <twi_transmit>
    16ea:	c8 01       	movw	r24, r16
    16ec:	df 91       	pop	r29
    16ee:	cf 91       	pop	r28
    16f0:	1f 91       	pop	r17
    16f2:	0f 91       	pop	r16
    16f4:	ff 90       	pop	r15
    16f6:	ef 90       	pop	r14
    16f8:	df 90       	pop	r13
    16fa:	cf 90       	pop	r12
    16fc:	08 95       	ret

000016fe <_GLOBAL__sub_I__ZN7TwoWire8rxBufferE>:
_ZN5PrintC4Ev():
C:\Users\DH\AppData\Local\Arduino15\packages\MegaCore\hardware\avr\2.2.0\cores\MCUdude_corefiles/Print.h:46
    size_t printNumber(unsigned long, uint8_t);
    size_t printFloat(double, uint8_t);
  protected:
    void setWriteError(int err = 1) { write_error = err; }
  public:
    Print() : write_error(0) {}
    16fe:	e6 ed       	ldi	r30, 0xD6	; 214
    1700:	f2 e0       	ldi	r31, 0x02	; 2
    1702:	13 82       	std	Z+3, r1	; 0x03
    1704:	12 82       	std	Z+2, r1	; 0x02
_ZN6StreamC4Ev():
C:\Users\DH\AppData\Local\Arduino15\packages\MegaCore\hardware\avr\2.2.0\cores\MCUdude_corefiles/Stream.h:63
  public:
    virtual int available() = 0;
    virtual int read() = 0;
    virtual int peek() = 0;

    Stream() {_timeout=1000;}
    1706:	88 ee       	ldi	r24, 0xE8	; 232
    1708:	93 e0       	ldi	r25, 0x03	; 3
    170a:	a0 e0       	ldi	r26, 0x00	; 0
    170c:	b0 e0       	ldi	r27, 0x00	; 0
    170e:	84 83       	std	Z+4, r24	; 0x04
    1710:	95 83       	std	Z+5, r25	; 0x05
    1712:	a6 83       	std	Z+6, r26	; 0x06
    1714:	b7 83       	std	Z+7, r27	; 0x07
_ZN7TwoWireC4Ev():
C:\Users\DH\AppData\Local\Arduino15\packages\MegaCore\hardware\avr\2.2.0\libraries\Wire\src\TwoWire/TwoWire.cpp:54
void (*TwoWire::user_onRequest)(void);
void (*TwoWire::user_onReceive)(int);

// Constructors ////////////////////////////////////////////////////////////////

TwoWire::TwoWire()
    1716:	81 e4       	ldi	r24, 0x41	; 65
    1718:	92 e0       	ldi	r25, 0x02	; 2
    171a:	91 83       	std	Z+1, r25	; 0x01
    171c:	80 83       	st	Z, r24
_GLOBAL__sub_I__ZN7TwoWire8rxBufferE():
C:\Users\DH\AppData\Local\Arduino15\packages\MegaCore\hardware\avr\2.2.0\libraries\Wire\src\TwoWire/TwoWire.cpp:335
  user_onRequest = function;
}

// Preinstantiate Objects //////////////////////////////////////////////////////

TwoWire Wire = TwoWire();
    171e:	08 95       	ret

00001720 <twi_transmit>:
twi_transmit():
C:\Users\DH\AppData\Local\Arduino15\packages\MegaCore\hardware\avr\2.2.0\libraries\Wire\src\TwoWire\utility/twi.c:355
{
  // transmit master read ready signal, with or without ack
  if(ack){
    TWCR = _BV(TWEN) | _BV(TWIE) | _BV(TWINT) | _BV(TWEA);
  }else{
    TWCR = _BV(TWEN) | _BV(TWIE) | _BV(TWINT);
    1720:	20 91 49 03 	lds	r18, 0x0349	; 0x800349 <twi_txBufferLength>
    1724:	26 0f       	add	r18, r22
    1726:	33 27       	eor	r19, r19
    1728:	33 1f       	adc	r19, r19
    172a:	21 32       	cpi	r18, 0x21	; 33
    172c:	31 05       	cpc	r19, r1
    172e:	ec f4       	brge	.+58     	; 0x176a <twi_transmit+0x4a>
    1730:	20 91 94 03 	lds	r18, 0x0394	; 0x800394 <twi_state>
    1734:	fc 01       	movw	r30, r24
    1736:	90 e0       	ldi	r25, 0x00	; 0
    1738:	80 e0       	ldi	r24, 0x00	; 0
    173a:	24 30       	cpi	r18, 0x04	; 4
    173c:	69 f0       	breq	.+26     	; 0x1758 <twi_transmit+0x38>
    173e:	82 e0       	ldi	r24, 0x02	; 2
    1740:	08 95       	ret
    1742:	a0 91 49 03 	lds	r26, 0x0349	; 0x800349 <twi_txBufferLength>
    1746:	21 91       	ld	r18, Z+
    1748:	ac 01       	movw	r20, r24
    174a:	45 5b       	subi	r20, 0xB5	; 181
    174c:	5c 4f       	sbci	r21, 0xFC	; 252
    174e:	a4 0f       	add	r26, r20
    1750:	b5 2f       	mov	r27, r21
    1752:	b1 1d       	adc	r27, r1
    1754:	2c 93       	st	X, r18
    1756:	01 96       	adiw	r24, 0x01	; 1
    1758:	86 17       	cp	r24, r22
    175a:	98 f3       	brcs	.-26     	; 0x1742 <twi_transmit+0x22>
    175c:	80 91 49 03 	lds	r24, 0x0349	; 0x800349 <twi_txBufferLength>
    1760:	68 0f       	add	r22, r24
    1762:	60 93 49 03 	sts	0x0349, r22	; 0x800349 <twi_txBufferLength>
    1766:	80 e0       	ldi	r24, 0x00	; 0
    1768:	08 95       	ret
    176a:	81 e0       	ldi	r24, 0x01	; 1
    176c:	08 95       	ret

0000176e <twi_stop>:
twi_stop():
C:\Users\DH\AppData\Local\Arduino15\packages\MegaCore\hardware\avr\2.2.0\libraries\Wire\src\TwoWire\utility/twi.c:368
 * Output   none
 */
void twi_stop(void)
{
  // send stop condition
  TWCR = _BV(TWEN) | _BV(TWIE) | _BV(TWEA) | _BV(TWINT) | _BV(TWSTO);
    176e:	85 ed       	ldi	r24, 0xD5	; 213
    1770:	80 93 bc 00 	sts	0x00BC, r24	; 0x8000bc <__TEXT_REGION_LENGTH__+0x7000bc>
C:\Users\DH\AppData\Local\Arduino15\packages\MegaCore\hardware\avr\2.2.0\libraries\Wire\src\TwoWire\utility/twi.c:372

  // wait for stop condition to be executed on bus
  // TWINT is not set after a stop condition!
  while(TWCR & _BV(TWSTO)){
    1774:	80 91 bc 00 	lds	r24, 0x00BC	; 0x8000bc <__TEXT_REGION_LENGTH__+0x7000bc>
    1778:	84 fd       	sbrc	r24, 4
    177a:	fc cf       	rjmp	.-8      	; 0x1774 <twi_stop+0x6>
C:\Users\DH\AppData\Local\Arduino15\packages\MegaCore\hardware\avr\2.2.0\libraries\Wire\src\TwoWire\utility/twi.c:377
    continue;
  }

  // update twi state
  twi_state = TWI_READY;
    177c:	10 92 94 03 	sts	0x0394, r1	; 0x800394 <twi_state>
C:\Users\DH\AppData\Local\Arduino15\packages\MegaCore\hardware\avr\2.2.0\libraries\Wire\src\TwoWire\utility/twi.c:378
}
    1780:	08 95       	ret

00001782 <twi_releaseBus>:
twi_releaseBus():
C:\Users\DH\AppData\Local\Arduino15\packages\MegaCore\hardware\avr\2.2.0\libraries\Wire\src\TwoWire\utility/twi.c:389
 * Output   none
 */
void twi_releaseBus(void)
{
  // release bus
  TWCR = _BV(TWEN) | _BV(TWIE) | _BV(TWEA) | _BV(TWINT);
    1782:	85 ec       	ldi	r24, 0xC5	; 197
    1784:	80 93 bc 00 	sts	0x00BC, r24	; 0x8000bc <__TEXT_REGION_LENGTH__+0x7000bc>
C:\Users\DH\AppData\Local\Arduino15\packages\MegaCore\hardware\avr\2.2.0\libraries\Wire\src\TwoWire\utility/twi.c:392

  // update twi state
  twi_state = TWI_READY;
    1788:	10 92 94 03 	sts	0x0394, r1	; 0x800394 <twi_state>
C:\Users\DH\AppData\Local\Arduino15\packages\MegaCore\hardware\avr\2.2.0\libraries\Wire\src\TwoWire\utility/twi.c:393
}
    178c:	08 95       	ret

0000178e <__vector_39>:
__vector_39():
C:\Users\DH\AppData\Local\Arduino15\packages\MegaCore\hardware\avr\2.2.0\libraries\Wire\src\TwoWire\utility/twi.c:396

ISR(TWI_vect)
{
    178e:	1f 92       	push	r1
    1790:	0f 92       	push	r0
    1792:	0f b6       	in	r0, 0x3f	; 63
    1794:	0f 92       	push	r0
    1796:	11 24       	eor	r1, r1
    1798:	0b b6       	in	r0, 0x3b	; 59
    179a:	0f 92       	push	r0
    179c:	2f 93       	push	r18
    179e:	3f 93       	push	r19
    17a0:	4f 93       	push	r20
    17a2:	5f 93       	push	r21
    17a4:	6f 93       	push	r22
    17a6:	7f 93       	push	r23
    17a8:	8f 93       	push	r24
    17aa:	9f 93       	push	r25
    17ac:	af 93       	push	r26
    17ae:	bf 93       	push	r27
    17b0:	ef 93       	push	r30
    17b2:	ff 93       	push	r31
C:\Users\DH\AppData\Local\Arduino15\packages\MegaCore\hardware\avr\2.2.0\libraries\Wire\src\TwoWire\utility/twi.c:397
  switch(TW_STATUS){
    17b4:	80 91 b9 00 	lds	r24, 0x00B9	; 0x8000b9 <__TEXT_REGION_LENGTH__+0x7000b9>
    17b8:	88 7f       	andi	r24, 0xF8	; 248
    17ba:	80 36       	cpi	r24, 0x60	; 96
    17bc:	09 f4       	brne	.+2      	; 0x17c0 <__vector_39+0x32>
    17be:	4e c0       	rjmp	.+156    	; 0x185c <__vector_39+0xce>
    17c0:	08 f0       	brcs	.+2      	; 0x17c4 <__vector_39+0x36>
    17c2:	41 c0       	rjmp	.+130    	; 0x1846 <__vector_39+0xb8>
    17c4:	88 32       	cpi	r24, 0x28	; 40
    17c6:	09 f4       	brne	.+2      	; 0x17ca <__vector_39+0x3c>
    17c8:	aa c0       	rjmp	.+340    	; 0x191e <__vector_39+0x190>
    17ca:	28 f5       	brcc	.+74     	; 0x1816 <__vector_39+0x88>
    17cc:	80 31       	cpi	r24, 0x10	; 16
    17ce:	09 f4       	brne	.+2      	; 0x17d2 <__vector_39+0x44>
    17d0:	9e c0       	rjmp	.+316    	; 0x190e <__vector_39+0x180>
    17d2:	c8 f4       	brcc	.+50     	; 0x1806 <__vector_39+0x78>
    17d4:	88 23       	and	r24, r24
    17d6:	09 f4       	brne	.+2      	; 0x17da <__vector_39+0x4c>
    17d8:	fb c0       	rjmp	.+502    	; 0x19d0 <__vector_39+0x242>
    17da:	88 30       	cpi	r24, 0x08	; 8
    17dc:	09 f4       	brne	.+2      	; 0x17e0 <__vector_39+0x52>
    17de:	97 c0       	rjmp	.+302    	; 0x190e <__vector_39+0x180>
C:\Users\DH\AppData\Local\Arduino15\packages\MegaCore\hardware\avr\2.2.0\libraries\Wire\src\TwoWire\utility/twi.c:558
    case TW_BUS_ERROR: // bus error, illegal stop/start
      twi_error = TW_BUS_ERROR;
      twi_stop();
      break;
  }
}
    17e0:	ff 91       	pop	r31
    17e2:	ef 91       	pop	r30
    17e4:	bf 91       	pop	r27
    17e6:	af 91       	pop	r26
    17e8:	9f 91       	pop	r25
    17ea:	8f 91       	pop	r24
    17ec:	7f 91       	pop	r23
    17ee:	6f 91       	pop	r22
    17f0:	5f 91       	pop	r21
    17f2:	4f 91       	pop	r20
    17f4:	3f 91       	pop	r19
    17f6:	2f 91       	pop	r18
    17f8:	0f 90       	pop	r0
    17fa:	0b be       	out	0x3b, r0	; 59
    17fc:	0f 90       	pop	r0
    17fe:	0f be       	out	0x3f, r0	; 63
    1800:	0f 90       	pop	r0
    1802:	1f 90       	pop	r1
    1804:	18 95       	reti
C:\Users\DH\AppData\Local\Arduino15\packages\MegaCore\hardware\avr\2.2.0\libraries\Wire\src\TwoWire\utility/twi.c:397
  twi_state = TWI_READY;
}

ISR(TWI_vect)
{
  switch(TW_STATUS){
    1806:	88 31       	cpi	r24, 0x18	; 24
    1808:	09 f4       	brne	.+2      	; 0x180c <__vector_39+0x7e>
    180a:	89 c0       	rjmp	.+274    	; 0x191e <__vector_39+0x190>
    180c:	80 32       	cpi	r24, 0x20	; 32
    180e:	41 f7       	brne	.-48     	; 0x17e0 <__vector_39+0x52>
C:\Users\DH\AppData\Local\Arduino15\packages\MegaCore\hardware\avr\2.2.0\libraries\Wire\src\TwoWire\utility/twi.c:432
    case TW_MT_SLA_NACK:  // address sent, nack received
      twi_error = TW_MT_SLA_NACK;
      twi_stop();
      break;
    case TW_MT_DATA_NACK: // data sent, nack received
      twi_error = TW_MT_DATA_NACK;
    1810:	80 93 27 03 	sts	0x0327, r24	; 0x800327 <twi_error>
    1814:	15 c0       	rjmp	.+42     	; 0x1840 <__vector_39+0xb2>
C:\Users\DH\AppData\Local\Arduino15\packages\MegaCore\hardware\avr\2.2.0\libraries\Wire\src\TwoWire\utility/twi.c:397
  twi_state = TWI_READY;
}

ISR(TWI_vect)
{
  switch(TW_STATUS){
    1816:	80 34       	cpi	r24, 0x40	; 64
    1818:	09 f4       	brne	.+2      	; 0x181c <__vector_39+0x8e>
    181a:	9e c0       	rjmp	.+316    	; 0x1958 <__vector_39+0x1ca>
    181c:	48 f4       	brcc	.+18     	; 0x1830 <__vector_39+0xa2>
    181e:	80 33       	cpi	r24, 0x30	; 48
    1820:	b9 f3       	breq	.-18     	; 0x1810 <__vector_39+0x82>
    1822:	88 33       	cpi	r24, 0x38	; 56
    1824:	e9 f6       	brne	.-70     	; 0x17e0 <__vector_39+0x52>
C:\Users\DH\AppData\Local\Arduino15\packages\MegaCore\hardware\avr\2.2.0\libraries\Wire\src\TwoWire\utility/twi.c:436
    case TW_MT_DATA_NACK: // data sent, nack received
      twi_error = TW_MT_DATA_NACK;
      twi_stop();
      break;
    case TW_MT_ARB_LOST: // lost bus arbitration
      twi_error = TW_MT_ARB_LOST;
    1826:	80 93 27 03 	sts	0x0327, r24	; 0x800327 <twi_error>
C:\Users\DH\AppData\Local\Arduino15\packages\MegaCore\hardware\avr\2.2.0\libraries\Wire\src\TwoWire\utility/twi.c:437
      twi_releaseBus();
    182a:	0e 94 c1 0b 	call	0x1782	; 0x1782 <twi_releaseBus>
C:\Users\DH\AppData\Local\Arduino15\packages\MegaCore\hardware\avr\2.2.0\libraries\Wire\src\TwoWire\utility/twi.c:438
      break;
    182e:	d8 cf       	rjmp	.-80     	; 0x17e0 <__vector_39+0x52>
C:\Users\DH\AppData\Local\Arduino15\packages\MegaCore\hardware\avr\2.2.0\libraries\Wire\src\TwoWire\utility/twi.c:397
  twi_state = TWI_READY;
}

ISR(TWI_vect)
{
  switch(TW_STATUS){
    1830:	80 35       	cpi	r24, 0x50	; 80
    1832:	09 f4       	brne	.+2      	; 0x1836 <__vector_39+0xa8>
    1834:	85 c0       	rjmp	.+266    	; 0x1940 <__vector_39+0x1b2>
    1836:	88 35       	cpi	r24, 0x58	; 88
    1838:	09 f4       	brne	.+2      	; 0x183c <__vector_39+0xae>
    183a:	96 c0       	rjmp	.+300    	; 0x1968 <__vector_39+0x1da>
    183c:	88 34       	cpi	r24, 0x48	; 72
    183e:	81 f6       	brne	.-96     	; 0x17e0 <__vector_39+0x52>
C:\Users\DH\AppData\Local\Arduino15\packages\MegaCore\hardware\avr\2.2.0\libraries\Wire\src\TwoWire\utility/twi.c:555
    // All
    case TW_NO_INFO:   // no state information
      break;
    case TW_BUS_ERROR: // bus error, illegal stop/start
      twi_error = TW_BUS_ERROR;
      twi_stop();
    1840:	0e 94 b7 0b 	call	0x176e	; 0x176e <twi_stop>
C:\Users\DH\AppData\Local\Arduino15\packages\MegaCore\hardware\avr\2.2.0\libraries\Wire\src\TwoWire\utility/twi.c:558
      break;
  }
}
    1844:	cd cf       	rjmp	.-102    	; 0x17e0 <__vector_39+0x52>
C:\Users\DH\AppData\Local\Arduino15\packages\MegaCore\hardware\avr\2.2.0\libraries\Wire\src\TwoWire\utility/twi.c:397
  twi_state = TWI_READY;
}

ISR(TWI_vect)
{
  switch(TW_STATUS){
    1846:	88 39       	cpi	r24, 0x98	; 152
    1848:	09 f4       	brne	.+2      	; 0x184c <__vector_39+0xbe>
    184a:	8c c0       	rjmp	.+280    	; 0x1964 <__vector_39+0x1d6>
    184c:	38 f5       	brcc	.+78     	; 0x189c <__vector_39+0x10e>
    184e:	88 37       	cpi	r24, 0x78	; 120
    1850:	29 f0       	breq	.+10     	; 0x185c <__vector_39+0xce>
    1852:	50 f4       	brcc	.+20     	; 0x1868 <__vector_39+0xda>
    1854:	88 36       	cpi	r24, 0x68	; 104
    1856:	11 f0       	breq	.+4      	; 0x185c <__vector_39+0xce>
    1858:	80 37       	cpi	r24, 0x70	; 112
    185a:	11 f6       	brne	.-124    	; 0x17e0 <__vector_39+0x52>
C:\Users\DH\AppData\Local\Arduino15\packages\MegaCore\hardware\avr\2.2.0\libraries\Wire\src\TwoWire\utility/twi.c:478
    case TW_SR_SLA_ACK:   // addressed, returned ack
    case TW_SR_GCALL_ACK: // addressed generally, returned ack
    case TW_SR_ARB_LOST_SLA_ACK:   // lost arbitration, returned ack
    case TW_SR_ARB_LOST_GCALL_ACK: // lost arbitration, returned ack
      // enter slave receiver mode
      twi_state = TWI_SRX;
    185c:	83 e0       	ldi	r24, 0x03	; 3
    185e:	80 93 94 03 	sts	0x0394, r24	; 0x800394 <twi_state>
C:\Users\DH\AppData\Local\Arduino15\packages\MegaCore\hardware\avr\2.2.0\libraries\Wire\src\TwoWire\utility/twi.c:480
      // indicate that rx buffer can be overwritten and ack
      twi_rxBufferIndex = 0;
    1862:	10 92 28 03 	sts	0x0328, r1	; 0x800328 <twi_rxBufferIndex>
    1866:	57 c0       	rjmp	.+174    	; 0x1916 <__vector_39+0x188>
C:\Users\DH\AppData\Local\Arduino15\packages\MegaCore\hardware\avr\2.2.0\libraries\Wire\src\TwoWire\utility/twi.c:397
  twi_state = TWI_READY;
}

ISR(TWI_vect)
{
  switch(TW_STATUS){
    1868:	88 38       	cpi	r24, 0x88	; 136
    186a:	09 f4       	brne	.+2      	; 0x186e <__vector_39+0xe0>
    186c:	7b c0       	rjmp	.+246    	; 0x1964 <__vector_39+0x1d6>
    186e:	80 39       	cpi	r24, 0x90	; 144
    1870:	19 f0       	breq	.+6      	; 0x1878 <__vector_39+0xea>
    1872:	80 38       	cpi	r24, 0x80	; 128
    1874:	09 f0       	breq	.+2      	; 0x1878 <__vector_39+0xea>
    1876:	b4 cf       	rjmp	.-152    	; 0x17e0 <__vector_39+0x52>
C:\Users\DH\AppData\Local\Arduino15\packages\MegaCore\hardware\avr\2.2.0\libraries\Wire\src\TwoWire\utility/twi.c:486
      twi_reply(1);
      break;
    case TW_SR_DATA_ACK:       // data received, returned ack
    case TW_SR_GCALL_DATA_ACK: // data received generally, returned ack
      // if there is still room in the rx buffer
      if(twi_rxBufferIndex < TWI_BUFFER_SIZE){
    1878:	80 91 28 03 	lds	r24, 0x0328	; 0x800328 <twi_rxBufferIndex>
    187c:	80 32       	cpi	r24, 0x20	; 32
    187e:	08 f0       	brcs	.+2      	; 0x1882 <__vector_39+0xf4>
    1880:	71 c0       	rjmp	.+226    	; 0x1964 <__vector_39+0x1d6>
C:\Users\DH\AppData\Local\Arduino15\packages\MegaCore\hardware\avr\2.2.0\libraries\Wire\src\TwoWire\utility/twi.c:488
        // put byte in buffer and ack
        twi_rxBuffer[twi_rxBufferIndex++] = TWDR;
    1882:	e0 91 28 03 	lds	r30, 0x0328	; 0x800328 <twi_rxBufferIndex>
    1886:	81 e0       	ldi	r24, 0x01	; 1
    1888:	8e 0f       	add	r24, r30
    188a:	80 93 28 03 	sts	0x0328, r24	; 0x800328 <twi_rxBufferIndex>
    188e:	80 91 bb 00 	lds	r24, 0x00BB	; 0x8000bb <__TEXT_REGION_LENGTH__+0x7000bb>
    1892:	f0 e0       	ldi	r31, 0x00	; 0
    1894:	e7 5d       	subi	r30, 0xD7	; 215
    1896:	fc 4f       	sbci	r31, 0xFC	; 252
    1898:	80 83       	st	Z, r24
    189a:	3d c0       	rjmp	.+122    	; 0x1916 <__vector_39+0x188>
C:\Users\DH\AppData\Local\Arduino15\packages\MegaCore\hardware\avr\2.2.0\libraries\Wire\src\TwoWire\utility/twi.c:397
  twi_state = TWI_READY;
}

ISR(TWI_vect)
{
  switch(TW_STATUS){
    189c:	80 3b       	cpi	r24, 0xB0	; 176
    189e:	39 f0       	breq	.+14     	; 0x18ae <__vector_39+0x120>
    18a0:	e0 f4       	brcc	.+56     	; 0x18da <__vector_39+0x14c>
    18a2:	80 3a       	cpi	r24, 0xA0	; 160
    18a4:	09 f4       	brne	.+2      	; 0x18a8 <__vector_39+0x11a>
    18a6:	79 c0       	rjmp	.+242    	; 0x199a <__vector_39+0x20c>
    18a8:	88 3a       	cpi	r24, 0xA8	; 168
    18aa:	09 f0       	breq	.+2      	; 0x18ae <__vector_39+0x120>
    18ac:	99 cf       	rjmp	.-206    	; 0x17e0 <__vector_39+0x52>
C:\Users\DH\AppData\Local\Arduino15\packages\MegaCore\hardware\avr\2.2.0\libraries\Wire\src\TwoWire\utility/twi.c:517

    // Slave Transmitter
    case TW_ST_SLA_ACK:          // addressed, returned ack
    case TW_ST_ARB_LOST_SLA_ACK: // arbitration lost, returned ack
      // enter slave transmitter mode
      twi_state = TWI_STX;
    18ae:	84 e0       	ldi	r24, 0x04	; 4
    18b0:	80 93 94 03 	sts	0x0394, r24	; 0x800394 <twi_state>
C:\Users\DH\AppData\Local\Arduino15\packages\MegaCore\hardware\avr\2.2.0\libraries\Wire\src\TwoWire\utility/twi.c:519
      // ready the tx buffer index for iteration
      twi_txBufferIndex = 0;
    18b4:	10 92 4a 03 	sts	0x034A, r1	; 0x80034a <twi_txBufferIndex>
C:\Users\DH\AppData\Local\Arduino15\packages\MegaCore\hardware\avr\2.2.0\libraries\Wire\src\TwoWire\utility/twi.c:521
      // set tx buffer length to be zero, to verify if user changes it
      twi_txBufferLength = 0;
    18b8:	10 92 49 03 	sts	0x0349, r1	; 0x800349 <twi_txBufferLength>
C:\Users\DH\AppData\Local\Arduino15\packages\MegaCore\hardware\avr\2.2.0\libraries\Wire\src\TwoWire\utility/twi.c:524
      // request for txBuffer to be filled and length to be set
      // note: user must call twi_transmit(bytes, length) to do this
      twi_onSlaveTransmit();
    18bc:	e0 91 8f 03 	lds	r30, 0x038F	; 0x80038f <twi_onSlaveTransmit>
    18c0:	f0 91 90 03 	lds	r31, 0x0390	; 0x800390 <twi_onSlaveTransmit+0x1>
    18c4:	19 95       	eicall
C:\Users\DH\AppData\Local\Arduino15\packages\MegaCore\hardware\avr\2.2.0\libraries\Wire\src\TwoWire\utility/twi.c:526
      // if they didn't change buffer & length, initialize it
      if(0 == twi_txBufferLength){
    18c6:	80 91 49 03 	lds	r24, 0x0349	; 0x800349 <twi_txBufferLength>
    18ca:	81 11       	cpse	r24, r1
    18cc:	0f c0       	rjmp	.+30     	; 0x18ec <__vector_39+0x15e>
C:\Users\DH\AppData\Local\Arduino15\packages\MegaCore\hardware\avr\2.2.0\libraries\Wire\src\TwoWire\utility/twi.c:527
        twi_txBufferLength = 1;
    18ce:	81 e0       	ldi	r24, 0x01	; 1
    18d0:	80 93 49 03 	sts	0x0349, r24	; 0x800349 <twi_txBufferLength>
C:\Users\DH\AppData\Local\Arduino15\packages\MegaCore\hardware\avr\2.2.0\libraries\Wire\src\TwoWire\utility/twi.c:528
        twi_txBuffer[0] = 0x00;
    18d4:	10 92 4b 03 	sts	0x034B, r1	; 0x80034b <twi_txBuffer>
    18d8:	09 c0       	rjmp	.+18     	; 0x18ec <__vector_39+0x15e>
C:\Users\DH\AppData\Local\Arduino15\packages\MegaCore\hardware\avr\2.2.0\libraries\Wire\src\TwoWire\utility/twi.c:397
  twi_state = TWI_READY;
}

ISR(TWI_vect)
{
  switch(TW_STATUS){
    18da:	80 3c       	cpi	r24, 0xC0	; 192
    18dc:	09 f4       	brne	.+2      	; 0x18e0 <__vector_39+0x152>
    18de:	76 c0       	rjmp	.+236    	; 0x19cc <__vector_39+0x23e>
    18e0:	88 3c       	cpi	r24, 0xC8	; 200
    18e2:	09 f4       	brne	.+2      	; 0x18e6 <__vector_39+0x158>
    18e4:	73 c0       	rjmp	.+230    	; 0x19cc <__vector_39+0x23e>
    18e6:	88 3b       	cpi	r24, 0xB8	; 184
    18e8:	09 f0       	breq	.+2      	; 0x18ec <__vector_39+0x15e>
    18ea:	7a cf       	rjmp	.-268    	; 0x17e0 <__vector_39+0x52>
C:\Users\DH\AppData\Local\Arduino15\packages\MegaCore\hardware\avr\2.2.0\libraries\Wire\src\TwoWire\utility/twi.c:534
      }
      // transmit first byte from buffer, fall
      /* fall through */
    case TW_ST_DATA_ACK: // byte sent, ack returned
      // copy data to output register
      TWDR = twi_txBuffer[twi_txBufferIndex++];
    18ec:	e0 91 4a 03 	lds	r30, 0x034A	; 0x80034a <twi_txBufferIndex>
    18f0:	81 e0       	ldi	r24, 0x01	; 1
    18f2:	8e 0f       	add	r24, r30
    18f4:	80 93 4a 03 	sts	0x034A, r24	; 0x80034a <twi_txBufferIndex>
    18f8:	f0 e0       	ldi	r31, 0x00	; 0
    18fa:	e5 5b       	subi	r30, 0xB5	; 181
    18fc:	fc 4f       	sbci	r31, 0xFC	; 252
    18fe:	80 81       	ld	r24, Z
    1900:	80 93 bb 00 	sts	0x00BB, r24	; 0x8000bb <__TEXT_REGION_LENGTH__+0x7000bb>
C:\Users\DH\AppData\Local\Arduino15\packages\MegaCore\hardware\avr\2.2.0\libraries\Wire\src\TwoWire\utility/twi.c:536
      // if there is more to send, ack, otherwise nack
      if(twi_txBufferIndex < twi_txBufferLength){
    1904:	90 91 4a 03 	lds	r25, 0x034A	; 0x80034a <twi_txBufferIndex>
    1908:	80 91 49 03 	lds	r24, 0x0349	; 0x800349 <twi_txBufferLength>
    190c:	29 c0       	rjmp	.+82     	; 0x1960 <__vector_39+0x1d2>
C:\Users\DH\AppData\Local\Arduino15\packages\MegaCore\hardware\avr\2.2.0\libraries\Wire\src\TwoWire\utility/twi.c:402
  switch(TW_STATUS){
    // All Master
    case TW_START:     // sent start condition
    case TW_REP_START: // sent repeated start condition
      // copy device address and r/w bit to output register and ack
      TWDR = twi_slarw;
    190e:	80 91 93 03 	lds	r24, 0x0393	; 0x800393 <twi_slarw>
C:\Users\DH\AppData\Local\Arduino15\packages\MegaCore\hardware\avr\2.2.0\libraries\Wire\src\TwoWire\utility/twi.c:412
    case TW_MT_SLA_ACK:  // slave receiver acked address
    case TW_MT_DATA_ACK: // slave receiver acked data
      // if there is data to send, send it, otherwise stop
      if(twi_masterBufferIndex < twi_masterBufferLength){
        // copy data to output register and ack
        TWDR = twi_masterBuffer[twi_masterBufferIndex++];
    1912:	80 93 bb 00 	sts	0x00BB, r24	; 0x8000bb <__TEXT_REGION_LENGTH__+0x7000bb>
twi_reply():
C:\Users\DH\AppData\Local\Arduino15\packages\MegaCore\hardware\avr\2.2.0\libraries\Wire\src\TwoWire\utility/twi.c:353
 */
void twi_reply(uint8_t ack)
{
  // transmit master read ready signal, with or without ack
  if(ack){
    TWCR = _BV(TWEN) | _BV(TWIE) | _BV(TWINT) | _BV(TWEA);
    1916:	85 ec       	ldi	r24, 0xC5	; 197
C:\Users\DH\AppData\Local\Arduino15\packages\MegaCore\hardware\avr\2.2.0\libraries\Wire\src\TwoWire\utility/twi.c:355
  }else{
    TWCR = _BV(TWEN) | _BV(TWIE) | _BV(TWINT);
    1918:	80 93 bc 00 	sts	0x00BC, r24	; 0x8000bc <__TEXT_REGION_LENGTH__+0x7000bc>
    191c:	61 cf       	rjmp	.-318    	; 0x17e0 <__vector_39+0x52>
__vector_39():
C:\Users\DH\AppData\Local\Arduino15\packages\MegaCore\hardware\avr\2.2.0\libraries\Wire\src\TwoWire\utility/twi.c:410

    // Master Transmitter
    case TW_MT_SLA_ACK:  // slave receiver acked address
    case TW_MT_DATA_ACK: // slave receiver acked data
      // if there is data to send, send it, otherwise stop
      if(twi_masterBufferIndex < twi_masterBufferLength){
    191e:	90 91 6c 03 	lds	r25, 0x036C	; 0x80036c <twi_masterBufferIndex>
    1922:	80 91 6b 03 	lds	r24, 0x036B	; 0x80036b <twi_masterBufferLength>
    1926:	98 17       	cp	r25, r24
    1928:	58 f5       	brcc	.+86     	; 0x1980 <__vector_39+0x1f2>
C:\Users\DH\AppData\Local\Arduino15\packages\MegaCore\hardware\avr\2.2.0\libraries\Wire\src\TwoWire\utility/twi.c:412
        // copy data to output register and ack
        TWDR = twi_masterBuffer[twi_masterBufferIndex++];
    192a:	e0 91 6c 03 	lds	r30, 0x036C	; 0x80036c <twi_masterBufferIndex>
    192e:	81 e0       	ldi	r24, 0x01	; 1
    1930:	8e 0f       	add	r24, r30
    1932:	80 93 6c 03 	sts	0x036C, r24	; 0x80036c <twi_masterBufferIndex>
    1936:	f0 e0       	ldi	r31, 0x00	; 0
    1938:	e3 59       	subi	r30, 0x93	; 147
    193a:	fc 4f       	sbci	r31, 0xFC	; 252
    193c:	80 81       	ld	r24, Z
    193e:	e9 cf       	rjmp	.-46     	; 0x1912 <__vector_39+0x184>
C:\Users\DH\AppData\Local\Arduino15\packages\MegaCore\hardware\avr\2.2.0\libraries\Wire\src\TwoWire\utility/twi.c:443
      break;

    // Master Receiver
    case TW_MR_DATA_ACK: // data received, ack sent
      // put byte into buffer
      twi_masterBuffer[twi_masterBufferIndex++] = TWDR;
    1940:	e0 91 6c 03 	lds	r30, 0x036C	; 0x80036c <twi_masterBufferIndex>
    1944:	81 e0       	ldi	r24, 0x01	; 1
    1946:	8e 0f       	add	r24, r30
    1948:	80 93 6c 03 	sts	0x036C, r24	; 0x80036c <twi_masterBufferIndex>
    194c:	80 91 bb 00 	lds	r24, 0x00BB	; 0x8000bb <__TEXT_REGION_LENGTH__+0x7000bb>
    1950:	f0 e0       	ldi	r31, 0x00	; 0
    1952:	e3 59       	subi	r30, 0x93	; 147
    1954:	fc 4f       	sbci	r31, 0xFC	; 252
    1956:	80 83       	st	Z, r24
C:\Users\DH\AppData\Local\Arduino15\packages\MegaCore\hardware\avr\2.2.0\libraries\Wire\src\TwoWire\utility/twi.c:447
      /* fall through */
    case TW_MR_SLA_ACK:  // address sent, ack received
      // ack if more bytes are expected, otherwise nack
      if(twi_masterBufferIndex < twi_masterBufferLength){
    1958:	90 91 6c 03 	lds	r25, 0x036C	; 0x80036c <twi_masterBufferIndex>
    195c:	80 91 6b 03 	lds	r24, 0x036B	; 0x80036b <twi_masterBufferLength>
C:\Users\DH\AppData\Local\Arduino15\packages\MegaCore\hardware\avr\2.2.0\libraries\Wire\src\TwoWire\utility/twi.c:536
      /* fall through */
    case TW_ST_DATA_ACK: // byte sent, ack returned
      // copy data to output register
      TWDR = twi_txBuffer[twi_txBufferIndex++];
      // if there is more to send, ack, otherwise nack
      if(twi_txBufferIndex < twi_txBufferLength){
    1960:	98 17       	cp	r25, r24
    1962:	c8 f2       	brcs	.-78     	; 0x1916 <__vector_39+0x188>
twi_reply():
C:\Users\DH\AppData\Local\Arduino15\packages\MegaCore\hardware\avr\2.2.0\libraries\Wire\src\TwoWire\utility/twi.c:355
{
  // transmit master read ready signal, with or without ack
  if(ack){
    TWCR = _BV(TWEN) | _BV(TWIE) | _BV(TWINT) | _BV(TWEA);
  }else{
    TWCR = _BV(TWEN) | _BV(TWIE) | _BV(TWINT);
    1964:	85 e8       	ldi	r24, 0x85	; 133
    1966:	d8 cf       	rjmp	.-80     	; 0x1918 <__vector_39+0x18a>
__vector_39():
C:\Users\DH\AppData\Local\Arduino15\packages\MegaCore\hardware\avr\2.2.0\libraries\Wire\src\TwoWire\utility/twi.c:455
        twi_reply(0);
      }
      break;
    case TW_MR_DATA_NACK: // data received, nack sent
      // put final byte into buffer
      twi_masterBuffer[twi_masterBufferIndex++] = TWDR;
    1968:	e0 91 6c 03 	lds	r30, 0x036C	; 0x80036c <twi_masterBufferIndex>
    196c:	81 e0       	ldi	r24, 0x01	; 1
    196e:	8e 0f       	add	r24, r30
    1970:	80 93 6c 03 	sts	0x036C, r24	; 0x80036c <twi_masterBufferIndex>
    1974:	80 91 bb 00 	lds	r24, 0x00BB	; 0x8000bb <__TEXT_REGION_LENGTH__+0x7000bb>
    1978:	f0 e0       	ldi	r31, 0x00	; 0
    197a:	e3 59       	subi	r30, 0x93	; 147
    197c:	fc 4f       	sbci	r31, 0xFC	; 252
    197e:	80 83       	st	Z, r24
C:\Users\DH\AppData\Local\Arduino15\packages\MegaCore\hardware\avr\2.2.0\libraries\Wire\src\TwoWire\utility/twi.c:456
  if (twi_sendStop)
    1980:	80 91 92 03 	lds	r24, 0x0392	; 0x800392 <twi_sendStop>
    1984:	81 11       	cpse	r24, r1
    1986:	5c cf       	rjmp	.-328    	; 0x1840 <__vector_39+0xb2>
C:\Users\DH\AppData\Local\Arduino15\packages\MegaCore\hardware\avr\2.2.0\libraries\Wire\src\TwoWire\utility/twi.c:459
          twi_stop();
  else {
    twi_inRepStart = true;  // we're going to send the START
    1988:	81 e0       	ldi	r24, 0x01	; 1
    198a:	80 93 91 03 	sts	0x0391, r24	; 0x800391 <twi_inRepStart>
C:\Users\DH\AppData\Local\Arduino15\packages\MegaCore\hardware\avr\2.2.0\libraries\Wire\src\TwoWire\utility/twi.c:463
    // don't enable the interrupt. We'll generate the start, but we
    // avoid handling the interrupt until we're in the next transaction,
    // at the point where we would normally issue the start.
    TWCR = _BV(TWINT) | _BV(TWSTA)| _BV(TWEN) ;
    198e:	84 ea       	ldi	r24, 0xA4	; 164
twi_reply():
C:\Users\DH\AppData\Local\Arduino15\packages\MegaCore\hardware\avr\2.2.0\libraries\Wire\src\TwoWire\utility/twi.c:353
 */
void twi_reply(uint8_t ack)
{
  // transmit master read ready signal, with or without ack
  if(ack){
    TWCR = _BV(TWEN) | _BV(TWIE) | _BV(TWINT) | _BV(TWEA);
    1990:	80 93 bc 00 	sts	0x00BC, r24	; 0x8000bc <__TEXT_REGION_LENGTH__+0x7000bc>
__vector_39():
C:\Users\DH\AppData\Local\Arduino15\packages\MegaCore\hardware\avr\2.2.0\libraries\Wire\src\TwoWire\utility/twi.c:547
    case TW_ST_DATA_NACK: // received nack, we are done
    case TW_ST_LAST_DATA: // received ack, but we are done already!
      // ack future responses
      twi_reply(1);
      // leave slave receiver state
      twi_state = TWI_READY;
    1994:	10 92 94 03 	sts	0x0394, r1	; 0x800394 <twi_state>
C:\Users\DH\AppData\Local\Arduino15\packages\MegaCore\hardware\avr\2.2.0\libraries\Wire\src\TwoWire\utility/twi.c:548
      break;
    1998:	23 cf       	rjmp	.-442    	; 0x17e0 <__vector_39+0x52>
C:\Users\DH\AppData\Local\Arduino15\packages\MegaCore\hardware\avr\2.2.0\libraries\Wire\src\TwoWire\utility/twi.c:497
        twi_reply(0);
      }
      break;
    case TW_SR_STOP: // stop or repeated start condition received
      // ack future responses and leave slave receiver state
      twi_releaseBus();
    199a:	0e 94 c1 0b 	call	0x1782	; 0x1782 <twi_releaseBus>
C:\Users\DH\AppData\Local\Arduino15\packages\MegaCore\hardware\avr\2.2.0\libraries\Wire\src\TwoWire\utility/twi.c:499
      // put a null char after data if there's room
      if(twi_rxBufferIndex < TWI_BUFFER_SIZE){
    199e:	80 91 28 03 	lds	r24, 0x0328	; 0x800328 <twi_rxBufferIndex>
    19a2:	80 32       	cpi	r24, 0x20	; 32
    19a4:	30 f4       	brcc	.+12     	; 0x19b2 <__vector_39+0x224>
C:\Users\DH\AppData\Local\Arduino15\packages\MegaCore\hardware\avr\2.2.0\libraries\Wire\src\TwoWire\utility/twi.c:500
        twi_rxBuffer[twi_rxBufferIndex] = '\0';
    19a6:	e0 91 28 03 	lds	r30, 0x0328	; 0x800328 <twi_rxBufferIndex>
    19aa:	f0 e0       	ldi	r31, 0x00	; 0
    19ac:	e7 5d       	subi	r30, 0xD7	; 215
    19ae:	fc 4f       	sbci	r31, 0xFC	; 252
    19b0:	10 82       	st	Z, r1
C:\Users\DH\AppData\Local\Arduino15\packages\MegaCore\hardware\avr\2.2.0\libraries\Wire\src\TwoWire\utility/twi.c:503
      }
      // callback to user defined callback
      twi_onSlaveReceive(twi_rxBuffer, twi_rxBufferIndex);
    19b2:	60 91 28 03 	lds	r22, 0x0328	; 0x800328 <twi_rxBufferIndex>
    19b6:	70 e0       	ldi	r23, 0x00	; 0
    19b8:	e0 91 8d 03 	lds	r30, 0x038D	; 0x80038d <twi_onSlaveReceive>
    19bc:	f0 91 8e 03 	lds	r31, 0x038E	; 0x80038e <twi_onSlaveReceive+0x1>
    19c0:	89 e2       	ldi	r24, 0x29	; 41
    19c2:	93 e0       	ldi	r25, 0x03	; 3
    19c4:	19 95       	eicall
C:\Users\DH\AppData\Local\Arduino15\packages\MegaCore\hardware\avr\2.2.0\libraries\Wire\src\TwoWire\utility/twi.c:505
      // since we submit rx buffer to "wire" library, we can reset it
      twi_rxBufferIndex = 0;
    19c6:	10 92 28 03 	sts	0x0328, r1	; 0x800328 <twi_rxBufferIndex>
C:\Users\DH\AppData\Local\Arduino15\packages\MegaCore\hardware\avr\2.2.0\libraries\Wire\src\TwoWire\utility/twi.c:506
      break;
    19ca:	0a cf       	rjmp	.-492    	; 0x17e0 <__vector_39+0x52>
twi_reply():
C:\Users\DH\AppData\Local\Arduino15\packages\MegaCore\hardware\avr\2.2.0\libraries\Wire\src\TwoWire\utility/twi.c:353
 */
void twi_reply(uint8_t ack)
{
  // transmit master read ready signal, with or without ack
  if(ack){
    TWCR = _BV(TWEN) | _BV(TWIE) | _BV(TWINT) | _BV(TWEA);
    19cc:	85 ec       	ldi	r24, 0xC5	; 197
    19ce:	e0 cf       	rjmp	.-64     	; 0x1990 <__vector_39+0x202>
__vector_39():
C:\Users\DH\AppData\Local\Arduino15\packages\MegaCore\hardware\avr\2.2.0\libraries\Wire\src\TwoWire\utility/twi.c:554

    // All
    case TW_NO_INFO:   // no state information
      break;
    case TW_BUS_ERROR: // bus error, illegal stop/start
      twi_error = TW_BUS_ERROR;
    19d0:	10 92 27 03 	sts	0x0327, r1	; 0x800327 <twi_error>
    19d4:	35 cf       	rjmp	.-406    	; 0x1840 <__vector_39+0xb2>

000019d6 <I2C::pullup(unsigned char) [clone .part.1]>:
_ZN3I2C6pullupEh():
c:\Users\DH\Documents\Arduino\libraries\I2C-master/I2C.cpp:822
  return (returnStatus);
}

uint8_t I2C::read(int address, int registerAddress, int numberBytes)
{
  return (read((uint8_t)address, (uint8_t)registerAddress, (uint8_t)numberBytes));
    19d6:	58 9a       	sbi	0x0b, 0	; 11
    19d8:	59 9a       	sbi	0x0b, 1	; 11
    19da:	08 95       	ret

000019dc <I2C::begin()>:
    19dc:	0e 94 eb 0c 	call	0x19d6	; 0x19d6 <I2C::pullup(unsigned char) [clone .part.1]>
_ZN3I2C5beginEv():
    19e0:	e9 eb       	ldi	r30, 0xB9	; 185
    19e2:	f0 e0       	ldi	r31, 0x00	; 0
    19e4:	80 81       	ld	r24, Z
    19e6:	8e 7f       	andi	r24, 0xFE	; 254
    19e8:	80 83       	st	Z, r24
    19ea:	80 81       	ld	r24, Z
    19ec:	8d 7f       	andi	r24, 0xFD	; 253
    19ee:	80 83       	st	Z, r24
    19f0:	80 e2       	ldi	r24, 0x20	; 32
    19f2:	80 93 b8 00 	sts	0x00B8, r24	; 0x8000b8 <__TEXT_REGION_LENGTH__+0x7000b8>
    19f6:	84 e4       	ldi	r24, 0x44	; 68
    19f8:	80 93 bc 00 	sts	0x00BC, r24	; 0x8000bc <__TEXT_REGION_LENGTH__+0x7000bc>
    19fc:	08 95       	ret

000019fe <I2C::timeOut(unsigned int)>:
_ZN3I2C7timeOutEj():
    19fe:	70 93 b8 03 	sts	0x03B8, r23	; 0x8003b8 <I2C::timeOutDelay+0x1>
    1a02:	60 93 b7 03 	sts	0x03B7, r22	; 0x8003b7 <I2C::timeOutDelay>
    1a06:	08 95       	ret

00001a08 <I2C::pullup(unsigned char)>:
_ZN3I2C6pullupEh():
    1a08:	61 11       	cpse	r22, r1
    1a0a:	0c 94 eb 0c 	jmp	0x19d6	; 0x19d6 <I2C::pullup(unsigned char) [clone .part.1]>
    1a0e:	58 98       	cbi	0x0b, 0	; 11
    1a10:	59 98       	cbi	0x0b, 1	; 11
    1a12:	08 95       	ret

00001a14 <I2C::_start()>:
_ZN3I2C6_startEv():
    1a14:	cf 92       	push	r12
    1a16:	df 92       	push	r13
    1a18:	ef 92       	push	r14
    1a1a:	ff 92       	push	r15
    1a1c:	0e 94 3f 1b 	call	0x367e	; 0x367e <millis>
    1a20:	6b 01       	movw	r12, r22
    1a22:	7c 01       	movw	r14, r24
    1a24:	84 ea       	ldi	r24, 0xA4	; 164
    1a26:	80 93 bc 00 	sts	0x00BC, r24	; 0x8000bc <__TEXT_REGION_LENGTH__+0x7000bc>
    1a2a:	80 91 b7 03 	lds	r24, 0x03B7	; 0x8003b7 <I2C::timeOutDelay>
    1a2e:	90 91 b8 03 	lds	r25, 0x03B8	; 0x8003b8 <I2C::timeOutDelay+0x1>
    1a32:	20 91 bc 00 	lds	r18, 0x00BC	; 0x8000bc <__TEXT_REGION_LENGTH__+0x7000bc>
    1a36:	27 fd       	sbrc	r18, 7
    1a38:	20 c0       	rjmp	.+64     	; 0x1a7a <I2C::_start()+0x66>
    1a3a:	00 97       	sbiw	r24, 0x00	; 0
    1a3c:	d1 f3       	breq	.-12     	; 0x1a32 <I2C::_start()+0x1e>
    1a3e:	0e 94 3f 1b 	call	0x367e	; 0x367e <millis>
    1a42:	ab 01       	movw	r20, r22
    1a44:	bc 01       	movw	r22, r24
    1a46:	4c 19       	sub	r20, r12
    1a48:	5d 09       	sbc	r21, r13
    1a4a:	6e 09       	sbc	r22, r14
    1a4c:	7f 09       	sbc	r23, r15
    1a4e:	80 91 b7 03 	lds	r24, 0x03B7	; 0x8003b7 <I2C::timeOutDelay>
    1a52:	90 91 b8 03 	lds	r25, 0x03B8	; 0x8003b8 <I2C::timeOutDelay+0x1>
    1a56:	b0 e0       	ldi	r27, 0x00	; 0
    1a58:	a0 e0       	ldi	r26, 0x00	; 0
    1a5a:	48 17       	cp	r20, r24
    1a5c:	59 07       	cpc	r21, r25
    1a5e:	6a 07       	cpc	r22, r26
    1a60:	7b 07       	cpc	r23, r27
    1a62:	18 f3       	brcs	.-58     	; 0x1a2a <I2C::_start()+0x16>
_ZN3I2C6lockUpEv():
    1a64:	10 92 bc 00 	sts	0x00BC, r1	; 0x8000bc <__TEXT_REGION_LENGTH__+0x7000bc>
    1a68:	84 e4       	ldi	r24, 0x44	; 68
    1a6a:	80 93 bc 00 	sts	0x00BC, r24	; 0x8000bc <__TEXT_REGION_LENGTH__+0x7000bc>
_ZN3I2C6_startEv():
    1a6e:	81 e0       	ldi	r24, 0x01	; 1
    1a70:	ff 90       	pop	r15
    1a72:	ef 90       	pop	r14
    1a74:	df 90       	pop	r13
    1a76:	cf 90       	pop	r12
    1a78:	08 95       	ret
    1a7a:	80 91 b9 00 	lds	r24, 0x00B9	; 0x8000b9 <__TEXT_REGION_LENGTH__+0x7000b9>
    1a7e:	88 7f       	andi	r24, 0xF8	; 248
    1a80:	88 30       	cpi	r24, 0x08	; 8
    1a82:	b9 f0       	breq	.+46     	; 0x1ab2 <I2C::_start()+0x9e>
    1a84:	80 91 b9 00 	lds	r24, 0x00B9	; 0x8000b9 <__TEXT_REGION_LENGTH__+0x7000b9>
    1a88:	88 7f       	andi	r24, 0xF8	; 248
    1a8a:	80 31       	cpi	r24, 0x10	; 16
    1a8c:	91 f0       	breq	.+36     	; 0x1ab2 <I2C::_start()+0x9e>
    1a8e:	80 91 b9 00 	lds	r24, 0x00B9	; 0x8000b9 <__TEXT_REGION_LENGTH__+0x7000b9>
    1a92:	88 7f       	andi	r24, 0xF8	; 248
    1a94:	88 33       	cpi	r24, 0x38	; 56
    1a96:	49 f4       	brne	.+18     	; 0x1aaa <I2C::_start()+0x96>
    1a98:	80 91 b9 00 	lds	r24, 0x00B9	; 0x8000b9 <__TEXT_REGION_LENGTH__+0x7000b9>
    1a9c:	88 7f       	andi	r24, 0xF8	; 248
_ZN3I2C6lockUpEv():
    1a9e:	10 92 bc 00 	sts	0x00BC, r1	; 0x8000bc <__TEXT_REGION_LENGTH__+0x7000bc>
    1aa2:	94 e4       	ldi	r25, 0x44	; 68
    1aa4:	90 93 bc 00 	sts	0x00BC, r25	; 0x8000bc <__TEXT_REGION_LENGTH__+0x7000bc>
    1aa8:	e3 cf       	rjmp	.-58     	; 0x1a70 <I2C::_start()+0x5c>
_ZN3I2C6_startEv():
    1aaa:	80 91 b9 00 	lds	r24, 0x00B9	; 0x8000b9 <__TEXT_REGION_LENGTH__+0x7000b9>
    1aae:	88 7f       	andi	r24, 0xF8	; 248
    1ab0:	df cf       	rjmp	.-66     	; 0x1a70 <I2C::_start()+0x5c>
    1ab2:	80 e0       	ldi	r24, 0x00	; 0
    1ab4:	dd cf       	rjmp	.-70     	; 0x1a70 <I2C::_start()+0x5c>

00001ab6 <I2C::_receiveByte(unsigned char)>:
_ZN3I2C12_receiveByteEh():
    1ab6:	cf 92       	push	r12
    1ab8:	df 92       	push	r13
    1aba:	ef 92       	push	r14
    1abc:	ff 92       	push	r15
    1abe:	cf 93       	push	r28
    1ac0:	c6 2f       	mov	r28, r22
    1ac2:	0e 94 3f 1b 	call	0x367e	; 0x367e <millis>
    1ac6:	6b 01       	movw	r12, r22
    1ac8:	7c 01       	movw	r14, r24
    1aca:	84 ec       	ldi	r24, 0xC4	; 196
    1acc:	c1 11       	cpse	r28, r1
    1ace:	01 c0       	rjmp	.+2      	; 0x1ad2 <I2C::_receiveByte(unsigned char)+0x1c>
    1ad0:	84 e8       	ldi	r24, 0x84	; 132
    1ad2:	80 93 bc 00 	sts	0x00BC, r24	; 0x8000bc <__TEXT_REGION_LENGTH__+0x7000bc>
    1ad6:	80 91 b7 03 	lds	r24, 0x03B7	; 0x8003b7 <I2C::timeOutDelay>
    1ada:	90 91 b8 03 	lds	r25, 0x03B8	; 0x8003b8 <I2C::timeOutDelay+0x1>
    1ade:	20 91 bc 00 	lds	r18, 0x00BC	; 0x8000bc <__TEXT_REGION_LENGTH__+0x7000bc>
    1ae2:	27 fd       	sbrc	r18, 7
    1ae4:	21 c0       	rjmp	.+66     	; 0x1b28 <I2C::_receiveByte(unsigned char)+0x72>
    1ae6:	00 97       	sbiw	r24, 0x00	; 0
    1ae8:	d1 f3       	breq	.-12     	; 0x1ade <I2C::_receiveByte(unsigned char)+0x28>
    1aea:	0e 94 3f 1b 	call	0x367e	; 0x367e <millis>
    1aee:	ab 01       	movw	r20, r22
    1af0:	bc 01       	movw	r22, r24
    1af2:	4c 19       	sub	r20, r12
    1af4:	5d 09       	sbc	r21, r13
    1af6:	6e 09       	sbc	r22, r14
    1af8:	7f 09       	sbc	r23, r15
    1afa:	80 91 b7 03 	lds	r24, 0x03B7	; 0x8003b7 <I2C::timeOutDelay>
    1afe:	90 91 b8 03 	lds	r25, 0x03B8	; 0x8003b8 <I2C::timeOutDelay+0x1>
    1b02:	b0 e0       	ldi	r27, 0x00	; 0
    1b04:	a0 e0       	ldi	r26, 0x00	; 0
    1b06:	48 17       	cp	r20, r24
    1b08:	59 07       	cpc	r21, r25
    1b0a:	6a 07       	cpc	r22, r26
    1b0c:	7b 07       	cpc	r23, r27
    1b0e:	18 f3       	brcs	.-58     	; 0x1ad6 <I2C::_receiveByte(unsigned char)+0x20>
_ZN3I2C6lockUpEv():
    1b10:	10 92 bc 00 	sts	0x00BC, r1	; 0x8000bc <__TEXT_REGION_LENGTH__+0x7000bc>
    1b14:	84 e4       	ldi	r24, 0x44	; 68
    1b16:	80 93 bc 00 	sts	0x00BC, r24	; 0x8000bc <__TEXT_REGION_LENGTH__+0x7000bc>
_ZN3I2C12_receiveByteEh():
    1b1a:	81 e0       	ldi	r24, 0x01	; 1
    1b1c:	cf 91       	pop	r28
    1b1e:	ff 90       	pop	r15
    1b20:	ef 90       	pop	r14
    1b22:	df 90       	pop	r13
    1b24:	cf 90       	pop	r12
    1b26:	08 95       	ret
    1b28:	80 91 b9 00 	lds	r24, 0x00B9	; 0x8000b9 <__TEXT_REGION_LENGTH__+0x7000b9>
    1b2c:	88 7f       	andi	r24, 0xF8	; 248
    1b2e:	88 33       	cpi	r24, 0x38	; 56
    1b30:	49 f4       	brne	.+18     	; 0x1b44 <I2C::_receiveByte(unsigned char)+0x8e>
    1b32:	80 91 b9 00 	lds	r24, 0x00B9	; 0x8000b9 <__TEXT_REGION_LENGTH__+0x7000b9>
    1b36:	88 7f       	andi	r24, 0xF8	; 248
_ZN3I2C6lockUpEv():
    1b38:	10 92 bc 00 	sts	0x00BC, r1	; 0x8000bc <__TEXT_REGION_LENGTH__+0x7000bc>
    1b3c:	94 e4       	ldi	r25, 0x44	; 68
    1b3e:	90 93 bc 00 	sts	0x00BC, r25	; 0x8000bc <__TEXT_REGION_LENGTH__+0x7000bc>
    1b42:	ec cf       	rjmp	.-40     	; 0x1b1c <I2C::_receiveByte(unsigned char)+0x66>
_ZN3I2C12_receiveByteEh():
    1b44:	80 91 b9 00 	lds	r24, 0x00B9	; 0x8000b9 <__TEXT_REGION_LENGTH__+0x7000b9>
    1b48:	88 7f       	andi	r24, 0xF8	; 248
    1b4a:	e8 cf       	rjmp	.-48     	; 0x1b1c <I2C::_receiveByte(unsigned char)+0x66>

00001b4c <I2C::_stop()>:
_ZN3I2C5_stopEv():
    1b4c:	cf 92       	push	r12
    1b4e:	df 92       	push	r13
    1b50:	ef 92       	push	r14
    1b52:	ff 92       	push	r15
    1b54:	0e 94 3f 1b 	call	0x367e	; 0x367e <millis>
    1b58:	6b 01       	movw	r12, r22
    1b5a:	7c 01       	movw	r14, r24
    1b5c:	84 e9       	ldi	r24, 0x94	; 148
    1b5e:	80 93 bc 00 	sts	0x00BC, r24	; 0x8000bc <__TEXT_REGION_LENGTH__+0x7000bc>
    1b62:	80 91 b7 03 	lds	r24, 0x03B7	; 0x8003b7 <I2C::timeOutDelay>
    1b66:	90 91 b8 03 	lds	r25, 0x03B8	; 0x8003b8 <I2C::timeOutDelay+0x1>
    1b6a:	20 91 bc 00 	lds	r18, 0x00BC	; 0x8000bc <__TEXT_REGION_LENGTH__+0x7000bc>
    1b6e:	24 ff       	sbrs	r18, 4
    1b70:	20 c0       	rjmp	.+64     	; 0x1bb2 <I2C::_stop()+0x66>
    1b72:	00 97       	sbiw	r24, 0x00	; 0
    1b74:	d1 f3       	breq	.-12     	; 0x1b6a <I2C::_stop()+0x1e>
    1b76:	0e 94 3f 1b 	call	0x367e	; 0x367e <millis>
    1b7a:	ab 01       	movw	r20, r22
    1b7c:	bc 01       	movw	r22, r24
    1b7e:	4c 19       	sub	r20, r12
    1b80:	5d 09       	sbc	r21, r13
    1b82:	6e 09       	sbc	r22, r14
    1b84:	7f 09       	sbc	r23, r15
    1b86:	80 91 b7 03 	lds	r24, 0x03B7	; 0x8003b7 <I2C::timeOutDelay>
    1b8a:	90 91 b8 03 	lds	r25, 0x03B8	; 0x8003b8 <I2C::timeOutDelay+0x1>
    1b8e:	b0 e0       	ldi	r27, 0x00	; 0
    1b90:	a0 e0       	ldi	r26, 0x00	; 0
    1b92:	48 17       	cp	r20, r24
    1b94:	59 07       	cpc	r21, r25
    1b96:	6a 07       	cpc	r22, r26
    1b98:	7b 07       	cpc	r23, r27
    1b9a:	18 f3       	brcs	.-58     	; 0x1b62 <I2C::_stop()+0x16>
_ZN3I2C6lockUpEv():
    1b9c:	10 92 bc 00 	sts	0x00BC, r1	; 0x8000bc <__TEXT_REGION_LENGTH__+0x7000bc>
    1ba0:	84 e4       	ldi	r24, 0x44	; 68
    1ba2:	80 93 bc 00 	sts	0x00BC, r24	; 0x8000bc <__TEXT_REGION_LENGTH__+0x7000bc>
_ZN3I2C5_stopEv():
    1ba6:	81 e0       	ldi	r24, 0x01	; 1
    1ba8:	ff 90       	pop	r15
    1baa:	ef 90       	pop	r14
    1bac:	df 90       	pop	r13
    1bae:	cf 90       	pop	r12
    1bb0:	08 95       	ret
    1bb2:	80 e0       	ldi	r24, 0x00	; 0
    1bb4:	f9 cf       	rjmp	.-14     	; 0x1ba8 <I2C::_stop()+0x5c>

00001bb6 <I2C::_sendAddress(unsigned char)>:
_ZN3I2C12_sendAddressEh():
    1bb6:	cf 92       	push	r12
    1bb8:	df 92       	push	r13
    1bba:	ef 92       	push	r14
    1bbc:	ff 92       	push	r15
    1bbe:	0f 93       	push	r16
    1bc0:	1f 93       	push	r17
    1bc2:	cf 93       	push	r28
    1bc4:	8c 01       	movw	r16, r24
    1bc6:	60 93 bb 00 	sts	0x00BB, r22	; 0x8000bb <__TEXT_REGION_LENGTH__+0x7000bb>
    1bca:	0e 94 3f 1b 	call	0x367e	; 0x367e <millis>
    1bce:	6b 01       	movw	r12, r22
    1bd0:	7c 01       	movw	r14, r24
    1bd2:	84 e8       	ldi	r24, 0x84	; 132
    1bd4:	80 93 bc 00 	sts	0x00BC, r24	; 0x8000bc <__TEXT_REGION_LENGTH__+0x7000bc>
    1bd8:	80 91 b7 03 	lds	r24, 0x03B7	; 0x8003b7 <I2C::timeOutDelay>
    1bdc:	90 91 b8 03 	lds	r25, 0x03B8	; 0x8003b8 <I2C::timeOutDelay+0x1>
    1be0:	20 91 bc 00 	lds	r18, 0x00BC	; 0x8000bc <__TEXT_REGION_LENGTH__+0x7000bc>
    1be4:	27 fd       	sbrc	r18, 7
    1be6:	24 c0       	rjmp	.+72     	; 0x1c30 <I2C::_sendAddress(unsigned char)+0x7a>
    1be8:	00 97       	sbiw	r24, 0x00	; 0
    1bea:	d1 f3       	breq	.-12     	; 0x1be0 <I2C::_sendAddress(unsigned char)+0x2a>
    1bec:	0e 94 3f 1b 	call	0x367e	; 0x367e <millis>
    1bf0:	ab 01       	movw	r20, r22
    1bf2:	bc 01       	movw	r22, r24
    1bf4:	4c 19       	sub	r20, r12
    1bf6:	5d 09       	sbc	r21, r13
    1bf8:	6e 09       	sbc	r22, r14
    1bfa:	7f 09       	sbc	r23, r15
    1bfc:	80 91 b7 03 	lds	r24, 0x03B7	; 0x8003b7 <I2C::timeOutDelay>
    1c00:	90 91 b8 03 	lds	r25, 0x03B8	; 0x8003b8 <I2C::timeOutDelay+0x1>
    1c04:	b0 e0       	ldi	r27, 0x00	; 0
    1c06:	a0 e0       	ldi	r26, 0x00	; 0
    1c08:	48 17       	cp	r20, r24
    1c0a:	59 07       	cpc	r21, r25
    1c0c:	6a 07       	cpc	r22, r26
    1c0e:	7b 07       	cpc	r23, r27
    1c10:	18 f3       	brcs	.-58     	; 0x1bd8 <I2C::_sendAddress(unsigned char)+0x22>
_ZN3I2C6lockUpEv():
    1c12:	10 92 bc 00 	sts	0x00BC, r1	; 0x8000bc <__TEXT_REGION_LENGTH__+0x7000bc>
    1c16:	84 e4       	ldi	r24, 0x44	; 68
    1c18:	80 93 bc 00 	sts	0x00BC, r24	; 0x8000bc <__TEXT_REGION_LENGTH__+0x7000bc>
_ZN3I2C12_sendAddressEh():
    1c1c:	c1 e0       	ldi	r28, 0x01	; 1
    1c1e:	8c 2f       	mov	r24, r28
    1c20:	cf 91       	pop	r28
    1c22:	1f 91       	pop	r17
    1c24:	0f 91       	pop	r16
    1c26:	ff 90       	pop	r15
    1c28:	ef 90       	pop	r14
    1c2a:	df 90       	pop	r13
    1c2c:	cf 90       	pop	r12
    1c2e:	08 95       	ret
    1c30:	80 91 b9 00 	lds	r24, 0x00B9	; 0x8000b9 <__TEXT_REGION_LENGTH__+0x7000b9>
    1c34:	88 7f       	andi	r24, 0xF8	; 248
    1c36:	88 31       	cpi	r24, 0x18	; 24
    1c38:	e1 f0       	breq	.+56     	; 0x1c72 <I2C::_sendAddress(unsigned char)+0xbc>
    1c3a:	80 91 b9 00 	lds	r24, 0x00B9	; 0x8000b9 <__TEXT_REGION_LENGTH__+0x7000b9>
    1c3e:	88 7f       	andi	r24, 0xF8	; 248
    1c40:	80 34       	cpi	r24, 0x40	; 64
    1c42:	b9 f0       	breq	.+46     	; 0x1c72 <I2C::_sendAddress(unsigned char)+0xbc>
    1c44:	c0 91 b9 00 	lds	r28, 0x00B9	; 0x8000b9 <__TEXT_REGION_LENGTH__+0x7000b9>
    1c48:	c8 7f       	andi	r28, 0xF8	; 248
    1c4a:	80 91 b9 00 	lds	r24, 0x00B9	; 0x8000b9 <__TEXT_REGION_LENGTH__+0x7000b9>
    1c4e:	88 7f       	andi	r24, 0xF8	; 248
    1c50:	80 32       	cpi	r24, 0x20	; 32
    1c52:	59 f0       	breq	.+22     	; 0x1c6a <I2C::_sendAddress(unsigned char)+0xb4>
    1c54:	80 91 b9 00 	lds	r24, 0x00B9	; 0x8000b9 <__TEXT_REGION_LENGTH__+0x7000b9>
    1c58:	88 7f       	andi	r24, 0xF8	; 248
    1c5a:	88 34       	cpi	r24, 0x48	; 72
    1c5c:	31 f0       	breq	.+12     	; 0x1c6a <I2C::_sendAddress(unsigned char)+0xb4>
_ZN3I2C6lockUpEv():
    1c5e:	10 92 bc 00 	sts	0x00BC, r1	; 0x8000bc <__TEXT_REGION_LENGTH__+0x7000bc>
    1c62:	84 e4       	ldi	r24, 0x44	; 68
    1c64:	80 93 bc 00 	sts	0x00BC, r24	; 0x8000bc <__TEXT_REGION_LENGTH__+0x7000bc>
    1c68:	da cf       	rjmp	.-76     	; 0x1c1e <I2C::_sendAddress(unsigned char)+0x68>
_ZN3I2C12_sendAddressEh():
    1c6a:	c8 01       	movw	r24, r16
    1c6c:	0e 94 a6 0d 	call	0x1b4c	; 0x1b4c <I2C::_stop()>
    1c70:	d6 cf       	rjmp	.-84     	; 0x1c1e <I2C::_sendAddress(unsigned char)+0x68>
    1c72:	c0 e0       	ldi	r28, 0x00	; 0
    1c74:	d4 cf       	rjmp	.-88     	; 0x1c1e <I2C::_sendAddress(unsigned char)+0x68>

00001c76 <I2C::_sendByte(unsigned char)>:
_ZN3I2C9_sendByteEh():
    1c76:	cf 92       	push	r12
    1c78:	df 92       	push	r13
    1c7a:	ef 92       	push	r14
    1c7c:	ff 92       	push	r15
    1c7e:	0f 93       	push	r16
    1c80:	1f 93       	push	r17
    1c82:	cf 93       	push	r28
    1c84:	8c 01       	movw	r16, r24
    1c86:	60 93 bb 00 	sts	0x00BB, r22	; 0x8000bb <__TEXT_REGION_LENGTH__+0x7000bb>
    1c8a:	0e 94 3f 1b 	call	0x367e	; 0x367e <millis>
    1c8e:	6b 01       	movw	r12, r22
    1c90:	7c 01       	movw	r14, r24
    1c92:	84 e8       	ldi	r24, 0x84	; 132
    1c94:	80 93 bc 00 	sts	0x00BC, r24	; 0x8000bc <__TEXT_REGION_LENGTH__+0x7000bc>
    1c98:	80 91 b7 03 	lds	r24, 0x03B7	; 0x8003b7 <I2C::timeOutDelay>
    1c9c:	90 91 b8 03 	lds	r25, 0x03B8	; 0x8003b8 <I2C::timeOutDelay+0x1>
    1ca0:	20 91 bc 00 	lds	r18, 0x00BC	; 0x8000bc <__TEXT_REGION_LENGTH__+0x7000bc>
    1ca4:	27 fd       	sbrc	r18, 7
    1ca6:	24 c0       	rjmp	.+72     	; 0x1cf0 <I2C::_sendByte(unsigned char)+0x7a>
    1ca8:	00 97       	sbiw	r24, 0x00	; 0
    1caa:	d1 f3       	breq	.-12     	; 0x1ca0 <I2C::_sendByte(unsigned char)+0x2a>
    1cac:	0e 94 3f 1b 	call	0x367e	; 0x367e <millis>
    1cb0:	ab 01       	movw	r20, r22
    1cb2:	bc 01       	movw	r22, r24
    1cb4:	4c 19       	sub	r20, r12
    1cb6:	5d 09       	sbc	r21, r13
    1cb8:	6e 09       	sbc	r22, r14
    1cba:	7f 09       	sbc	r23, r15
    1cbc:	80 91 b7 03 	lds	r24, 0x03B7	; 0x8003b7 <I2C::timeOutDelay>
    1cc0:	90 91 b8 03 	lds	r25, 0x03B8	; 0x8003b8 <I2C::timeOutDelay+0x1>
    1cc4:	b0 e0       	ldi	r27, 0x00	; 0
    1cc6:	a0 e0       	ldi	r26, 0x00	; 0
    1cc8:	48 17       	cp	r20, r24
    1cca:	59 07       	cpc	r21, r25
    1ccc:	6a 07       	cpc	r22, r26
    1cce:	7b 07       	cpc	r23, r27
    1cd0:	18 f3       	brcs	.-58     	; 0x1c98 <I2C::_sendByte(unsigned char)+0x22>
_ZN3I2C6lockUpEv():
    1cd2:	10 92 bc 00 	sts	0x00BC, r1	; 0x8000bc <__TEXT_REGION_LENGTH__+0x7000bc>
    1cd6:	84 e4       	ldi	r24, 0x44	; 68
    1cd8:	80 93 bc 00 	sts	0x00BC, r24	; 0x8000bc <__TEXT_REGION_LENGTH__+0x7000bc>
_ZN3I2C9_sendByteEh():
    1cdc:	c1 e0       	ldi	r28, 0x01	; 1
    1cde:	8c 2f       	mov	r24, r28
    1ce0:	cf 91       	pop	r28
    1ce2:	1f 91       	pop	r17
    1ce4:	0f 91       	pop	r16
    1ce6:	ff 90       	pop	r15
    1ce8:	ef 90       	pop	r14
    1cea:	df 90       	pop	r13
    1cec:	cf 90       	pop	r12
    1cee:	08 95       	ret
    1cf0:	80 91 b9 00 	lds	r24, 0x00B9	; 0x8000b9 <__TEXT_REGION_LENGTH__+0x7000b9>
    1cf4:	88 7f       	andi	r24, 0xF8	; 248
    1cf6:	c0 e0       	ldi	r28, 0x00	; 0
    1cf8:	88 32       	cpi	r24, 0x28	; 40
    1cfa:	89 f3       	breq	.-30     	; 0x1cde <I2C::_sendByte(unsigned char)+0x68>
    1cfc:	c0 91 b9 00 	lds	r28, 0x00B9	; 0x8000b9 <__TEXT_REGION_LENGTH__+0x7000b9>
    1d00:	c8 7f       	andi	r28, 0xF8	; 248
    1d02:	80 91 b9 00 	lds	r24, 0x00B9	; 0x8000b9 <__TEXT_REGION_LENGTH__+0x7000b9>
    1d06:	88 7f       	andi	r24, 0xF8	; 248
    1d08:	80 33       	cpi	r24, 0x30	; 48
    1d0a:	21 f4       	brne	.+8      	; 0x1d14 <I2C::_sendByte(unsigned char)+0x9e>
    1d0c:	c8 01       	movw	r24, r16
    1d0e:	0e 94 a6 0d 	call	0x1b4c	; 0x1b4c <I2C::_stop()>
    1d12:	e5 cf       	rjmp	.-54     	; 0x1cde <I2C::_sendByte(unsigned char)+0x68>
_ZN3I2C6lockUpEv():
    1d14:	10 92 bc 00 	sts	0x00BC, r1	; 0x8000bc <__TEXT_REGION_LENGTH__+0x7000bc>
    1d18:	84 e4       	ldi	r24, 0x44	; 68
    1d1a:	80 93 bc 00 	sts	0x00BC, r24	; 0x8000bc <__TEXT_REGION_LENGTH__+0x7000bc>
    1d1e:	df cf       	rjmp	.-66     	; 0x1cde <I2C::_sendByte(unsigned char)+0x68>

00001d20 <I2C::write(unsigned char, unsigned char, unsigned char)>:
_ZN3I2C5writeEhhh():
    1d20:	ff 92       	push	r15
    1d22:	0f 93       	push	r16
    1d24:	1f 93       	push	r17
    1d26:	cf 93       	push	r28
    1d28:	df 93       	push	r29
    1d2a:	ec 01       	movw	r28, r24
    1d2c:	16 2f       	mov	r17, r22
    1d2e:	f4 2e       	mov	r15, r20
    1d30:	02 2f       	mov	r16, r18
    1d32:	18 82       	st	Y, r1
    1d34:	0e 94 0a 0d 	call	0x1a14	; 0x1a14 <I2C::_start()>
    1d38:	88 83       	st	Y, r24
    1d3a:	81 11       	cpse	r24, r1
    1d3c:	16 c0       	rjmp	.+44     	; 0x1d6a <I2C::write(unsigned char, unsigned char, unsigned char)+0x4a>
    1d3e:	61 2f       	mov	r22, r17
    1d40:	66 0f       	add	r22, r22
    1d42:	ce 01       	movw	r24, r28
    1d44:	0e 94 db 0d 	call	0x1bb6	; 0x1bb6 <I2C::_sendAddress(unsigned char)>
    1d48:	88 83       	st	Y, r24
    1d4a:	88 23       	and	r24, r24
    1d4c:	21 f0       	breq	.+8      	; 0x1d56 <I2C::write(unsigned char, unsigned char, unsigned char)+0x36>
    1d4e:	81 30       	cpi	r24, 0x01	; 1
    1d50:	61 f4       	brne	.+24     	; 0x1d6a <I2C::write(unsigned char, unsigned char, unsigned char)+0x4a>
    1d52:	82 e0       	ldi	r24, 0x02	; 2
    1d54:	0a c0       	rjmp	.+20     	; 0x1d6a <I2C::write(unsigned char, unsigned char, unsigned char)+0x4a>
    1d56:	6f 2d       	mov	r22, r15
    1d58:	ce 01       	movw	r24, r28
    1d5a:	0e 94 3b 0e 	call	0x1c76	; 0x1c76 <I2C::_sendByte(unsigned char)>
    1d5e:	88 83       	st	Y, r24
    1d60:	88 23       	and	r24, r24
    1d62:	49 f0       	breq	.+18     	; 0x1d76 <I2C::write(unsigned char, unsigned char, unsigned char)+0x56>
    1d64:	81 30       	cpi	r24, 0x01	; 1
    1d66:	09 f4       	brne	.+2      	; 0x1d6a <I2C::write(unsigned char, unsigned char, unsigned char)+0x4a>
    1d68:	83 e0       	ldi	r24, 0x03	; 3
    1d6a:	df 91       	pop	r29
    1d6c:	cf 91       	pop	r28
    1d6e:	1f 91       	pop	r17
    1d70:	0f 91       	pop	r16
    1d72:	ff 90       	pop	r15
    1d74:	08 95       	ret
    1d76:	60 2f       	mov	r22, r16
    1d78:	ce 01       	movw	r24, r28
    1d7a:	0e 94 3b 0e 	call	0x1c76	; 0x1c76 <I2C::_sendByte(unsigned char)>
    1d7e:	88 83       	st	Y, r24
    1d80:	81 11       	cpse	r24, r1
    1d82:	f0 cf       	rjmp	.-32     	; 0x1d64 <I2C::write(unsigned char, unsigned char, unsigned char)+0x44>
    1d84:	ce 01       	movw	r24, r28
    1d86:	0e 94 a6 0d 	call	0x1b4c	; 0x1b4c <I2C::_stop()>
    1d8a:	88 83       	st	Y, r24
    1d8c:	88 23       	and	r24, r24
    1d8e:	69 f3       	breq	.-38     	; 0x1d6a <I2C::write(unsigned char, unsigned char, unsigned char)+0x4a>
    1d90:	81 30       	cpi	r24, 0x01	; 1
    1d92:	59 f7       	brne	.-42     	; 0x1d6a <I2C::write(unsigned char, unsigned char, unsigned char)+0x4a>
    1d94:	87 e0       	ldi	r24, 0x07	; 7
    1d96:	e9 cf       	rjmp	.-46     	; 0x1d6a <I2C::write(unsigned char, unsigned char, unsigned char)+0x4a>

00001d98 <I2C::write(int, int, int)>:
_ZN3I2C5writeEiii():
    1d98:	0c 94 90 0e 	jmp	0x1d20	; 0x1d20 <I2C::write(unsigned char, unsigned char, unsigned char)>

00001d9c <I2C::read(unsigned char, unsigned char, unsigned char, unsigned char*)>:
_ZN3I2C4readEhhhPh():
c:\Users\DH\Documents\Arduino\libraries\I2C-master/I2C.cpp:1017
 *          NOTE: Unlike the Wire library the read operation will not return the
 *          number of bytes read, instead it will return the error code which
 *          can be used for debugging.
 */
uint8_t I2C::read(uint8_t address, uint8_t registerAddress, uint8_t numberBytes, uint8_t *dataBuffer)
{
    1d9c:	df 92       	push	r13
    1d9e:	ef 92       	push	r14
    1da0:	ff 92       	push	r15
    1da2:	0f 93       	push	r16
    1da4:	1f 93       	push	r17
    1da6:	cf 93       	push	r28
    1da8:	df 93       	push	r29
    1daa:	ec 01       	movw	r28, r24
    1dac:	f6 2e       	mov	r15, r22
    1dae:	e4 2e       	mov	r14, r20
    1db0:	d2 2e       	mov	r13, r18
c:\Users\DH\Documents\Arduino\libraries\I2C-master/I2C.cpp:1018
  bytesAvailable = 0;
    1db2:	10 92 bb 03 	sts	0x03BB, r1	; 0x8003bb <I2C::bytesAvailable>
c:\Users\DH\Documents\Arduino\libraries\I2C-master/I2C.cpp:1019
  bufferIndex = 0;
    1db6:	10 92 ba 03 	sts	0x03BA, r1	; 0x8003ba <I2C::bufferIndex>
c:\Users\DH\Documents\Arduino\libraries\I2C-master/I2C.cpp:1020
  if (numberBytes == 0)
    1dba:	21 11       	cpse	r18, r1
    1dbc:	02 c0       	rjmp	.+4      	; 0x1dc2 <I2C::read(unsigned char, unsigned char, unsigned char, unsigned char*)+0x26>
c:\Users\DH\Documents\Arduino\libraries\I2C-master/I2C.cpp:1022
  {
    numberBytes++;
    1dbe:	dd 24       	eor	r13, r13
    1dc0:	d3 94       	inc	r13
c:\Users\DH\Documents\Arduino\libraries\I2C-master/I2C.cpp:1024
  }
  nack = numberBytes - 1;
    1dc2:	8f ef       	ldi	r24, 0xFF	; 255
    1dc4:	8d 0d       	add	r24, r13
    1dc6:	89 83       	std	Y+1, r24	; 0x01
c:\Users\DH\Documents\Arduino\libraries\I2C-master/I2C.cpp:1025
  returnStatus = 0;
    1dc8:	18 82       	st	Y, r1
c:\Users\DH\Documents\Arduino\libraries\I2C-master/I2C.cpp:1026
  returnStatus = _start();
    1dca:	ce 01       	movw	r24, r28
    1dcc:	0e 94 0a 0d 	call	0x1a14	; 0x1a14 <I2C::_start()>
    1dd0:	88 83       	st	Y, r24
c:\Users\DH\Documents\Arduino\libraries\I2C-master/I2C.cpp:1027
  if (returnStatus)
    1dd2:	81 11       	cpse	r24, r1
    1dd4:	3a c0       	rjmp	.+116    	; 0x1e4a <I2C::read(unsigned char, unsigned char, unsigned char, unsigned char*)+0xae>
c:\Users\DH\Documents\Arduino\libraries\I2C-master/I2C.cpp:1031
  {
    return (returnStatus);
  }
  returnStatus = _sendAddress(SLA_W(address));
    1dd6:	ff 0c       	add	r15, r15
    1dd8:	6f 2d       	mov	r22, r15
    1dda:	ce 01       	movw	r24, r28
    1ddc:	0e 94 db 0d 	call	0x1bb6	; 0x1bb6 <I2C::_sendAddress(unsigned char)>
    1de0:	88 83       	st	Y, r24
c:\Users\DH\Documents\Arduino\libraries\I2C-master/I2C.cpp:1032
  if (returnStatus)
    1de2:	88 23       	and	r24, r24
    1de4:	21 f0       	breq	.+8      	; 0x1dee <I2C::read(unsigned char, unsigned char, unsigned char, unsigned char*)+0x52>
c:\Users\DH\Documents\Arduino\libraries\I2C-master/I2C.cpp:1034
  {
    if (returnStatus == 1)
    1de6:	81 30       	cpi	r24, 0x01	; 1
    1de8:	81 f5       	brne	.+96     	; 0x1e4a <I2C::read(unsigned char, unsigned char, unsigned char, unsigned char*)+0xae>
c:\Users\DH\Documents\Arduino\libraries\I2C-master/I2C.cpp:1036
    {
      return (2);
    1dea:	82 e0       	ldi	r24, 0x02	; 2
    1dec:	2e c0       	rjmp	.+92     	; 0x1e4a <I2C::read(unsigned char, unsigned char, unsigned char, unsigned char*)+0xae>
c:\Users\DH\Documents\Arduino\libraries\I2C-master/I2C.cpp:1040
    }
    return (returnStatus);
  }
  returnStatus = _sendByte(registerAddress);
    1dee:	6e 2d       	mov	r22, r14
    1df0:	ce 01       	movw	r24, r28
    1df2:	0e 94 3b 0e 	call	0x1c76	; 0x1c76 <I2C::_sendByte(unsigned char)>
    1df6:	88 83       	st	Y, r24
c:\Users\DH\Documents\Arduino\libraries\I2C-master/I2C.cpp:1041
  if (returnStatus)
    1df8:	88 23       	and	r24, r24
    1dfa:	21 f0       	breq	.+8      	; 0x1e04 <I2C::read(unsigned char, unsigned char, unsigned char, unsigned char*)+0x68>
c:\Users\DH\Documents\Arduino\libraries\I2C-master/I2C.cpp:1043
  {
    if (returnStatus == 1)
    1dfc:	81 30       	cpi	r24, 0x01	; 1
    1dfe:	29 f5       	brne	.+74     	; 0x1e4a <I2C::read(unsigned char, unsigned char, unsigned char, unsigned char*)+0xae>
c:\Users\DH\Documents\Arduino\libraries\I2C-master/I2C.cpp:1045
    {
      return (3);
    1e00:	83 e0       	ldi	r24, 0x03	; 3
    1e02:	23 c0       	rjmp	.+70     	; 0x1e4a <I2C::read(unsigned char, unsigned char, unsigned char, unsigned char*)+0xae>
c:\Users\DH\Documents\Arduino\libraries\I2C-master/I2C.cpp:1049
    }
    return (returnStatus);
  }
  returnStatus = _start();
    1e04:	ce 01       	movw	r24, r28
    1e06:	0e 94 0a 0d 	call	0x1a14	; 0x1a14 <I2C::_start()>
    1e0a:	88 83       	st	Y, r24
c:\Users\DH\Documents\Arduino\libraries\I2C-master/I2C.cpp:1050
  if (returnStatus)
    1e0c:	88 23       	and	r24, r24
    1e0e:	21 f0       	breq	.+8      	; 0x1e18 <I2C::read(unsigned char, unsigned char, unsigned char, unsigned char*)+0x7c>
c:\Users\DH\Documents\Arduino\libraries\I2C-master/I2C.cpp:1052
  {
    if (returnStatus == 1)
    1e10:	81 30       	cpi	r24, 0x01	; 1
    1e12:	d9 f4       	brne	.+54     	; 0x1e4a <I2C::read(unsigned char, unsigned char, unsigned char, unsigned char*)+0xae>
c:\Users\DH\Documents\Arduino\libraries\I2C-master/I2C.cpp:1054
    {
      return (4);
    1e14:	84 e0       	ldi	r24, 0x04	; 4
    1e16:	19 c0       	rjmp	.+50     	; 0x1e4a <I2C::read(unsigned char, unsigned char, unsigned char, unsigned char*)+0xae>
c:\Users\DH\Documents\Arduino\libraries\I2C-master/I2C.cpp:1058
    }
    return (returnStatus);
  }
  returnStatus = _sendAddress(SLA_R(address));
    1e18:	61 e0       	ldi	r22, 0x01	; 1
    1e1a:	6f 0d       	add	r22, r15
    1e1c:	ce 01       	movw	r24, r28
    1e1e:	0e 94 db 0d 	call	0x1bb6	; 0x1bb6 <I2C::_sendAddress(unsigned char)>
    1e22:	88 83       	st	Y, r24
    1e24:	78 01       	movw	r14, r16
c:\Users\DH\Documents\Arduino\libraries\I2C-master/I2C.cpp:1067
    {
      return (5);
    }
    return (returnStatus);
  }
  for (uint8_t i = 0; i < numberBytes; i++)
    1e26:	10 e0       	ldi	r17, 0x00	; 0
c:\Users\DH\Documents\Arduino\libraries\I2C-master/I2C.cpp:1059
      return (4);
    }
    return (returnStatus);
  }
  returnStatus = _sendAddress(SLA_R(address));
  if (returnStatus)
    1e28:	88 23       	and	r24, r24
    1e2a:	21 f0       	breq	.+8      	; 0x1e34 <I2C::read(unsigned char, unsigned char, unsigned char, unsigned char*)+0x98>
c:\Users\DH\Documents\Arduino\libraries\I2C-master/I2C.cpp:1061
  {
    if (returnStatus == 1)
    1e2c:	81 30       	cpi	r24, 0x01	; 1
    1e2e:	69 f4       	brne	.+26     	; 0x1e4a <I2C::read(unsigned char, unsigned char, unsigned char, unsigned char*)+0xae>
c:\Users\DH\Documents\Arduino\libraries\I2C-master/I2C.cpp:1063
    {
      return (5);
    1e30:	85 e0       	ldi	r24, 0x05	; 5
    1e32:	0b c0       	rjmp	.+22     	; 0x1e4a <I2C::read(unsigned char, unsigned char, unsigned char, unsigned char*)+0xae>
c:\Users\DH\Documents\Arduino\libraries\I2C-master/I2C.cpp:1069
    }
    return (returnStatus);
  }
  for (uint8_t i = 0; i < numberBytes; i++)
  {
    if (i == nack)
    1e34:	89 81       	ldd	r24, Y+1	; 0x01
    1e36:	81 13       	cpse	r24, r17
    1e38:	28 c0       	rjmp	.+80     	; 0x1e8a <I2C::read(unsigned char, unsigned char, unsigned char, unsigned char*)+0xee>
c:\Users\DH\Documents\Arduino\libraries\I2C-master/I2C.cpp:1071
    {
      returnStatus = _receiveByte(0);
    1e3a:	60 e0       	ldi	r22, 0x00	; 0
    1e3c:	ce 01       	movw	r24, r28
    1e3e:	0e 94 5b 0d 	call	0x1ab6	; 0x1ab6 <I2C::_receiveByte(unsigned char)>
    1e42:	88 83       	st	Y, r24
c:\Users\DH\Documents\Arduino\libraries\I2C-master/I2C.cpp:1072
      if (returnStatus == 1)
    1e44:	81 30       	cpi	r24, 0x01	; 1
    1e46:	49 f4       	brne	.+18     	; 0x1e5a <I2C::read(unsigned char, unsigned char, unsigned char, unsigned char*)+0xbe>
c:\Users\DH\Documents\Arduino\libraries\I2C-master/I2C.cpp:1074
      {
        return (6);
    1e48:	86 e0       	ldi	r24, 0x06	; 6
c:\Users\DH\Documents\Arduino\libraries\I2C-master/I2C.cpp:1107
      return (7);
    }
    return (returnStatus);
  }
  return (returnStatus);
}
    1e4a:	df 91       	pop	r29
    1e4c:	cf 91       	pop	r28
    1e4e:	1f 91       	pop	r17
    1e50:	0f 91       	pop	r16
    1e52:	ff 90       	pop	r15
    1e54:	ef 90       	pop	r14
    1e56:	df 90       	pop	r13
    1e58:	08 95       	ret
c:\Users\DH\Documents\Arduino\libraries\I2C-master/I2C.cpp:1076
      returnStatus = _receiveByte(0);
      if (returnStatus == 1)
      {
        return (6);
      }
      if (returnStatus != MR_DATA_NACK)
    1e5a:	88 35       	cpi	r24, 0x58	; 88
    1e5c:	b1 f7       	brne	.-20     	; 0x1e4a <I2C::read(unsigned char, unsigned char, unsigned char, unsigned char*)+0xae>
c:\Users\DH\Documents\Arduino\libraries\I2C-master/I2C.cpp:1093
      if (returnStatus != MR_DATA_ACK)
      {
        return (returnStatus);
      }
    }
    dataBuffer[i] = TWDR;
    1e5e:	80 91 bb 00 	lds	r24, 0x00BB	; 0x8000bb <__TEXT_REGION_LENGTH__+0x7000bb>
    1e62:	f7 01       	movw	r30, r14
    1e64:	81 93       	st	Z+, r24
    1e66:	7f 01       	movw	r14, r30
c:\Users\DH\Documents\Arduino\libraries\I2C-master/I2C.cpp:1094
    bytesAvailable = i + 1;
    1e68:	1f 5f       	subi	r17, 0xFF	; 255
    1e6a:	10 93 bb 03 	sts	0x03BB, r17	; 0x8003bb <I2C::bytesAvailable>
c:\Users\DH\Documents\Arduino\libraries\I2C-master/I2C.cpp:1095
    totalBytes = i + 1;
    1e6e:	10 93 b9 03 	sts	0x03B9, r17	; 0x8003b9 <I2C::totalBytes>
c:\Users\DH\Documents\Arduino\libraries\I2C-master/I2C.cpp:1067
    {
      return (5);
    }
    return (returnStatus);
  }
  for (uint8_t i = 0; i < numberBytes; i++)
    1e72:	1d 11       	cpse	r17, r13
    1e74:	df cf       	rjmp	.-66     	; 0x1e34 <I2C::read(unsigned char, unsigned char, unsigned char, unsigned char*)+0x98>
c:\Users\DH\Documents\Arduino\libraries\I2C-master/I2C.cpp:1097
    }
    dataBuffer[i] = TWDR;
    bytesAvailable = i + 1;
    totalBytes = i + 1;
  }
  returnStatus = _stop();
    1e76:	ce 01       	movw	r24, r28
    1e78:	0e 94 a6 0d 	call	0x1b4c	; 0x1b4c <I2C::_stop()>
    1e7c:	88 83       	st	Y, r24
c:\Users\DH\Documents\Arduino\libraries\I2C-master/I2C.cpp:1098
  if (returnStatus)
    1e7e:	88 23       	and	r24, r24
    1e80:	21 f3       	breq	.-56     	; 0x1e4a <I2C::read(unsigned char, unsigned char, unsigned char, unsigned char*)+0xae>
c:\Users\DH\Documents\Arduino\libraries\I2C-master/I2C.cpp:1100
  {
    if (returnStatus == 1)
    1e82:	81 30       	cpi	r24, 0x01	; 1
    1e84:	11 f7       	brne	.-60     	; 0x1e4a <I2C::read(unsigned char, unsigned char, unsigned char, unsigned char*)+0xae>
c:\Users\DH\Documents\Arduino\libraries\I2C-master/I2C.cpp:1102
    {
      return (7);
    1e86:	87 e0       	ldi	r24, 0x07	; 7
    1e88:	e0 cf       	rjmp	.-64     	; 0x1e4a <I2C::read(unsigned char, unsigned char, unsigned char, unsigned char*)+0xae>
c:\Users\DH\Documents\Arduino\libraries\I2C-master/I2C.cpp:1083
        return (returnStatus);
      }
    }
    else
    {
      returnStatus = _receiveByte(1);
    1e8a:	61 e0       	ldi	r22, 0x01	; 1
    1e8c:	ce 01       	movw	r24, r28
    1e8e:	0e 94 5b 0d 	call	0x1ab6	; 0x1ab6 <I2C::_receiveByte(unsigned char)>
    1e92:	88 83       	st	Y, r24
c:\Users\DH\Documents\Arduino\libraries\I2C-master/I2C.cpp:1084
      if (returnStatus == 1)
    1e94:	81 30       	cpi	r24, 0x01	; 1
    1e96:	c1 f2       	breq	.-80     	; 0x1e48 <I2C::read(unsigned char, unsigned char, unsigned char, unsigned char*)+0xac>
c:\Users\DH\Documents\Arduino\libraries\I2C-master/I2C.cpp:1088
      {
        return (6);
      }
      if (returnStatus != MR_DATA_ACK)
    1e98:	80 35       	cpi	r24, 0x50	; 80
    1e9a:	09 f3       	breq	.-62     	; 0x1e5e <I2C::read(unsigned char, unsigned char, unsigned char, unsigned char*)+0xc2>
    1e9c:	d6 cf       	rjmp	.-84     	; 0x1e4a <I2C::read(unsigned char, unsigned char, unsigned char, unsigned char*)+0xae>

00001e9e <isr()>:
_ZN14SoftwareSerial16handle_interruptEv():
C:\Users\DH\AppData\Local\Arduino15\packages\MegaCore\hardware\avr\2.2.0\libraries\SoftwareSerial\src/SoftwareSerial.cpp:308
uint16_t SoftwareSerial::subtract_cap(uint16_t num, uint16_t sub) {
  if (num > sub)
    return num - sub;
  else
    return 1;
}
    1e9e:	e0 91 fe 03 	lds	r30, 0x03FE	; 0x8003fe <SoftwareSerial::active_object>
    1ea2:	f0 91 ff 03 	lds	r31, 0x03FF	; 0x8003ff <SoftwareSerial::active_object+0x1>
    1ea6:	30 97       	sbiw	r30, 0x00	; 0
    1ea8:	09 f4       	brne	.+2      	; 0x1eac <isr()+0xe>
    1eaa:	4d c0       	rjmp	.+154    	; 0x1f46 <isr()+0xa8>
    1eac:	a6 85       	ldd	r26, Z+14	; 0x0e
    1eae:	b7 85       	ldd	r27, Z+15	; 0x0f
    1eb0:	85 85       	ldd	r24, Z+13	; 0x0d
_ZN14SoftwareSerial4recvEv():
    1eb2:	96 8d       	ldd	r25, Z+30	; 0x1e
    1eb4:	91 ff       	sbrs	r25, 1
    1eb6:	04 c0       	rjmp	.+8      	; 0x1ec0 <isr()+0x22>
_ZN14SoftwareSerial11rx_pin_readEv():
    1eb8:	9c 91       	ld	r25, X
    1eba:	89 23       	and	r24, r25
_ZN14SoftwareSerial4recvEv():
    1ebc:	29 f4       	brne	.+10     	; 0x1ec8 <isr()+0x2a>
    1ebe:	08 95       	ret
_ZN14SoftwareSerial11rx_pin_readEv():
    1ec0:	9c 91       	ld	r25, X
    1ec2:	89 23       	and	r24, r25
_ZN14SoftwareSerial4recvEv():
    1ec4:	09 f0       	breq	.+2      	; 0x1ec8 <isr()+0x2a>
    1ec6:	3f c0       	rjmp	.+126    	; 0x1f46 <isr()+0xa8>
_ZN14SoftwareSerial11setRxIntMskEb():
    1ec8:	a3 89       	ldd	r26, Z+19	; 0x13
    1eca:	b4 89       	ldd	r27, Z+20	; 0x14
    1ecc:	9c 91       	ld	r25, X
    1ece:	85 89       	ldd	r24, Z+21	; 0x15
    1ed0:	80 95       	com	r24
    1ed2:	89 23       	and	r24, r25
    1ed4:	8c 93       	st	X, r24
_delay_loop_2():
    1ed6:	86 89       	ldd	r24, Z+22	; 0x16
    1ed8:	97 89       	ldd	r25, Z+23	; 0x17
    1eda:	01 97       	sbiw	r24, 0x01	; 1
    1edc:	f1 f7       	brne	.-4      	; 0x1eda <isr()+0x3c>
_ZN14SoftwareSerial4recvEv():
    1ede:	60 8d       	ldd	r22, Z+24	; 0x18
    1ee0:	71 8d       	ldd	r23, Z+25	; 0x19
_ZN14SoftwareSerial11rx_pin_readEv():
    1ee2:	a6 85       	ldd	r26, Z+14	; 0x0e
    1ee4:	b7 85       	ldd	r27, Z+15	; 0x0f
    1ee6:	55 85       	ldd	r21, Z+13	; 0x0d
    1ee8:	38 e0       	ldi	r19, 0x08	; 8
_ZN14SoftwareSerial4recvEv():
    1eea:	20 e0       	ldi	r18, 0x00	; 0
_delay_loop_2():
    1eec:	cb 01       	movw	r24, r22
    1eee:	01 97       	sbiw	r24, 0x01	; 1
    1ef0:	f1 f7       	brne	.-4      	; 0x1eee <isr()+0x50>
_ZN14SoftwareSerial4recvEv():
    1ef2:	82 2f       	mov	r24, r18
    1ef4:	90 e0       	ldi	r25, 0x00	; 0
    1ef6:	95 95       	asr	r25
    1ef8:	87 95       	ror	r24
    1efa:	28 2f       	mov	r18, r24
_ZN14SoftwareSerial11rx_pin_readEv():
    1efc:	4c 91       	ld	r20, X
    1efe:	45 23       	and	r20, r21
_ZN14SoftwareSerial4recvEv():
    1f00:	09 f0       	breq	.+2      	; 0x1f04 <isr()+0x66>
    1f02:	20 68       	ori	r18, 0x80	; 128
    1f04:	31 50       	subi	r19, 0x01	; 1
    1f06:	91 f7       	brne	.-28     	; 0x1eec <isr()+0x4e>
    1f08:	86 8d       	ldd	r24, Z+30	; 0x1e
    1f0a:	81 fd       	sbrc	r24, 1
    1f0c:	20 95       	com	r18
    1f0e:	80 91 bd 03 	lds	r24, 0x03BD	; 0x8003bd <SoftwareSerial::_receive_buffer_tail>
    1f12:	90 e0       	ldi	r25, 0x00	; 0
    1f14:	01 96       	adiw	r24, 0x01	; 1
    1f16:	8f 73       	andi	r24, 0x3F	; 63
    1f18:	99 27       	eor	r25, r25
    1f1a:	30 91 bc 03 	lds	r19, 0x03BC	; 0x8003bc <SoftwareSerial::_receive_buffer_head>
    1f1e:	38 17       	cp	r19, r24
    1f20:	99 f0       	breq	.+38     	; 0x1f48 <isr()+0xaa>
    1f22:	a0 91 bd 03 	lds	r26, 0x03BD	; 0x8003bd <SoftwareSerial::_receive_buffer_tail>
    1f26:	b0 e0       	ldi	r27, 0x00	; 0
    1f28:	a2 54       	subi	r26, 0x42	; 66
    1f2a:	bc 4f       	sbci	r27, 0xFC	; 252
    1f2c:	2c 93       	st	X, r18
    1f2e:	80 93 bd 03 	sts	0x03BD, r24	; 0x8003bd <SoftwareSerial::_receive_buffer_tail>
_delay_loop_2():
    1f32:	82 8d       	ldd	r24, Z+26	; 0x1a
    1f34:	93 8d       	ldd	r25, Z+27	; 0x1b
    1f36:	01 97       	sbiw	r24, 0x01	; 1
    1f38:	f1 f7       	brne	.-4      	; 0x1f36 <isr()+0x98>
_ZN14SoftwareSerial11setRxIntMskEb():
    1f3a:	a3 89       	ldd	r26, Z+19	; 0x13
    1f3c:	b4 89       	ldd	r27, Z+20	; 0x14
    1f3e:	8c 91       	ld	r24, X
    1f40:	95 89       	ldd	r25, Z+21	; 0x15
    1f42:	89 2b       	or	r24, r25
    1f44:	8c 93       	st	X, r24
_ZL3isrv():
    1f46:	08 95       	ret
_ZN14SoftwareSerial4recvEv():
    1f48:	86 8d       	ldd	r24, Z+30	; 0x1e
    1f4a:	81 60       	ori	r24, 0x01	; 1
    1f4c:	86 8f       	std	Z+30, r24	; 0x1e
    1f4e:	f1 cf       	rjmp	.-30     	; 0x1f32 <isr()+0x94>

00001f50 <SoftwareSerial::read()>:
_ZN14SoftwareSerial4readEv():
    1f50:	20 91 fe 03 	lds	r18, 0x03FE	; 0x8003fe <SoftwareSerial::active_object>
    1f54:	30 91 ff 03 	lds	r19, 0x03FF	; 0x8003ff <SoftwareSerial::active_object+0x1>
    1f58:	28 17       	cp	r18, r24
    1f5a:	39 07       	cpc	r19, r25
    1f5c:	b9 f4       	brne	.+46     	; 0x1f8c <SoftwareSerial::read()+0x3c>
    1f5e:	90 91 bc 03 	lds	r25, 0x03BC	; 0x8003bc <SoftwareSerial::_receive_buffer_head>
    1f62:	80 91 bd 03 	lds	r24, 0x03BD	; 0x8003bd <SoftwareSerial::_receive_buffer_tail>
    1f66:	98 17       	cp	r25, r24
    1f68:	89 f0       	breq	.+34     	; 0x1f8c <SoftwareSerial::read()+0x3c>
    1f6a:	e0 91 bc 03 	lds	r30, 0x03BC	; 0x8003bc <SoftwareSerial::_receive_buffer_head>
    1f6e:	f0 e0       	ldi	r31, 0x00	; 0
    1f70:	e2 54       	subi	r30, 0x42	; 66
    1f72:	fc 4f       	sbci	r31, 0xFC	; 252
    1f74:	80 81       	ld	r24, Z
    1f76:	20 91 bc 03 	lds	r18, 0x03BC	; 0x8003bc <SoftwareSerial::_receive_buffer_head>
    1f7a:	30 e0       	ldi	r19, 0x00	; 0
    1f7c:	2f 5f       	subi	r18, 0xFF	; 255
    1f7e:	3f 4f       	sbci	r19, 0xFF	; 255
    1f80:	2f 73       	andi	r18, 0x3F	; 63
    1f82:	33 27       	eor	r19, r19
    1f84:	20 93 bc 03 	sts	0x03BC, r18	; 0x8003bc <SoftwareSerial::_receive_buffer_head>
    1f88:	90 e0       	ldi	r25, 0x00	; 0
    1f8a:	08 95       	ret
    1f8c:	8f ef       	ldi	r24, 0xFF	; 255
    1f8e:	9f ef       	ldi	r25, 0xFF	; 255
    1f90:	08 95       	ret

00001f92 <SoftwareSerial::write(unsigned char)>:
_ZN14SoftwareSerial5writeEh():
    1f92:	ef 92       	push	r14
    1f94:	ff 92       	push	r15
    1f96:	0f 93       	push	r16
    1f98:	1f 93       	push	r17
    1f9a:	cf 93       	push	r28
    1f9c:	df 93       	push	r29
    1f9e:	dc 01       	movw	r26, r24
    1fa0:	5c 96       	adiw	r26, 0x1c	; 28
    1fa2:	ed 90       	ld	r14, X+
    1fa4:	fc 90       	ld	r15, X
    1fa6:	5d 97       	sbiw	r26, 0x1d	; 29
    1fa8:	e1 14       	cp	r14, r1
    1faa:	f1 04       	cpc	r15, r1
    1fac:	79 f4       	brne	.+30     	; 0x1fcc <SoftwareSerial::write(unsigned char)+0x3a>
_ZN5Print13setWriteErrorEi():
    1fae:	81 e0       	ldi	r24, 0x01	; 1
    1fb0:	90 e0       	ldi	r25, 0x00	; 0
    1fb2:	13 96       	adiw	r26, 0x03	; 3
    1fb4:	9c 93       	st	X, r25
    1fb6:	8e 93       	st	-X, r24
    1fb8:	12 97       	sbiw	r26, 0x02	; 2
_ZN14SoftwareSerial5writeEh():
    1fba:	90 e0       	ldi	r25, 0x00	; 0
    1fbc:	80 e0       	ldi	r24, 0x00	; 0
    1fbe:	df 91       	pop	r29
    1fc0:	cf 91       	pop	r28
    1fc2:	1f 91       	pop	r17
    1fc4:	0f 91       	pop	r16
    1fc6:	ff 90       	pop	r15
    1fc8:	ef 90       	pop	r14
    1fca:	08 95       	ret
    1fcc:	51 96       	adiw	r26, 0x11	; 17
    1fce:	ed 91       	ld	r30, X+
    1fd0:	fc 91       	ld	r31, X
    1fd2:	52 97       	sbiw	r26, 0x12	; 18
    1fd4:	50 96       	adiw	r26, 0x10	; 16
    1fd6:	8c 91       	ld	r24, X
    1fd8:	50 97       	sbiw	r26, 0x10	; 16
    1fda:	98 2f       	mov	r25, r24
    1fdc:	90 95       	com	r25
    1fde:	0f b7       	in	r16, 0x3f	; 63
    1fe0:	5e 96       	adiw	r26, 0x1e	; 30
    1fe2:	2c 91       	ld	r18, X
    1fe4:	5e 97       	sbiw	r26, 0x1e	; 30
    1fe6:	12 2f       	mov	r17, r18
    1fe8:	12 70       	andi	r17, 0x02	; 2
    1fea:	21 fd       	sbrc	r18, 1
    1fec:	60 95       	com	r22
    1fee:	f8 94       	cli
    1ff0:	20 81       	ld	r18, Z
    1ff2:	11 23       	and	r17, r17
    1ff4:	19 f1       	breq	.+70     	; 0x203c <SoftwareSerial::write(unsigned char)+0xaa>
    1ff6:	28 2b       	or	r18, r24
    1ff8:	20 83       	st	Z, r18
_delay_loop_2():
    1ffa:	e7 01       	movw	r28, r14
    1ffc:	21 97       	sbiw	r28, 0x01	; 1
    1ffe:	f1 f7       	brne	.-4      	; 0x1ffc <SoftwareSerial::write(unsigned char)+0x6a>
    2000:	28 e0       	ldi	r18, 0x08	; 8
_ZN14SoftwareSerial5writeEh():
    2002:	46 2f       	mov	r20, r22
    2004:	50 e0       	ldi	r21, 0x00	; 0
    2006:	30 81       	ld	r19, Z
    2008:	60 ff       	sbrs	r22, 0
    200a:	1a c0       	rjmp	.+52     	; 0x2040 <SoftwareSerial::write(unsigned char)+0xae>
    200c:	38 2b       	or	r19, r24
    200e:	30 83       	st	Z, r19
_delay_loop_2():
    2010:	e7 01       	movw	r28, r14
    2012:	21 97       	sbiw	r28, 0x01	; 1
    2014:	f1 f7       	brne	.-4      	; 0x2012 <SoftwareSerial::write(unsigned char)+0x80>
_ZN14SoftwareSerial5writeEh():
    2016:	ba 01       	movw	r22, r20
    2018:	75 95       	asr	r23
    201a:	67 95       	ror	r22
    201c:	21 50       	subi	r18, 0x01	; 1
    201e:	89 f7       	brne	.-30     	; 0x2002 <SoftwareSerial::write(unsigned char)+0x70>
    2020:	11 23       	and	r17, r17
    2022:	81 f0       	breq	.+32     	; 0x2044 <SoftwareSerial::write(unsigned char)+0xb2>
    2024:	80 81       	ld	r24, Z
    2026:	89 23       	and	r24, r25
    2028:	80 83       	st	Z, r24
    202a:	0f bf       	out	0x3f, r16	; 63
_delay_loop_2():
    202c:	5c 96       	adiw	r26, 0x1c	; 28
    202e:	8d 91       	ld	r24, X+
    2030:	9c 91       	ld	r25, X
    2032:	01 97       	sbiw	r24, 0x01	; 1
    2034:	f1 f7       	brne	.-4      	; 0x2032 <SoftwareSerial::write(unsigned char)+0xa0>
_ZN14SoftwareSerial5writeEh():
    2036:	81 e0       	ldi	r24, 0x01	; 1
    2038:	90 e0       	ldi	r25, 0x00	; 0
    203a:	c1 cf       	rjmp	.-126    	; 0x1fbe <SoftwareSerial::write(unsigned char)+0x2c>
    203c:	29 23       	and	r18, r25
    203e:	dc cf       	rjmp	.-72     	; 0x1ff8 <SoftwareSerial::write(unsigned char)+0x66>
    2040:	39 23       	and	r19, r25
    2042:	e5 cf       	rjmp	.-54     	; 0x200e <SoftwareSerial::write(unsigned char)+0x7c>
    2044:	90 81       	ld	r25, Z
    2046:	89 2b       	or	r24, r25
    2048:	ef cf       	rjmp	.-34     	; 0x2028 <SoftwareSerial::write(unsigned char)+0x96>

0000204a <SoftwareSerial::flush()>:
_ZN14SoftwareSerial5flushEv():
    204a:	08 95       	ret

0000204c <SoftwareSerial::peek()>:
_ZN14SoftwareSerial4peekEv():
    204c:	20 91 fe 03 	lds	r18, 0x03FE	; 0x8003fe <SoftwareSerial::active_object>
    2050:	30 91 ff 03 	lds	r19, 0x03FF	; 0x8003ff <SoftwareSerial::active_object+0x1>
    2054:	28 17       	cp	r18, r24
    2056:	39 07       	cpc	r19, r25
    2058:	71 f4       	brne	.+28     	; 0x2076 <SoftwareSerial::peek()+0x2a>
    205a:	90 91 bc 03 	lds	r25, 0x03BC	; 0x8003bc <SoftwareSerial::_receive_buffer_head>
    205e:	80 91 bd 03 	lds	r24, 0x03BD	; 0x8003bd <SoftwareSerial::_receive_buffer_tail>
    2062:	98 17       	cp	r25, r24
    2064:	41 f0       	breq	.+16     	; 0x2076 <SoftwareSerial::peek()+0x2a>
    2066:	e0 91 bc 03 	lds	r30, 0x03BC	; 0x8003bc <SoftwareSerial::_receive_buffer_head>
    206a:	f0 e0       	ldi	r31, 0x00	; 0
    206c:	e2 54       	subi	r30, 0x42	; 66
    206e:	fc 4f       	sbci	r31, 0xFC	; 252
    2070:	80 81       	ld	r24, Z
    2072:	90 e0       	ldi	r25, 0x00	; 0
    2074:	08 95       	ret
    2076:	8f ef       	ldi	r24, 0xFF	; 255
    2078:	9f ef       	ldi	r25, 0xFF	; 255
    207a:	08 95       	ret

0000207c <SoftwareSerial::available()>:
_ZN14SoftwareSerial9availableEv():
    207c:	20 91 fe 03 	lds	r18, 0x03FE	; 0x8003fe <SoftwareSerial::active_object>
    2080:	30 91 ff 03 	lds	r19, 0x03FF	; 0x8003ff <SoftwareSerial::active_object+0x1>
    2084:	28 17       	cp	r18, r24
    2086:	39 07       	cpc	r19, r25
    2088:	61 f4       	brne	.+24     	; 0x20a2 <SoftwareSerial::available()+0x26>
    208a:	80 91 bd 03 	lds	r24, 0x03BD	; 0x8003bd <SoftwareSerial::_receive_buffer_tail>
    208e:	20 91 bc 03 	lds	r18, 0x03BC	; 0x8003bc <SoftwareSerial::_receive_buffer_head>
    2092:	90 e0       	ldi	r25, 0x00	; 0
    2094:	80 5c       	subi	r24, 0xC0	; 192
    2096:	9f 4f       	sbci	r25, 0xFF	; 255
    2098:	82 1b       	sub	r24, r18
    209a:	91 09       	sbc	r25, r1
    209c:	8f 73       	andi	r24, 0x3F	; 63
    209e:	99 27       	eor	r25, r25
    20a0:	08 95       	ret
    20a2:	90 e0       	ldi	r25, 0x00	; 0
    20a4:	80 e0       	ldi	r24, 0x00	; 0
    20a6:	08 95       	ret

000020a8 <SoftwareSerial::stopListening()>:
_ZN14SoftwareSerial13stopListeningEv():
    20a8:	e0 91 fe 03 	lds	r30, 0x03FE	; 0x8003fe <SoftwareSerial::active_object>
    20ac:	f0 91 ff 03 	lds	r31, 0x03FF	; 0x8003ff <SoftwareSerial::active_object+0x1>
    20b0:	e8 17       	cp	r30, r24
    20b2:	f9 07       	cpc	r31, r25
    20b4:	69 f4       	brne	.+26     	; 0x20d0 <SoftwareSerial::stopListening()+0x28>
_ZN14SoftwareSerial11setRxIntMskEb():
    20b6:	a3 89       	ldd	r26, Z+19	; 0x13
    20b8:	b4 89       	ldd	r27, Z+20	; 0x14
    20ba:	9c 91       	ld	r25, X
    20bc:	85 89       	ldd	r24, Z+21	; 0x15
    20be:	80 95       	com	r24
    20c0:	89 23       	and	r24, r25
    20c2:	8c 93       	st	X, r24
_ZN14SoftwareSerial13stopListeningEv():
    20c4:	10 92 ff 03 	sts	0x03FF, r1	; 0x8003ff <SoftwareSerial::active_object+0x1>
    20c8:	10 92 fe 03 	sts	0x03FE, r1	; 0x8003fe <SoftwareSerial::active_object>
    20cc:	81 e0       	ldi	r24, 0x01	; 1
    20ce:	08 95       	ret
    20d0:	80 e0       	ldi	r24, 0x00	; 0
    20d2:	08 95       	ret

000020d4 <SoftwareSerial::listen()>:
_ZN14SoftwareSerial6listenEv():
    20d4:	cf 93       	push	r28
    20d6:	df 93       	push	r29
    20d8:	ec 01       	movw	r28, r24
    20da:	8a 8d       	ldd	r24, Y+26	; 0x1a
    20dc:	9b 8d       	ldd	r25, Y+27	; 0x1b
    20de:	89 2b       	or	r24, r25
    20e0:	01 f1       	breq	.+64     	; 0x2122 <SoftwareSerial::listen()+0x4e>
    20e2:	80 91 fe 03 	lds	r24, 0x03FE	; 0x8003fe <SoftwareSerial::active_object>
    20e6:	90 91 ff 03 	lds	r25, 0x03FF	; 0x8003ff <SoftwareSerial::active_object+0x1>
    20ea:	8c 17       	cp	r24, r28
    20ec:	9d 07       	cpc	r25, r29
    20ee:	c9 f0       	breq	.+50     	; 0x2122 <SoftwareSerial::listen()+0x4e>
    20f0:	00 97       	sbiw	r24, 0x00	; 0
    20f2:	11 f0       	breq	.+4      	; 0x20f8 <SoftwareSerial::listen()+0x24>
    20f4:	0e 94 54 10 	call	0x20a8	; 0x20a8 <SoftwareSerial::stopListening()>
    20f8:	8e 8d       	ldd	r24, Y+30	; 0x1e
    20fa:	8e 7f       	andi	r24, 0xFE	; 254
    20fc:	8e 8f       	std	Y+30, r24	; 0x1e
    20fe:	10 92 bd 03 	sts	0x03BD, r1	; 0x8003bd <SoftwareSerial::_receive_buffer_tail>
    2102:	10 92 bc 03 	sts	0x03BC, r1	; 0x8003bc <SoftwareSerial::_receive_buffer_head>
    2106:	d0 93 ff 03 	sts	0x03FF, r29	; 0x8003ff <SoftwareSerial::active_object+0x1>
    210a:	c0 93 fe 03 	sts	0x03FE, r28	; 0x8003fe <SoftwareSerial::active_object>
_ZN14SoftwareSerial11setRxIntMskEb():
    210e:	eb 89       	ldd	r30, Y+19	; 0x13
    2110:	fc 89       	ldd	r31, Y+20	; 0x14
    2112:	80 81       	ld	r24, Z
    2114:	9d 89       	ldd	r25, Y+21	; 0x15
    2116:	89 2b       	or	r24, r25
    2118:	80 83       	st	Z, r24
    211a:	81 e0       	ldi	r24, 0x01	; 1
_ZN14SoftwareSerial6listenEv():
    211c:	df 91       	pop	r29
    211e:	cf 91       	pop	r28
    2120:	08 95       	ret
    2122:	80 e0       	ldi	r24, 0x00	; 0
    2124:	fb cf       	rjmp	.-10     	; 0x211c <SoftwareSerial::listen()+0x48>

00002126 <__vector_10>:
__vector_11():
    2126:	1f 92       	push	r1
    2128:	0f 92       	push	r0
    212a:	0f b6       	in	r0, 0x3f	; 63
    212c:	0f 92       	push	r0
    212e:	11 24       	eor	r1, r1
    2130:	0b b6       	in	r0, 0x3b	; 59
    2132:	0f 92       	push	r0
    2134:	2f 93       	push	r18
    2136:	3f 93       	push	r19
    2138:	4f 93       	push	r20
    213a:	5f 93       	push	r21
    213c:	6f 93       	push	r22
    213e:	7f 93       	push	r23
    2140:	8f 93       	push	r24
    2142:	9f 93       	push	r25
    2144:	af 93       	push	r26
    2146:	bf 93       	push	r27
    2148:	ef 93       	push	r30
    214a:	ff 93       	push	r31
_ZN14SoftwareSerial16handle_interruptEv():
    214c:	e0 91 fe 03 	lds	r30, 0x03FE	; 0x8003fe <SoftwareSerial::active_object>
    2150:	f0 91 ff 03 	lds	r31, 0x03FF	; 0x8003ff <SoftwareSerial::active_object+0x1>
    2154:	30 97       	sbiw	r30, 0x00	; 0
    2156:	49 f0       	breq	.+18     	; 0x216a <__vector_10+0x44>
    2158:	a6 85       	ldd	r26, Z+14	; 0x0e
    215a:	b7 85       	ldd	r27, Z+15	; 0x0f
    215c:	85 85       	ldd	r24, Z+13	; 0x0d
_ZN14SoftwareSerial4recvEv():
    215e:	96 8d       	ldd	r25, Z+30	; 0x1e
    2160:	91 ff       	sbrs	r25, 1
    2162:	16 c0       	rjmp	.+44     	; 0x2190 <__vector_10+0x6a>
_ZN14SoftwareSerial11rx_pin_readEv():
    2164:	9c 91       	ld	r25, X
    2166:	89 23       	and	r24, r25
_ZN14SoftwareSerial4recvEv():
    2168:	b1 f4       	brne	.+44     	; 0x2196 <__vector_10+0x70>
__vector_11():
    216a:	ff 91       	pop	r31
    216c:	ef 91       	pop	r30
    216e:	bf 91       	pop	r27
    2170:	af 91       	pop	r26
    2172:	9f 91       	pop	r25
    2174:	8f 91       	pop	r24
    2176:	7f 91       	pop	r23
    2178:	6f 91       	pop	r22
    217a:	5f 91       	pop	r21
    217c:	4f 91       	pop	r20
    217e:	3f 91       	pop	r19
    2180:	2f 91       	pop	r18
    2182:	0f 90       	pop	r0
    2184:	0b be       	out	0x3b, r0	; 59
    2186:	0f 90       	pop	r0
    2188:	0f be       	out	0x3f, r0	; 63
    218a:	0f 90       	pop	r0
    218c:	1f 90       	pop	r1
    218e:	18 95       	reti
_ZN14SoftwareSerial11rx_pin_readEv():
    2190:	9c 91       	ld	r25, X
    2192:	89 23       	and	r24, r25
_ZN14SoftwareSerial4recvEv():
    2194:	51 f7       	brne	.-44     	; 0x216a <__vector_10+0x44>
_ZN14SoftwareSerial11setRxIntMskEb():
    2196:	a3 89       	ldd	r26, Z+19	; 0x13
    2198:	b4 89       	ldd	r27, Z+20	; 0x14
    219a:	9c 91       	ld	r25, X
    219c:	85 89       	ldd	r24, Z+21	; 0x15
    219e:	80 95       	com	r24
    21a0:	89 23       	and	r24, r25
    21a2:	8c 93       	st	X, r24
_delay_loop_2():
    21a4:	86 89       	ldd	r24, Z+22	; 0x16
    21a6:	97 89       	ldd	r25, Z+23	; 0x17
    21a8:	01 97       	sbiw	r24, 0x01	; 1
    21aa:	f1 f7       	brne	.-4      	; 0x21a8 <__vector_10+0x82>
_ZN14SoftwareSerial4recvEv():
    21ac:	60 8d       	ldd	r22, Z+24	; 0x18
    21ae:	71 8d       	ldd	r23, Z+25	; 0x19
_ZN14SoftwareSerial11rx_pin_readEv():
    21b0:	a6 85       	ldd	r26, Z+14	; 0x0e
    21b2:	b7 85       	ldd	r27, Z+15	; 0x0f
    21b4:	55 85       	ldd	r21, Z+13	; 0x0d
    21b6:	38 e0       	ldi	r19, 0x08	; 8
_ZN14SoftwareSerial4recvEv():
    21b8:	20 e0       	ldi	r18, 0x00	; 0
_delay_loop_2():
    21ba:	cb 01       	movw	r24, r22
    21bc:	01 97       	sbiw	r24, 0x01	; 1
    21be:	f1 f7       	brne	.-4      	; 0x21bc <__vector_10+0x96>
_ZN14SoftwareSerial4recvEv():
    21c0:	82 2f       	mov	r24, r18
    21c2:	90 e0       	ldi	r25, 0x00	; 0
    21c4:	95 95       	asr	r25
    21c6:	87 95       	ror	r24
    21c8:	28 2f       	mov	r18, r24
_ZN14SoftwareSerial11rx_pin_readEv():
    21ca:	4c 91       	ld	r20, X
    21cc:	45 23       	and	r20, r21
_ZN14SoftwareSerial4recvEv():
    21ce:	09 f0       	breq	.+2      	; 0x21d2 <__vector_10+0xac>
    21d0:	20 68       	ori	r18, 0x80	; 128
    21d2:	31 50       	subi	r19, 0x01	; 1
    21d4:	91 f7       	brne	.-28     	; 0x21ba <__vector_10+0x94>
    21d6:	86 8d       	ldd	r24, Z+30	; 0x1e
    21d8:	81 fd       	sbrc	r24, 1
    21da:	20 95       	com	r18
    21dc:	80 91 bd 03 	lds	r24, 0x03BD	; 0x8003bd <SoftwareSerial::_receive_buffer_tail>
    21e0:	90 e0       	ldi	r25, 0x00	; 0
    21e2:	01 96       	adiw	r24, 0x01	; 1
    21e4:	8f 73       	andi	r24, 0x3F	; 63
    21e6:	99 27       	eor	r25, r25
    21e8:	30 91 bc 03 	lds	r19, 0x03BC	; 0x8003bc <SoftwareSerial::_receive_buffer_head>
    21ec:	38 17       	cp	r19, r24
    21ee:	99 f0       	breq	.+38     	; 0x2216 <__stack+0x17>
    21f0:	a0 91 bd 03 	lds	r26, 0x03BD	; 0x8003bd <SoftwareSerial::_receive_buffer_tail>
    21f4:	b0 e0       	ldi	r27, 0x00	; 0
    21f6:	a2 54       	subi	r26, 0x42	; 66
    21f8:	bc 4f       	sbci	r27, 0xFC	; 252
    21fa:	2c 93       	st	X, r18
    21fc:	80 93 bd 03 	sts	0x03BD, r24	; 0x8003bd <SoftwareSerial::_receive_buffer_tail>
_delay_loop_2():
    2200:	82 8d       	ldd	r24, Z+26	; 0x1a
    2202:	93 8d       	ldd	r25, Z+27	; 0x1b
    2204:	01 97       	sbiw	r24, 0x01	; 1
    2206:	f1 f7       	brne	.-4      	; 0x2204 <__stack+0x5>
_ZN14SoftwareSerial11setRxIntMskEb():
    2208:	a3 89       	ldd	r26, Z+19	; 0x13
    220a:	b4 89       	ldd	r27, Z+20	; 0x14
    220c:	8c 91       	ld	r24, X
    220e:	95 89       	ldd	r25, Z+21	; 0x15
    2210:	89 2b       	or	r24, r25
    2212:	8c 93       	st	X, r24
__vector_11():
    2214:	aa cf       	rjmp	.-172    	; 0x216a <__vector_10+0x44>
_ZN14SoftwareSerial4recvEv():
    2216:	86 8d       	ldd	r24, Z+30	; 0x1e
    2218:	81 60       	ori	r24, 0x01	; 1
    221a:	86 8f       	std	Z+30, r24	; 0x1e
    221c:	f1 cf       	rjmp	.-30     	; 0x2200 <__stack+0x1>

0000221e <SoftwareSerial::~SoftwareSerial()>:
_ZN14SoftwareSerialD2Ev():
    221e:	23 e5       	ldi	r18, 0x53	; 83
    2220:	32 e0       	ldi	r19, 0x02	; 2
    2222:	fc 01       	movw	r30, r24
    2224:	31 83       	std	Z+1, r19	; 0x01
    2226:	20 83       	st	Z, r18
_ZN14SoftwareSerial3endEv():
    2228:	0c 94 54 10 	jmp	0x20a8	; 0x20a8 <SoftwareSerial::stopListening()>

0000222c <SoftwareSerial::setTX(signed char)>:
_ZN14SoftwareSerial5setTXEa():
    222c:	1f 93       	push	r17
    222e:	cf 93       	push	r28
    2230:	df 93       	push	r29
    2232:	ec 01       	movw	r28, r24
    2234:	16 2f       	mov	r17, r22
    2236:	6e 8d       	ldd	r22, Y+30	; 0x1e
    2238:	66 95       	lsr	r22
    223a:	61 70       	andi	r22, 0x01	; 1
    223c:	81 e0       	ldi	r24, 0x01	; 1
    223e:	68 27       	eor	r22, r24
    2240:	81 2f       	mov	r24, r17
    2242:	0e 94 b8 1c 	call	0x3970	; 0x3970 <digitalWrite>
    2246:	61 e0       	ldi	r22, 0x01	; 1
    2248:	81 2f       	mov	r24, r17
    224a:	0e 94 7c 1c 	call	0x38f8	; 0x38f8 <pinMode>
    224e:	81 2f       	mov	r24, r17
    2250:	11 0f       	add	r17, r17
    2252:	99 0b       	sbc	r25, r25
    2254:	fc 01       	movw	r30, r24
    2256:	e1 5b       	subi	r30, 0xB1	; 177
    2258:	fd 4f       	sbci	r31, 0xFD	; 253
    225a:	e4 91       	lpm	r30, Z
    225c:	e8 8b       	std	Y+16, r30	; 0x10
    225e:	fc 01       	movw	r30, r24
    2260:	eb 55       	subi	r30, 0x5B	; 91
    2262:	fd 4f       	sbci	r31, 0xFD	; 253
    2264:	e4 91       	lpm	r30, Z
    2266:	f0 e0       	ldi	r31, 0x00	; 0
    2268:	ee 0f       	add	r30, r30
    226a:	ff 1f       	adc	r31, r31
    226c:	eb 5e       	subi	r30, 0xEB	; 235
    226e:	fc 4f       	sbci	r31, 0xFC	; 252
    2270:	85 91       	lpm	r24, Z+
    2272:	94 91       	lpm	r25, Z
    2274:	9a 8b       	std	Y+18, r25	; 0x12
    2276:	89 8b       	std	Y+17, r24	; 0x11
    2278:	df 91       	pop	r29
    227a:	cf 91       	pop	r28
    227c:	1f 91       	pop	r17
    227e:	08 95       	ret

00002280 <SoftwareSerial::setRX(signed char)>:
_ZN14SoftwareSerial5setRXEa():
    2280:	1f 93       	push	r17
    2282:	cf 93       	push	r28
    2284:	df 93       	push	r29
    2286:	ec 01       	movw	r28, r24
    2288:	16 2f       	mov	r17, r22
    228a:	60 e0       	ldi	r22, 0x00	; 0
    228c:	81 2f       	mov	r24, r17
    228e:	0e 94 7c 1c 	call	0x38f8	; 0x38f8 <pinMode>
    2292:	8e 8d       	ldd	r24, Y+30	; 0x1e
    2294:	81 fd       	sbrc	r24, 1
    2296:	04 c0       	rjmp	.+8      	; 0x22a0 <SoftwareSerial::setRX(signed char)+0x20>
    2298:	61 e0       	ldi	r22, 0x01	; 1
    229a:	81 2f       	mov	r24, r17
    229c:	0e 94 b8 1c 	call	0x3970	; 0x3970 <digitalWrite>
    22a0:	1c 87       	std	Y+12, r17	; 0x0c
    22a2:	81 2f       	mov	r24, r17
    22a4:	11 0f       	add	r17, r17
    22a6:	99 0b       	sbc	r25, r25
    22a8:	fc 01       	movw	r30, r24
    22aa:	e1 5b       	subi	r30, 0xB1	; 177
    22ac:	fd 4f       	sbci	r31, 0xFD	; 253
    22ae:	e4 91       	lpm	r30, Z
    22b0:	ed 87       	std	Y+13, r30	; 0x0d
    22b2:	fc 01       	movw	r30, r24
    22b4:	eb 55       	subi	r30, 0x5B	; 91
    22b6:	fd 4f       	sbci	r31, 0xFD	; 253
    22b8:	e4 91       	lpm	r30, Z
    22ba:	f0 e0       	ldi	r31, 0x00	; 0
    22bc:	ee 0f       	add	r30, r30
    22be:	ff 1f       	adc	r31, r31
    22c0:	e5 50       	subi	r30, 0x05	; 5
    22c2:	fd 4f       	sbci	r31, 0xFD	; 253
    22c4:	85 91       	lpm	r24, Z+
    22c6:	94 91       	lpm	r25, Z
    22c8:	9f 87       	std	Y+15, r25	; 0x0f
    22ca:	8e 87       	std	Y+14, r24	; 0x0e
    22cc:	df 91       	pop	r29
    22ce:	cf 91       	pop	r28
    22d0:	1f 91       	pop	r17
    22d2:	08 95       	ret

000022d4 <SoftwareSerial::SoftwareSerial(signed char, signed char, bool)>:
_ZN14SoftwareSerialC2Eaab():
    22d4:	1f 93       	push	r17
    22d6:	cf 93       	push	r28
    22d8:	df 93       	push	r29
    22da:	ec 01       	movw	r28, r24
    22dc:	16 2f       	mov	r17, r22
_ZN5PrintC4Ev():
    22de:	1b 82       	std	Y+3, r1	; 0x03
    22e0:	1a 82       	std	Y+2, r1	; 0x02
_ZN6StreamC4Ev():
    22e2:	88 ee       	ldi	r24, 0xE8	; 232
    22e4:	93 e0       	ldi	r25, 0x03	; 3
    22e6:	a0 e0       	ldi	r26, 0x00	; 0
    22e8:	b0 e0       	ldi	r27, 0x00	; 0
    22ea:	8c 83       	std	Y+4, r24	; 0x04
    22ec:	9d 83       	std	Y+5, r25	; 0x05
    22ee:	ae 83       	std	Y+6, r26	; 0x06
    22f0:	bf 83       	std	Y+7, r27	; 0x07
_ZN14SoftwareSerialC2Eaab():
    22f2:	83 e5       	ldi	r24, 0x53	; 83
    22f4:	92 e0       	ldi	r25, 0x02	; 2
    22f6:	99 83       	std	Y+1, r25	; 0x01
    22f8:	88 83       	st	Y, r24
    22fa:	1f 8a       	std	Y+23, r1	; 0x17
    22fc:	1e 8a       	std	Y+22, r1	; 0x16
    22fe:	19 8e       	std	Y+25, r1	; 0x19
    2300:	18 8e       	std	Y+24, r1	; 0x18
    2302:	1b 8e       	std	Y+27, r1	; 0x1b
    2304:	1a 8e       	std	Y+26, r1	; 0x1a
    2306:	1d 8e       	std	Y+29, r1	; 0x1d
    2308:	1c 8e       	std	Y+28, r1	; 0x1c
    230a:	8e 8d       	ldd	r24, Y+30	; 0x1e
    230c:	8e 7f       	andi	r24, 0xFE	; 254
    230e:	20 fb       	bst	r18, 0
    2310:	81 f9       	bld	r24, 1
    2312:	8e 8f       	std	Y+30, r24	; 0x1e
    2314:	64 2f       	mov	r22, r20
    2316:	ce 01       	movw	r24, r28
    2318:	0e 94 16 11 	call	0x222c	; 0x222c <SoftwareSerial::setTX(signed char)>
    231c:	61 2f       	mov	r22, r17
    231e:	ce 01       	movw	r24, r28
    2320:	df 91       	pop	r29
    2322:	cf 91       	pop	r28
    2324:	1f 91       	pop	r17
    2326:	0c 94 40 11 	jmp	0x2280	; 0x2280 <SoftwareSerial::setRX(signed char)>

0000232a <SoftwareSerial::begin(long)>:
_ZN14SoftwareSerial5beginEl():
C:\Users\DH\AppData\Local\Arduino15\packages\MegaCore\hardware\avr\2.2.0\libraries\SoftwareSerial\src/SoftwareSerial.cpp:315
//
// Public methods
//

void SoftwareSerial::begin(long speed)
{
    232a:	8f 92       	push	r8
    232c:	9f 92       	push	r9
    232e:	af 92       	push	r10
    2330:	bf 92       	push	r11
    2332:	cf 92       	push	r12
    2334:	df 92       	push	r13
    2336:	ef 92       	push	r14
    2338:	ff 92       	push	r15
    233a:	0f 93       	push	r16
    233c:	1f 93       	push	r17
    233e:	cf 93       	push	r28
    2340:	df 93       	push	r29
    2342:	ec 01       	movw	r28, r24
    2344:	9a 01       	movw	r18, r20
    2346:	ab 01       	movw	r20, r22
C:\Users\DH\AppData\Local\Arduino15\packages\MegaCore\hardware\avr\2.2.0\libraries\SoftwareSerial\src/SoftwareSerial.cpp:316
  _rx_delay_centering = _rx_delay_intrabit = _rx_delay_stopbit = _tx_delay = 0;
    2348:	1b 8e       	std	Y+27, r1	; 0x1b
    234a:	1a 8e       	std	Y+26, r1	; 0x1a
    234c:	19 8e       	std	Y+25, r1	; 0x19
    234e:	18 8e       	std	Y+24, r1	; 0x18
    2350:	1f 8a       	std	Y+23, r1	; 0x17
    2352:	1e 8a       	std	Y+22, r1	; 0x16
C:\Users\DH\AppData\Local\Arduino15\packages\MegaCore\hardware\avr\2.2.0\libraries\SoftwareSerial\src/SoftwareSerial.cpp:319

  // Precalculate the various delays, in number of 4-cycle delays
  uint16_t bit_delay = (F_CPU / speed) / 4;
    2354:	60 e8       	ldi	r22, 0x80	; 128
    2356:	74 e8       	ldi	r23, 0x84	; 132
    2358:	8e e1       	ldi	r24, 0x1E	; 30
    235a:	90 e0       	ldi	r25, 0x00	; 0
    235c:	0e 94 32 1d 	call	0x3a64	; 0x3a64 <__divmodsi4>
    2360:	49 01       	movw	r8, r18
    2362:	69 01       	movw	r12, r18
_ZN14SoftwareSerial12subtract_capEjj():
C:\Users\DH\AppData\Local\Arduino15\packages\MegaCore\hardware\avr\2.2.0\libraries\SoftwareSerial\src/SoftwareSerial.cpp:305
  _receivePortRegister = portInputRegister(port);
}

uint16_t SoftwareSerial::subtract_cap(uint16_t num, uint16_t sub) {
  if (num > sub)
    return num - sub;
    2364:	c9 01       	movw	r24, r18
    2366:	03 97       	sbiw	r24, 0x03	; 3
C:\Users\DH\AppData\Local\Arduino15\packages\MegaCore\hardware\avr\2.2.0\libraries\SoftwareSerial\src/SoftwareSerial.cpp:304
  uint8_t port = digitalPinToPort(rx);
  _receivePortRegister = portInputRegister(port);
}

uint16_t SoftwareSerial::subtract_cap(uint16_t num, uint16_t sub) {
  if (num > sub)
    2368:	24 e0       	ldi	r18, 0x04	; 4
    236a:	82 16       	cp	r8, r18
    236c:	91 04       	cpc	r9, r1
    236e:	10 f4       	brcc	.+4      	; 0x2374 <SoftwareSerial::begin(long)+0x4a>
C:\Users\DH\AppData\Local\Arduino15\packages\MegaCore\hardware\avr\2.2.0\libraries\SoftwareSerial\src/SoftwareSerial.cpp:307
    return num - sub;
  else
    return 1;
    2370:	81 e0       	ldi	r24, 0x01	; 1
    2372:	90 e0       	ldi	r25, 0x00	; 0
_ZN14SoftwareSerial5beginEl():
C:\Users\DH\AppData\Local\Arduino15\packages\MegaCore\hardware\avr\2.2.0\libraries\SoftwareSerial\src/SoftwareSerial.cpp:326
  // 12 (gcc 4.8.2) or 13 (gcc 4.3.2) cycles from start bit to first bit,
  // 15 (gcc 4.8.2) or 16 (gcc 4.3.2) cycles between bits,
  // 12 (gcc 4.8.2) or 14 (gcc 4.3.2) cycles from last bit to stop bit
  // These are all close enough to just use 15 cycles, since the inter-bit
  // timings are the most critical (deviations stack 8 times)
  _tx_delay = subtract_cap(bit_delay, 15 / 4);
    2374:	9d 8f       	std	Y+29, r25	; 0x1d
    2376:	8c 8f       	std	Y+28, r24	; 0x1c
C:\Users\DH\AppData\Local\Arduino15\packages\MegaCore\hardware\avr\2.2.0\libraries\SoftwareSerial\src/SoftwareSerial.cpp:330

#if defined(PCINT_ONLY) || defined(INT_AND_PCINT)
  // Only setup rx when we have a valid PCINT for this pin
  if (digitalPinToPCICR(_receivePin)) {
    2378:	9c 85       	ldd	r25, Y+12	; 0x0c
    237a:	86 ef       	ldi	r24, 0xF6	; 246
    237c:	89 0f       	add	r24, r25
    237e:	74 01       	movw	r14, r8
    2380:	f6 94       	lsr	r15
    2382:	e7 94       	ror	r14
    2384:	84 01       	movw	r16, r8
    2386:	00 0f       	add	r16, r16
    2388:	11 1f       	adc	r17, r17
    238a:	84 30       	cpi	r24, 0x04	; 4
    238c:	48 f0       	brcs	.+18     	; 0x23a0 <SoftwareSerial::begin(long)+0x76>
C:\Users\DH\AppData\Local\Arduino15\packages\MegaCore\hardware\avr\2.2.0\libraries\SoftwareSerial\src/SoftwareSerial.cpp:330 (discriminator 1)
    238e:	2e ec       	ldi	r18, 0xCE	; 206
    2390:	29 0f       	add	r18, r25
    2392:	24 30       	cpi	r18, 0x04	; 4
    2394:	28 f0       	brcs	.+10     	; 0x23a0 <SoftwareSerial::begin(long)+0x76>
C:\Users\DH\AppData\Local\Arduino15\packages\MegaCore\hardware\avr\2.2.0\libraries\SoftwareSerial\src/SoftwareSerial.cpp:330 (discriminator 2)
    2396:	22 ec       	ldi	r18, 0xC2	; 194
    2398:	29 0f       	add	r18, r25
    239a:	28 30       	cpi	r18, 0x08	; 8
    239c:	08 f0       	brcs	.+2      	; 0x23a0 <SoftwareSerial::begin(long)+0x76>
    239e:	9b c0       	rjmp	.+310    	; 0x24d6 <SoftwareSerial::begin(long)+0x1ac>
_ZN14SoftwareSerial12subtract_capEjj():
C:\Users\DH\AppData\Local\Arduino15\packages\MegaCore\hardware\avr\2.2.0\libraries\SoftwareSerial\src/SoftwareSerial.cpp:304
  uint8_t port = digitalPinToPort(rx);
  _receivePortRegister = portInputRegister(port);
}

uint16_t SoftwareSerial::subtract_cap(uint16_t num, uint16_t sub) {
  if (num > sub)
    23a0:	24 e1       	ldi	r18, 0x14	; 20
    23a2:	e2 16       	cp	r14, r18
    23a4:	f1 04       	cpc	r15, r1
    23a6:	08 f4       	brcc	.+2      	; 0x23aa <SoftwareSerial::begin(long)+0x80>
    23a8:	71 c0       	rjmp	.+226    	; 0x248c <SoftwareSerial::begin(long)+0x162>
C:\Users\DH\AppData\Local\Arduino15\packages\MegaCore\hardware\avr\2.2.0\libraries\SoftwareSerial\src/SoftwareSerial.cpp:305
    return num - sub;
    23aa:	97 01       	movw	r18, r14
    23ac:	23 51       	subi	r18, 0x13	; 19
    23ae:	31 09       	sbc	r19, r1
_ZN14SoftwareSerial5beginEl():
C:\Users\DH\AppData\Local\Arduino15\packages\MegaCore\hardware\avr\2.2.0\libraries\SoftwareSerial\src/SoftwareSerial.cpp:345
    // are 17 more cycles until the pin value is read (excluding the
    // delay in the loop).
    // We want to have a total delay of 1.5 bit time. Inside the loop,
    // we already wait for 1 bit time - 23 cycles, so here we wait for
    // 0.5 bit time - (71 + 18 - 22) cycles.
    _rx_delay_centering = subtract_cap(bit_delay / 2, (4 + 4 + 75 + 17 - 23) / 4);
    23b0:	3f 8b       	std	Y+23, r19	; 0x17
    23b2:	2e 8b       	std	Y+22, r18	; 0x16
_ZN14SoftwareSerial12subtract_capEjj():
C:\Users\DH\AppData\Local\Arduino15\packages\MegaCore\hardware\avr\2.2.0\libraries\SoftwareSerial\src/SoftwareSerial.cpp:304
  uint8_t port = digitalPinToPort(rx);
  _receivePortRegister = portInputRegister(port);
}

uint16_t SoftwareSerial::subtract_cap(uint16_t num, uint16_t sub) {
  if (num > sub)
    23b4:	26 e0       	ldi	r18, 0x06	; 6
    23b6:	c2 16       	cp	r12, r18
    23b8:	d1 04       	cpc	r13, r1
    23ba:	08 f4       	brcc	.+2      	; 0x23be <SoftwareSerial::begin(long)+0x94>
    23bc:	6a c0       	rjmp	.+212    	; 0x2492 <SoftwareSerial::begin(long)+0x168>
C:\Users\DH\AppData\Local\Arduino15\packages\MegaCore\hardware\avr\2.2.0\libraries\SoftwareSerial\src/SoftwareSerial.cpp:305
    return num - sub;
    23be:	94 01       	movw	r18, r8
    23c0:	25 50       	subi	r18, 0x05	; 5
    23c2:	31 09       	sbc	r19, r1
_ZN14SoftwareSerial5beginEl():
C:\Users\DH\AppData\Local\Arduino15\packages\MegaCore\hardware\avr\2.2.0\libraries\SoftwareSerial\src/SoftwareSerial.cpp:348
    // we already wait for 1 bit time - 23 cycles, so here we wait for
    // 0.5 bit time - (71 + 18 - 22) cycles.
    _rx_delay_centering = subtract_cap(bit_delay / 2, (4 + 4 + 75 + 17 - 23) / 4);

    // There are 23 cycles in each loop iteration (excluding the delay)
    _rx_delay_intrabit = subtract_cap(bit_delay, 23 / 4);
    23c4:	39 8f       	std	Y+25, r19	; 0x19
    23c6:	28 8f       	std	Y+24, r18	; 0x18
C:\Users\DH\AppData\Local\Arduino15\packages\MegaCore\hardware\avr\2.2.0\libraries\SoftwareSerial\src/SoftwareSerial.cpp:357
    // mask is enabled again (which _must_ happen during the stopbit).
    // This delay aims at 3/4 of a bit time, meaning the end of the
    // delay will be at 1/4th of the stopbit. This allows some extra
    // time for ISR cleanup, which makes 115200 baud at 16Mhz work more
    // reliably
    _rx_delay_stopbit = subtract_cap(bit_delay * 3 / 4, (37 + 11) / 4);
    23c8:	08 0d       	add	r16, r8
    23ca:	19 1d       	adc	r17, r9
    23cc:	16 95       	lsr	r17
    23ce:	07 95       	ror	r16
    23d0:	16 95       	lsr	r17
    23d2:	07 95       	ror	r16
_ZN14SoftwareSerial12subtract_capEjj():
C:\Users\DH\AppData\Local\Arduino15\packages\MegaCore\hardware\avr\2.2.0\libraries\SoftwareSerial\src/SoftwareSerial.cpp:304
  uint8_t port = digitalPinToPort(rx);
  _receivePortRegister = portInputRegister(port);
}

uint16_t SoftwareSerial::subtract_cap(uint16_t num, uint16_t sub) {
  if (num > sub)
    23d4:	0d 30       	cpi	r16, 0x0D	; 13
    23d6:	11 05       	cpc	r17, r1
    23d8:	08 f4       	brcc	.+2      	; 0x23dc <SoftwareSerial::begin(long)+0xb2>
    23da:	5e c0       	rjmp	.+188    	; 0x2498 <SoftwareSerial::begin(long)+0x16e>
C:\Users\DH\AppData\Local\Arduino15\packages\MegaCore\hardware\avr\2.2.0\libraries\SoftwareSerial\src/SoftwareSerial.cpp:305
    return num - sub;
    23dc:	0c 50       	subi	r16, 0x0C	; 12
    23de:	11 09       	sbc	r17, r1
_ZN14SoftwareSerial5beginEl():
C:\Users\DH\AppData\Local\Arduino15\packages\MegaCore\hardware\avr\2.2.0\libraries\SoftwareSerial\src/SoftwareSerial.cpp:357
    // mask is enabled again (which _must_ happen during the stopbit).
    // This delay aims at 3/4 of a bit time, meaning the end of the
    // delay will be at 1/4th of the stopbit. This allows some extra
    // time for ISR cleanup, which makes 115200 baud at 16Mhz work more
    // reliably
    _rx_delay_stopbit = subtract_cap(bit_delay * 3 / 4, (37 + 11) / 4);
    23e0:	1b 8f       	std	Y+27, r17	; 0x1b
    23e2:	0a 8f       	std	Y+26, r16	; 0x1a
C:\Users\DH\AppData\Local\Arduino15\packages\MegaCore\hardware\avr\2.2.0\libraries\SoftwareSerial\src/SoftwareSerial.cpp:371


    // Enable the PCINT for the entire port here, but never disable it
    // (others might also need it, so we disable the interrupt by using
    // the per-pin PCMSK register).
    *digitalPinToPCICR(_receivePin) |= _BV(digitalPinToPCICRbit(_receivePin));
    23e4:	84 30       	cpi	r24, 0x04	; 4
    23e6:	50 f0       	brcs	.+20     	; 0x23fc <SoftwareSerial::begin(long)+0xd2>
C:\Users\DH\AppData\Local\Arduino15\packages\MegaCore\hardware\avr\2.2.0\libraries\SoftwareSerial\src/SoftwareSerial.cpp:371 (discriminator 2)
    23e8:	2e ec       	ldi	r18, 0xCE	; 206
    23ea:	29 0f       	add	r18, r25
    23ec:	24 30       	cpi	r18, 0x04	; 4
    23ee:	30 f0       	brcs	.+12     	; 0x23fc <SoftwareSerial::begin(long)+0xd2>
C:\Users\DH\AppData\Local\Arduino15\packages\MegaCore\hardware\avr\2.2.0\libraries\SoftwareSerial\src/SoftwareSerial.cpp:371 (discriminator 4)
    23f0:	22 ec       	ldi	r18, 0xC2	; 194
    23f2:	29 0f       	add	r18, r25
    23f4:	f0 e0       	ldi	r31, 0x00	; 0
    23f6:	e0 e0       	ldi	r30, 0x00	; 0
    23f8:	28 30       	cpi	r18, 0x08	; 8
    23fa:	10 f4       	brcc	.+4      	; 0x2400 <SoftwareSerial::begin(long)+0xd6>
C:\Users\DH\AppData\Local\Arduino15\packages\MegaCore\hardware\avr\2.2.0\libraries\SoftwareSerial\src/SoftwareSerial.cpp:371
    23fc:	e8 e6       	ldi	r30, 0x68	; 104
    23fe:	f0 e0       	ldi	r31, 0x00	; 0
C:\Users\DH\AppData\Local\Arduino15\packages\MegaCore\hardware\avr\2.2.0\libraries\SoftwareSerial\src/SoftwareSerial.cpp:371 (discriminator 8)
    2400:	20 81       	ld	r18, Z
    2402:	84 30       	cpi	r24, 0x04	; 4
    2404:	28 f0       	brcs	.+10     	; 0x2410 <SoftwareSerial::begin(long)+0xe6>
C:\Users\DH\AppData\Local\Arduino15\packages\MegaCore\hardware\avr\2.2.0\libraries\SoftwareSerial\src/SoftwareSerial.cpp:371 (discriminator 9)
    2406:	32 ec       	ldi	r19, 0xC2	; 194
    2408:	39 0f       	add	r19, r25
    240a:	38 30       	cpi	r19, 0x08	; 8
    240c:	08 f4       	brcc	.+2      	; 0x2410 <SoftwareSerial::begin(long)+0xe6>
    240e:	47 c0       	rjmp	.+142    	; 0x249e <SoftwareSerial::begin(long)+0x174>
C:\Users\DH\AppData\Local\Arduino15\packages\MegaCore\hardware\avr\2.2.0\libraries\SoftwareSerial\src/SoftwareSerial.cpp:371
    2410:	31 e0       	ldi	r19, 0x01	; 1
C:\Users\DH\AppData\Local\Arduino15\packages\MegaCore\hardware\avr\2.2.0\libraries\SoftwareSerial\src/SoftwareSerial.cpp:371 (discriminator 18)
    2412:	23 2b       	or	r18, r19
    2414:	84 30       	cpi	r24, 0x04	; 4
    2416:	48 f0       	brcs	.+18     	; 0x242a <SoftwareSerial::begin(long)+0x100>
C:\Users\DH\AppData\Local\Arduino15\packages\MegaCore\hardware\avr\2.2.0\libraries\SoftwareSerial\src/SoftwareSerial.cpp:371 (discriminator 20)
    2418:	8e ec       	ldi	r24, 0xCE	; 206
    241a:	89 0f       	add	r24, r25
    241c:	84 30       	cpi	r24, 0x04	; 4
    241e:	28 f0       	brcs	.+10     	; 0x242a <SoftwareSerial::begin(long)+0x100>
C:\Users\DH\AppData\Local\Arduino15\packages\MegaCore\hardware\avr\2.2.0\libraries\SoftwareSerial\src/SoftwareSerial.cpp:371 (discriminator 22)
    2420:	9e 53       	subi	r25, 0x3E	; 62
    2422:	f0 e0       	ldi	r31, 0x00	; 0
    2424:	e0 e0       	ldi	r30, 0x00	; 0
    2426:	98 30       	cpi	r25, 0x08	; 8
    2428:	10 f4       	brcc	.+4      	; 0x242e <SoftwareSerial::begin(long)+0x104>
C:\Users\DH\AppData\Local\Arduino15\packages\MegaCore\hardware\avr\2.2.0\libraries\SoftwareSerial\src/SoftwareSerial.cpp:371
    242a:	e8 e6       	ldi	r30, 0x68	; 104
    242c:	f0 e0       	ldi	r31, 0x00	; 0
C:\Users\DH\AppData\Local\Arduino15\packages\MegaCore\hardware\avr\2.2.0\libraries\SoftwareSerial\src/SoftwareSerial.cpp:371 (discriminator 26)
    242e:	20 83       	st	Z, r18
C:\Users\DH\AppData\Local\Arduino15\packages\MegaCore\hardware\avr\2.2.0\libraries\SoftwareSerial\src/SoftwareSerial.cpp:374 (discriminator 26)
    // Precalculate the pcint mask register and value, so setRxIntMask
    // can be used inside the ISR without costing too much time.
    _pcint_maskreg = digitalPinToPCMSK(_receivePin);
    2430:	8c 85       	ldd	r24, Y+12	; 0x0c
    2432:	96 ef       	ldi	r25, 0xF6	; 246
    2434:	98 0f       	add	r25, r24
    2436:	94 30       	cpi	r25, 0x04	; 4
    2438:	a0 f1       	brcs	.+104    	; 0x24a2 <SoftwareSerial::begin(long)+0x178>
C:\Users\DH\AppData\Local\Arduino15\packages\MegaCore\hardware\avr\2.2.0\libraries\SoftwareSerial\src/SoftwareSerial.cpp:374 (discriminator 1)
    243a:	2e ec       	ldi	r18, 0xCE	; 206
    243c:	28 0f       	add	r18, r24
    243e:	24 30       	cpi	r18, 0x04	; 4
    2440:	80 f1       	brcs	.+96     	; 0x24a2 <SoftwareSerial::begin(long)+0x178>
C:\Users\DH\AppData\Local\Arduino15\packages\MegaCore\hardware\avr\2.2.0\libraries\SoftwareSerial\src/SoftwareSerial.cpp:374 (discriminator 3)
    2442:	22 ec       	ldi	r18, 0xC2	; 194
    2444:	28 0f       	add	r18, r24
    2446:	28 30       	cpi	r18, 0x08	; 8
    2448:	78 f5       	brcc	.+94     	; 0x24a8 <SoftwareSerial::begin(long)+0x17e>
C:\Users\DH\AppData\Local\Arduino15\packages\MegaCore\hardware\avr\2.2.0\libraries\SoftwareSerial\src/SoftwareSerial.cpp:374
    244a:	2d e6       	ldi	r18, 0x6D	; 109
    244c:	30 e0       	ldi	r19, 0x00	; 0
C:\Users\DH\AppData\Local\Arduino15\packages\MegaCore\hardware\avr\2.2.0\libraries\SoftwareSerial\src/SoftwareSerial.cpp:374 (discriminator 10)
    244e:	3c 8b       	std	Y+20, r19	; 0x14
    2450:	2b 8b       	std	Y+19, r18	; 0x13
C:\Users\DH\AppData\Local\Arduino15\packages\MegaCore\hardware\avr\2.2.0\libraries\SoftwareSerial\src/SoftwareSerial.cpp:375 (discriminator 10)
    _pcint_maskvalue = _BV(digitalPinToPCMSKbit(_receivePin));
    2452:	94 30       	cpi	r25, 0x04	; 4
    2454:	60 f5       	brcc	.+88     	; 0x24ae <SoftwareSerial::begin(long)+0x184>
C:\Users\DH\AppData\Local\Arduino15\packages\MegaCore\hardware\avr\2.2.0\libraries\SoftwareSerial\src/SoftwareSerial.cpp:375 (discriminator 1)
    2456:	9a ef       	ldi	r25, 0xFA	; 250
C:\Users\DH\AppData\Local\Arduino15\packages\MegaCore\hardware\avr\2.2.0\libraries\SoftwareSerial\src/SoftwareSerial.cpp:375 (discriminator 10)
    2458:	98 0f       	add	r25, r24
    245a:	81 e0       	ldi	r24, 0x01	; 1
    245c:	01 c0       	rjmp	.+2      	; 0x2460 <SoftwareSerial::begin(long)+0x136>
    245e:	88 0f       	add	r24, r24
    2460:	9a 95       	dec	r25
    2462:	ea f7       	brpl	.-6      	; 0x245e <SoftwareSerial::begin(long)+0x134>
C:\Users\DH\AppData\Local\Arduino15\packages\MegaCore\hardware\avr\2.2.0\libraries\SoftwareSerial\src/SoftwareSerial.cpp:375 (discriminator 24)
    2464:	8d 8b       	std	Y+21, r24	; 0x15
_delay_loop_2():
c:\users\dh\appdata\local\arduino15\packages\arduino\tools\avr-gcc\7.3.0-atmel3.6.1-arduino7\avr\include\util/delay_basic.h:110
	__asm__ volatile (
		"1: sbiw %0,1" "\n\t"
		"brne 1b"
		: "=w" (__count)
		: "0" (__count)
	);
    2466:	8c 8d       	ldd	r24, Y+28	; 0x1c
    2468:	9d 8d       	ldd	r25, Y+29	; 0x1d
    246a:	01 97       	sbiw	r24, 0x01	; 1
    246c:	f1 f7       	brne	.-4      	; 0x246a <SoftwareSerial::begin(long)+0x140>
_ZN14SoftwareSerial5beginEl():
C:\Users\DH\AppData\Local\Arduino15\packages\MegaCore\hardware\avr\2.2.0\libraries\SoftwareSerial\src/SoftwareSerial.cpp:434
#if _DEBUG
  pinMode(_DEBUG_PIN1, OUTPUT);
  pinMode(_DEBUG_PIN2, OUTPUT);
#endif

  listen();
    246e:	ce 01       	movw	r24, r28
C:\Users\DH\AppData\Local\Arduino15\packages\MegaCore\hardware\avr\2.2.0\libraries\SoftwareSerial\src/SoftwareSerial.cpp:435
}
    2470:	df 91       	pop	r29
    2472:	cf 91       	pop	r28
    2474:	1f 91       	pop	r17
    2476:	0f 91       	pop	r16
    2478:	ff 90       	pop	r15
    247a:	ef 90       	pop	r14
    247c:	df 90       	pop	r13
    247e:	cf 90       	pop	r12
    2480:	bf 90       	pop	r11
    2482:	af 90       	pop	r10
    2484:	9f 90       	pop	r9
    2486:	8f 90       	pop	r8
C:\Users\DH\AppData\Local\Arduino15\packages\MegaCore\hardware\avr\2.2.0\libraries\SoftwareSerial\src/SoftwareSerial.cpp:434
#if _DEBUG
  pinMode(_DEBUG_PIN1, OUTPUT);
  pinMode(_DEBUG_PIN2, OUTPUT);
#endif

  listen();
    2488:	0c 94 6a 10 	jmp	0x20d4	; 0x20d4 <SoftwareSerial::listen()>
_ZN14SoftwareSerial12subtract_capEjj():
C:\Users\DH\AppData\Local\Arduino15\packages\MegaCore\hardware\avr\2.2.0\libraries\SoftwareSerial\src/SoftwareSerial.cpp:307

uint16_t SoftwareSerial::subtract_cap(uint16_t num, uint16_t sub) {
  if (num > sub)
    return num - sub;
  else
    return 1;
    248c:	21 e0       	ldi	r18, 0x01	; 1
    248e:	30 e0       	ldi	r19, 0x00	; 0
    2490:	8f cf       	rjmp	.-226    	; 0x23b0 <SoftwareSerial::begin(long)+0x86>
    2492:	21 e0       	ldi	r18, 0x01	; 1
    2494:	30 e0       	ldi	r19, 0x00	; 0
    2496:	96 cf       	rjmp	.-212    	; 0x23c4 <SoftwareSerial::begin(long)+0x9a>
    2498:	01 e0       	ldi	r16, 0x01	; 1
    249a:	10 e0       	ldi	r17, 0x00	; 0
    249c:	a1 cf       	rjmp	.-190    	; 0x23e0 <SoftwareSerial::begin(long)+0xb6>
_ZN14SoftwareSerial5beginEl():
C:\Users\DH\AppData\Local\Arduino15\packages\MegaCore\hardware\avr\2.2.0\libraries\SoftwareSerial\src/SoftwareSerial.cpp:371


    // Enable the PCINT for the entire port here, but never disable it
    // (others might also need it, so we disable the interrupt by using
    // the per-pin PCMSK register).
    *digitalPinToPCICR(_receivePin) |= _BV(digitalPinToPCICRbit(_receivePin));
    249e:	34 e0       	ldi	r19, 0x04	; 4
    24a0:	b8 cf       	rjmp	.-144    	; 0x2412 <SoftwareSerial::begin(long)+0xe8>
C:\Users\DH\AppData\Local\Arduino15\packages\MegaCore\hardware\avr\2.2.0\libraries\SoftwareSerial\src/SoftwareSerial.cpp:374
    // Precalculate the pcint mask register and value, so setRxIntMask
    // can be used inside the ISR without costing too much time.
    _pcint_maskreg = digitalPinToPCMSK(_receivePin);
    24a2:	2b e6       	ldi	r18, 0x6B	; 107
    24a4:	30 e0       	ldi	r19, 0x00	; 0
    24a6:	d3 cf       	rjmp	.-90     	; 0x244e <SoftwareSerial::begin(long)+0x124>
    24a8:	30 e0       	ldi	r19, 0x00	; 0
    24aa:	20 e0       	ldi	r18, 0x00	; 0
    24ac:	d0 cf       	rjmp	.-96     	; 0x244e <SoftwareSerial::begin(long)+0x124>
C:\Users\DH\AppData\Local\Arduino15\packages\MegaCore\hardware\avr\2.2.0\libraries\SoftwareSerial\src/SoftwareSerial.cpp:375 (discriminator 2)
    _pcint_maskvalue = _BV(digitalPinToPCMSKbit(_receivePin));
    24ae:	82 33       	cpi	r24, 0x32	; 50
    24b0:	51 f0       	breq	.+20     	; 0x24c6 <SoftwareSerial::begin(long)+0x19c>
C:\Users\DH\AppData\Local\Arduino15\packages\MegaCore\hardware\avr\2.2.0\libraries\SoftwareSerial\src/SoftwareSerial.cpp:375 (discriminator 4)
    24b2:	83 33       	cpi	r24, 0x33	; 51
    24b4:	51 f0       	breq	.+20     	; 0x24ca <SoftwareSerial::begin(long)+0x1a0>
C:\Users\DH\AppData\Local\Arduino15\packages\MegaCore\hardware\avr\2.2.0\libraries\SoftwareSerial\src/SoftwareSerial.cpp:375 (discriminator 6)
    24b6:	84 33       	cpi	r24, 0x34	; 52
    24b8:	51 f0       	breq	.+20     	; 0x24ce <SoftwareSerial::begin(long)+0x1a4>
C:\Users\DH\AppData\Local\Arduino15\packages\MegaCore\hardware\avr\2.2.0\libraries\SoftwareSerial\src/SoftwareSerial.cpp:375 (discriminator 8)
    24ba:	92 ec       	ldi	r25, 0xC2	; 194
    24bc:	98 0f       	add	r25, r24
    24be:	98 30       	cpi	r25, 0x08	; 8
    24c0:	40 f4       	brcc	.+16     	; 0x24d2 <SoftwareSerial::begin(long)+0x1a8>
C:\Users\DH\AppData\Local\Arduino15\packages\MegaCore\hardware\avr\2.2.0\libraries\SoftwareSerial\src/SoftwareSerial.cpp:375 (discriminator 10)
    24c2:	92 ec       	ldi	r25, 0xC2	; 194
    24c4:	c9 cf       	rjmp	.-110    	; 0x2458 <SoftwareSerial::begin(long)+0x12e>
C:\Users\DH\AppData\Local\Arduino15\packages\MegaCore\hardware\avr\2.2.0\libraries\SoftwareSerial\src/SoftwareSerial.cpp:375
    24c6:	88 e0       	ldi	r24, 0x08	; 8
    24c8:	cd cf       	rjmp	.-102    	; 0x2464 <SoftwareSerial::begin(long)+0x13a>
    24ca:	84 e0       	ldi	r24, 0x04	; 4
    24cc:	cb cf       	rjmp	.-106    	; 0x2464 <SoftwareSerial::begin(long)+0x13a>
    24ce:	82 e0       	ldi	r24, 0x02	; 2
    24d0:	c9 cf       	rjmp	.-110    	; 0x2464 <SoftwareSerial::begin(long)+0x13a>
    24d2:	81 e0       	ldi	r24, 0x01	; 1
    24d4:	c7 cf       	rjmp	.-114    	; 0x2464 <SoftwareSerial::begin(long)+0x13a>
C:\Users\DH\AppData\Local\Arduino15\packages\MegaCore\hardware\avr\2.2.0\libraries\SoftwareSerial\src/SoftwareSerial.cpp:387
  else
#endif
#if defined(INT_ONLY) || defined(INT_AND_PCINT)
  {
     // Direct interrupts
     attachInterrupt(digitalPinToInterrupt(_receivePin), isr, CHANGE);
    24d6:	80 e0       	ldi	r24, 0x00	; 0
    24d8:	92 30       	cpi	r25, 0x02	; 2
    24da:	49 f0       	breq	.+18     	; 0x24ee <SoftwareSerial::begin(long)+0x1c4>
C:\Users\DH\AppData\Local\Arduino15\packages\MegaCore\hardware\avr\2.2.0\libraries\SoftwareSerial\src/SoftwareSerial.cpp:387 (discriminator 1)
    24dc:	81 e0       	ldi	r24, 0x01	; 1
    24de:	93 30       	cpi	r25, 0x03	; 3
    24e0:	31 f0       	breq	.+12     	; 0x24ee <SoftwareSerial::begin(long)+0x1c4>
C:\Users\DH\AppData\Local\Arduino15\packages\MegaCore\hardware\avr\2.2.0\libraries\SoftwareSerial\src/SoftwareSerial.cpp:387 (discriminator 3)
    24e2:	8e ee       	ldi	r24, 0xEE	; 238
    24e4:	89 0f       	add	r24, r25
    24e6:	84 30       	cpi	r24, 0x04	; 4
    24e8:	40 f5       	brcc	.+80     	; 0x253a <SoftwareSerial::begin(long)+0x210>
C:\Users\DH\AppData\Local\Arduino15\packages\MegaCore\hardware\avr\2.2.0\libraries\SoftwareSerial\src/SoftwareSerial.cpp:387 (discriminator 5)
    24ea:	87 e1       	ldi	r24, 0x17	; 23
    24ec:	89 1b       	sub	r24, r25
C:\Users\DH\AppData\Local\Arduino15\packages\MegaCore\hardware\avr\2.2.0\libraries\SoftwareSerial\src/SoftwareSerial.cpp:387 (discriminator 12)
    24ee:	41 e0       	ldi	r20, 0x01	; 1
    24f0:	50 e0       	ldi	r21, 0x00	; 0
    24f2:	6f e4       	ldi	r22, 0x4F	; 79
    24f4:	7f e0       	ldi	r23, 0x0F	; 15
    24f6:	0e 94 13 19 	call	0x3226	; 0x3226 <attachInterrupt>
_ZN14SoftwareSerial12subtract_capEjj():
C:\Users\DH\AppData\Local\Arduino15\packages\MegaCore\hardware\avr\2.2.0\libraries\SoftwareSerial\src/SoftwareSerial.cpp:304 (discriminator 12)
  uint8_t port = digitalPinToPort(rx);
  _receivePortRegister = portInputRegister(port);
}

uint16_t SoftwareSerial::subtract_cap(uint16_t num, uint16_t sub) {
  if (num > sub)
    24fa:	84 e1       	ldi	r24, 0x14	; 20
    24fc:	e8 16       	cp	r14, r24
    24fe:	f1 04       	cpc	r15, r1
    2500:	f0 f0       	brcs	.+60     	; 0x253e <SoftwareSerial::begin(long)+0x214>
C:\Users\DH\AppData\Local\Arduino15\packages\MegaCore\hardware\avr\2.2.0\libraries\SoftwareSerial\src/SoftwareSerial.cpp:305
    return num - sub;
    2502:	c7 01       	movw	r24, r14
    2504:	43 97       	sbiw	r24, 0x13	; 19
_ZN14SoftwareSerial5beginEl():
C:\Users\DH\AppData\Local\Arduino15\packages\MegaCore\hardware\avr\2.2.0\libraries\SoftwareSerial\src/SoftwareSerial.cpp:403
    // are 17 more cycles until the pin value is read (excluding the
    // delay in the loop).
    // We want to have a total delay of 1.5 bit time. Inside the loop,
    // we already wait for 1 bit time - 23 cycles, so here we wait for
    // 0.5 bit time - (71 + 18 - 22) cycles.
    _rx_delay_centering = subtract_cap(bit_delay / 2, (4 + 4 + 75 + 17 - 23) / 4);
    2506:	9f 8b       	std	Y+23, r25	; 0x17
    2508:	8e 8b       	std	Y+22, r24	; 0x16
_ZN14SoftwareSerial12subtract_capEjj():
C:\Users\DH\AppData\Local\Arduino15\packages\MegaCore\hardware\avr\2.2.0\libraries\SoftwareSerial\src/SoftwareSerial.cpp:305
  _receivePortRegister = portInputRegister(port);
}

uint16_t SoftwareSerial::subtract_cap(uint16_t num, uint16_t sub) {
  if (num > sub)
    return num - sub;
    250a:	c4 01       	movw	r24, r8
    250c:	05 97       	sbiw	r24, 0x05	; 5
C:\Users\DH\AppData\Local\Arduino15\packages\MegaCore\hardware\avr\2.2.0\libraries\SoftwareSerial\src/SoftwareSerial.cpp:304
  uint8_t port = digitalPinToPort(rx);
  _receivePortRegister = portInputRegister(port);
}

uint16_t SoftwareSerial::subtract_cap(uint16_t num, uint16_t sub) {
  if (num > sub)
    250e:	26 e0       	ldi	r18, 0x06	; 6
    2510:	c2 16       	cp	r12, r18
    2512:	d1 04       	cpc	r13, r1
    2514:	10 f4       	brcc	.+4      	; 0x251a <SoftwareSerial::begin(long)+0x1f0>
C:\Users\DH\AppData\Local\Arduino15\packages\MegaCore\hardware\avr\2.2.0\libraries\SoftwareSerial\src/SoftwareSerial.cpp:307
    return num - sub;
  else
    return 1;
    2516:	81 e0       	ldi	r24, 0x01	; 1
    2518:	90 e0       	ldi	r25, 0x00	; 0
_ZN14SoftwareSerial5beginEl():
C:\Users\DH\AppData\Local\Arduino15\packages\MegaCore\hardware\avr\2.2.0\libraries\SoftwareSerial\src/SoftwareSerial.cpp:406
    // we already wait for 1 bit time - 23 cycles, so here we wait for
    // 0.5 bit time - (71 + 18 - 22) cycles.
    _rx_delay_centering = subtract_cap(bit_delay / 2, (4 + 4 + 75 + 17 - 23) / 4);

    // There are 23 cycles in each loop iteration (excluding the delay)
    _rx_delay_intrabit = subtract_cap(bit_delay, 23 / 4);
    251a:	99 8f       	std	Y+25, r25	; 0x19
    251c:	88 8f       	std	Y+24, r24	; 0x18
C:\Users\DH\AppData\Local\Arduino15\packages\MegaCore\hardware\avr\2.2.0\libraries\SoftwareSerial\src/SoftwareSerial.cpp:415
    // mask is enabled again (which _must_ happen during the stopbit).
    // This delay aims at 3/4 of a bit time, meaning the end of the
    // delay will be at 1/4th of the stopbit. This allows some extra
    // time for ISR cleanup, which makes 115200 baud at 16Mhz work more
    // reliably
    _rx_delay_stopbit = subtract_cap(bit_delay * 3 / 4, (37 + 11) / 4);
    251e:	08 0d       	add	r16, r8
    2520:	19 1d       	adc	r17, r9
    2522:	16 95       	lsr	r17
    2524:	07 95       	ror	r16
    2526:	16 95       	lsr	r17
    2528:	07 95       	ror	r16
_ZN14SoftwareSerial12subtract_capEjj():
C:\Users\DH\AppData\Local\Arduino15\packages\MegaCore\hardware\avr\2.2.0\libraries\SoftwareSerial\src/SoftwareSerial.cpp:304
  uint8_t port = digitalPinToPort(rx);
  _receivePortRegister = portInputRegister(port);
}

uint16_t SoftwareSerial::subtract_cap(uint16_t num, uint16_t sub) {
  if (num > sub)
    252a:	0d 30       	cpi	r16, 0x0D	; 13
    252c:	11 05       	cpc	r17, r1
    252e:	50 f0       	brcs	.+20     	; 0x2544 <SoftwareSerial::begin(long)+0x21a>
C:\Users\DH\AppData\Local\Arduino15\packages\MegaCore\hardware\avr\2.2.0\libraries\SoftwareSerial\src/SoftwareSerial.cpp:305
    return num - sub;
    2530:	0c 50       	subi	r16, 0x0C	; 12
    2532:	11 09       	sbc	r17, r1
_ZN14SoftwareSerial5beginEl():
C:\Users\DH\AppData\Local\Arduino15\packages\MegaCore\hardware\avr\2.2.0\libraries\SoftwareSerial\src/SoftwareSerial.cpp:415
    // mask is enabled again (which _must_ happen during the stopbit).
    // This delay aims at 3/4 of a bit time, meaning the end of the
    // delay will be at 1/4th of the stopbit. This allows some extra
    // time for ISR cleanup, which makes 115200 baud at 16Mhz work more
    // reliably
    _rx_delay_stopbit = subtract_cap(bit_delay * 3 / 4, (37 + 11) / 4);
    2534:	1b 8f       	std	Y+27, r17	; 0x1b
    2536:	0a 8f       	std	Y+26, r16	; 0x1a
    2538:	96 cf       	rjmp	.-212    	; 0x2466 <SoftwareSerial::begin(long)+0x13c>
C:\Users\DH\AppData\Local\Arduino15\packages\MegaCore\hardware\avr\2.2.0\libraries\SoftwareSerial\src/SoftwareSerial.cpp:387
  else
#endif
#if defined(INT_ONLY) || defined(INT_AND_PCINT)
  {
     // Direct interrupts
     attachInterrupt(digitalPinToInterrupt(_receivePin), isr, CHANGE);
    253a:	8f ef       	ldi	r24, 0xFF	; 255
    253c:	d8 cf       	rjmp	.-80     	; 0x24ee <SoftwareSerial::begin(long)+0x1c4>
_ZN14SoftwareSerial12subtract_capEjj():
C:\Users\DH\AppData\Local\Arduino15\packages\MegaCore\hardware\avr\2.2.0\libraries\SoftwareSerial\src/SoftwareSerial.cpp:307

uint16_t SoftwareSerial::subtract_cap(uint16_t num, uint16_t sub) {
  if (num > sub)
    return num - sub;
  else
    return 1;
    253e:	81 e0       	ldi	r24, 0x01	; 1
    2540:	90 e0       	ldi	r25, 0x00	; 0
    2542:	e1 cf       	rjmp	.-62     	; 0x2506 <SoftwareSerial::begin(long)+0x1dc>
    2544:	01 e0       	ldi	r16, 0x01	; 1
    2546:	10 e0       	ldi	r17, 0x00	; 0
    2548:	f5 cf       	rjmp	.-22     	; 0x2534 <SoftwareSerial::begin(long)+0x20a>

0000254a <HardwareSerial::available()>:
_ZN14HardwareSerial9availableEv():
C:\Users\DH\AppData\Local\Arduino15\packages\MegaCore\hardware\avr\2.2.0\cores\MCUdude_corefiles/HardwareSerial.cpp:136
#endif
  *_ucsrc = config;
  
  *_ucsrb |= _BV(RXEN0) | _BV(TXEN0) | _BV(RXCIE0);
  *_ucsrb &= ~_BV(UDRIE0);
}
    254a:	fc 01       	movw	r30, r24
    254c:	91 8d       	ldd	r25, Z+25	; 0x19
    254e:	22 8d       	ldd	r18, Z+26	; 0x1a
    2550:	89 2f       	mov	r24, r25
    2552:	90 e0       	ldi	r25, 0x00	; 0
    2554:	80 5c       	subi	r24, 0xC0	; 192
    2556:	9f 4f       	sbci	r25, 0xFF	; 255
    2558:	82 1b       	sub	r24, r18
    255a:	91 09       	sbc	r25, r1
    255c:	8f 73       	andi	r24, 0x3F	; 63
    255e:	99 27       	eor	r25, r25
    2560:	08 95       	ret

00002562 <HardwareSerial::peek()>:
_ZN14HardwareSerial4peekEv():
    2562:	fc 01       	movw	r30, r24
    2564:	91 8d       	ldd	r25, Z+25	; 0x19
    2566:	82 8d       	ldd	r24, Z+26	; 0x1a
    2568:	98 17       	cp	r25, r24
    256a:	31 f0       	breq	.+12     	; 0x2578 <HardwareSerial::peek()+0x16>
    256c:	82 8d       	ldd	r24, Z+26	; 0x1a
    256e:	e8 0f       	add	r30, r24
    2570:	f1 1d       	adc	r31, r1
    2572:	85 8d       	ldd	r24, Z+29	; 0x1d
    2574:	90 e0       	ldi	r25, 0x00	; 0
    2576:	08 95       	ret
    2578:	8f ef       	ldi	r24, 0xFF	; 255
    257a:	9f ef       	ldi	r25, 0xFF	; 255
    257c:	08 95       	ret

0000257e <HardwareSerial::read()>:
_ZN14HardwareSerial4readEv():
    257e:	fc 01       	movw	r30, r24
    2580:	91 8d       	ldd	r25, Z+25	; 0x19
    2582:	82 8d       	ldd	r24, Z+26	; 0x1a
    2584:	98 17       	cp	r25, r24
    2586:	61 f0       	breq	.+24     	; 0x25a0 <HardwareSerial::read()+0x22>
    2588:	a2 8d       	ldd	r26, Z+26	; 0x1a
    258a:	ae 0f       	add	r26, r30
    258c:	bf 2f       	mov	r27, r31
    258e:	b1 1d       	adc	r27, r1
    2590:	5d 96       	adiw	r26, 0x1d	; 29
    2592:	8c 91       	ld	r24, X
    2594:	92 8d       	ldd	r25, Z+26	; 0x1a
    2596:	9f 5f       	subi	r25, 0xFF	; 255
    2598:	9f 73       	andi	r25, 0x3F	; 63
    259a:	92 8f       	std	Z+26, r25	; 0x1a
    259c:	90 e0       	ldi	r25, 0x00	; 0
    259e:	08 95       	ret
    25a0:	8f ef       	ldi	r24, 0xFF	; 255
    25a2:	9f ef       	ldi	r25, 0xFF	; 255
    25a4:	08 95       	ret

000025a6 <HardwareSerial::availableForWrite()>:
_ZN14HardwareSerial17availableForWriteEv():
    25a6:	fc 01       	movw	r30, r24
    25a8:	53 8d       	ldd	r21, Z+27	; 0x1b
    25aa:	44 8d       	ldd	r20, Z+28	; 0x1c
    25ac:	25 2f       	mov	r18, r21
    25ae:	30 e0       	ldi	r19, 0x00	; 0
    25b0:	84 2f       	mov	r24, r20
    25b2:	90 e0       	ldi	r25, 0x00	; 0
    25b4:	82 1b       	sub	r24, r18
    25b6:	93 0b       	sbc	r25, r19
    25b8:	54 17       	cp	r21, r20
    25ba:	10 f0       	brcs	.+4      	; 0x25c0 <HardwareSerial::availableForWrite()+0x1a>
    25bc:	cf 96       	adiw	r24, 0x3f	; 63
    25be:	08 95       	ret
    25c0:	01 97       	sbiw	r24, 0x01	; 1
    25c2:	08 95       	ret

000025c4 <serialEventRun()>:
_Z14serialEventRunv():
    25c4:	82 e1       	ldi	r24, 0x12	; 18
    25c6:	94 e1       	ldi	r25, 0x14	; 20
    25c8:	89 2b       	or	r24, r25
    25ca:	49 f0       	breq	.+18     	; 0x25de <serialEventRun()+0x1a>
    25cc:	80 e0       	ldi	r24, 0x00	; 0
    25ce:	90 e0       	ldi	r25, 0x00	; 0
    25d0:	89 2b       	or	r24, r25
    25d2:	29 f0       	breq	.+10     	; 0x25de <serialEventRun()+0x1a>
    25d4:	0e 94 12 14 	call	0x2824	; 0x2824 <Serial0_available()>
    25d8:	81 11       	cpse	r24, r1
    25da:	0e 94 00 00 	call	0	; 0x0 <__vectors>
    25de:	89 ea       	ldi	r24, 0xA9	; 169
    25e0:	94 e1       	ldi	r25, 0x14	; 20
    25e2:	89 2b       	or	r24, r25
    25e4:	49 f0       	breq	.+18     	; 0x25f8 <serialEventRun()+0x34>
    25e6:	80 e0       	ldi	r24, 0x00	; 0
    25e8:	90 e0       	ldi	r25, 0x00	; 0
    25ea:	89 2b       	or	r24, r25
    25ec:	29 f0       	breq	.+10     	; 0x25f8 <serialEventRun()+0x34>
    25ee:	0e 94 a9 14 	call	0x2952	; 0x2952 <Serial1_available()>
    25f2:	81 11       	cpse	r24, r1
    25f4:	0e 94 00 00 	call	0	; 0x0 <__vectors>
    25f8:	80 e0       	ldi	r24, 0x00	; 0
    25fa:	90 e0       	ldi	r25, 0x00	; 0
    25fc:	89 2b       	or	r24, r25
    25fe:	49 f0       	breq	.+18     	; 0x2612 <serialEventRun()+0x4e>
    2600:	80 e0       	ldi	r24, 0x00	; 0
    2602:	90 e0       	ldi	r25, 0x00	; 0
    2604:	89 2b       	or	r24, r25
    2606:	29 f0       	breq	.+10     	; 0x2612 <serialEventRun()+0x4e>
    2608:	0e 94 00 00 	call	0	; 0x0 <__vectors>
    260c:	81 11       	cpse	r24, r1
    260e:	0e 94 00 00 	call	0	; 0x0 <__vectors>
    2612:	80 e0       	ldi	r24, 0x00	; 0
    2614:	90 e0       	ldi	r25, 0x00	; 0
    2616:	89 2b       	or	r24, r25
    2618:	49 f0       	breq	.+18     	; 0x262c <serialEventRun()+0x68>
    261a:	80 e0       	ldi	r24, 0x00	; 0
    261c:	90 e0       	ldi	r25, 0x00	; 0
    261e:	89 2b       	or	r24, r25
    2620:	29 f0       	breq	.+10     	; 0x262c <serialEventRun()+0x68>
    2622:	0e 94 00 00 	call	0	; 0x0 <__vectors>
    2626:	81 11       	cpse	r24, r1
    2628:	0c 94 00 00 	jmp	0	; 0x0 <__vectors>
    262c:	08 95       	ret

0000262e <HardwareSerial::_tx_udr_empty_irq()>:
_ZN14HardwareSerial17_tx_udr_empty_irqEv():
    262e:	fc 01       	movw	r30, r24
    2630:	a4 8d       	ldd	r26, Z+28	; 0x1c
    2632:	a8 0f       	add	r26, r24
    2634:	b9 2f       	mov	r27, r25
    2636:	b1 1d       	adc	r27, r1
    2638:	a3 5a       	subi	r26, 0xA3	; 163
    263a:	bf 4f       	sbci	r27, 0xFF	; 255
    263c:	2c 91       	ld	r18, X
    263e:	84 8d       	ldd	r24, Z+28	; 0x1c
    2640:	90 e0       	ldi	r25, 0x00	; 0
    2642:	01 96       	adiw	r24, 0x01	; 1
    2644:	8f 73       	andi	r24, 0x3F	; 63
    2646:	99 27       	eor	r25, r25
    2648:	84 8f       	std	Z+28, r24	; 0x1c
    264a:	a6 89       	ldd	r26, Z+22	; 0x16
    264c:	b7 89       	ldd	r27, Z+23	; 0x17
    264e:	2c 93       	st	X, r18
    2650:	a0 89       	ldd	r26, Z+16	; 0x10
    2652:	b1 89       	ldd	r27, Z+17	; 0x11
    2654:	8c 91       	ld	r24, X
    2656:	80 64       	ori	r24, 0x40	; 64
    2658:	8c 93       	st	X, r24
    265a:	93 8d       	ldd	r25, Z+27	; 0x1b
    265c:	84 8d       	ldd	r24, Z+28	; 0x1c
    265e:	98 13       	cpse	r25, r24
    2660:	06 c0       	rjmp	.+12     	; 0x266e <HardwareSerial::_tx_udr_empty_irq()+0x40>
    2662:	02 88       	ldd	r0, Z+18	; 0x12
    2664:	f3 89       	ldd	r31, Z+19	; 0x13
    2666:	e0 2d       	mov	r30, r0
    2668:	80 81       	ld	r24, Z
    266a:	8f 7d       	andi	r24, 0xDF	; 223
    266c:	80 83       	st	Z, r24
    266e:	08 95       	ret

00002670 <HardwareSerial::flush()>:
_ZN14HardwareSerial5flushEv():
    2670:	cf 93       	push	r28
    2672:	df 93       	push	r29
    2674:	ec 01       	movw	r28, r24
    2676:	88 8d       	ldd	r24, Y+24	; 0x18
    2678:	88 23       	and	r24, r24
    267a:	b9 f0       	breq	.+46     	; 0x26aa <HardwareSerial::flush()+0x3a>
    267c:	aa 89       	ldd	r26, Y+18	; 0x12
    267e:	bb 89       	ldd	r27, Y+19	; 0x13
    2680:	e8 89       	ldd	r30, Y+16	; 0x10
    2682:	f9 89       	ldd	r31, Y+17	; 0x11
    2684:	8c 91       	ld	r24, X
    2686:	85 fd       	sbrc	r24, 5
    2688:	03 c0       	rjmp	.+6      	; 0x2690 <HardwareSerial::flush()+0x20>
    268a:	80 81       	ld	r24, Z
    268c:	86 fd       	sbrc	r24, 6
    268e:	0d c0       	rjmp	.+26     	; 0x26aa <HardwareSerial::flush()+0x3a>
    2690:	0f b6       	in	r0, 0x3f	; 63
    2692:	07 fc       	sbrc	r0, 7
    2694:	f7 cf       	rjmp	.-18     	; 0x2684 <HardwareSerial::flush()+0x14>
    2696:	8c 91       	ld	r24, X
    2698:	85 ff       	sbrs	r24, 5
    269a:	f2 cf       	rjmp	.-28     	; 0x2680 <HardwareSerial::flush()+0x10>
    269c:	80 81       	ld	r24, Z
    269e:	85 ff       	sbrs	r24, 5
    26a0:	ed cf       	rjmp	.-38     	; 0x267c <HardwareSerial::flush()+0xc>
    26a2:	ce 01       	movw	r24, r28
    26a4:	0e 94 17 13 	call	0x262e	; 0x262e <HardwareSerial::_tx_udr_empty_irq()>
    26a8:	e9 cf       	rjmp	.-46     	; 0x267c <HardwareSerial::flush()+0xc>
    26aa:	df 91       	pop	r29
    26ac:	cf 91       	pop	r28
    26ae:	08 95       	ret

000026b0 <HardwareSerial::write(unsigned char)>:
_ZN14HardwareSerial5writeEh():
    26b0:	ef 92       	push	r14
    26b2:	ff 92       	push	r15
    26b4:	0f 93       	push	r16
    26b6:	1f 93       	push	r17
    26b8:	cf 93       	push	r28
    26ba:	df 93       	push	r29
    26bc:	ec 01       	movw	r28, r24
    26be:	81 e0       	ldi	r24, 0x01	; 1
    26c0:	88 8f       	std	Y+24, r24	; 0x18
    26c2:	9b 8d       	ldd	r25, Y+27	; 0x1b
    26c4:	8c 8d       	ldd	r24, Y+28	; 0x1c
    26c6:	98 13       	cpse	r25, r24
    26c8:	16 c0       	rjmp	.+44     	; 0x26f6 <HardwareSerial::write(unsigned char)+0x46>
    26ca:	e8 89       	ldd	r30, Y+16	; 0x10
    26cc:	f9 89       	ldd	r31, Y+17	; 0x11
    26ce:	80 81       	ld	r24, Z
    26d0:	85 ff       	sbrs	r24, 5
    26d2:	11 c0       	rjmp	.+34     	; 0x26f6 <HardwareSerial::write(unsigned char)+0x46>
    26d4:	ee 89       	ldd	r30, Y+22	; 0x16
    26d6:	ff 89       	ldd	r31, Y+23	; 0x17
    26d8:	60 83       	st	Z, r22
    26da:	e8 89       	ldd	r30, Y+16	; 0x10
    26dc:	f9 89       	ldd	r31, Y+17	; 0x11
    26de:	80 81       	ld	r24, Z
    26e0:	80 64       	ori	r24, 0x40	; 64
    26e2:	80 83       	st	Z, r24
    26e4:	81 e0       	ldi	r24, 0x01	; 1
    26e6:	90 e0       	ldi	r25, 0x00	; 0
    26e8:	df 91       	pop	r29
    26ea:	cf 91       	pop	r28
    26ec:	1f 91       	pop	r17
    26ee:	0f 91       	pop	r16
    26f0:	ff 90       	pop	r15
    26f2:	ef 90       	pop	r14
    26f4:	08 95       	ret
    26f6:	f6 2e       	mov	r15, r22
    26f8:	0b 8d       	ldd	r16, Y+27	; 0x1b
    26fa:	10 e0       	ldi	r17, 0x00	; 0
    26fc:	0f 5f       	subi	r16, 0xFF	; 255
    26fe:	1f 4f       	sbci	r17, 0xFF	; 255
    2700:	0f 73       	andi	r16, 0x3F	; 63
    2702:	11 27       	eor	r17, r17
    2704:	e0 2e       	mov	r14, r16
    2706:	8c 8d       	ldd	r24, Y+28	; 0x1c
    2708:	8e 11       	cpse	r24, r14
    270a:	0c c0       	rjmp	.+24     	; 0x2724 <HardwareSerial::write(unsigned char)+0x74>
    270c:	0f b6       	in	r0, 0x3f	; 63
    270e:	07 fc       	sbrc	r0, 7
    2710:	fa cf       	rjmp	.-12     	; 0x2706 <HardwareSerial::write(unsigned char)+0x56>
    2712:	e8 89       	ldd	r30, Y+16	; 0x10
    2714:	f9 89       	ldd	r31, Y+17	; 0x11
    2716:	80 81       	ld	r24, Z
    2718:	85 ff       	sbrs	r24, 5
    271a:	f5 cf       	rjmp	.-22     	; 0x2706 <HardwareSerial::write(unsigned char)+0x56>
    271c:	ce 01       	movw	r24, r28
    271e:	0e 94 17 13 	call	0x262e	; 0x262e <HardwareSerial::_tx_udr_empty_irq()>
    2722:	f1 cf       	rjmp	.-30     	; 0x2706 <HardwareSerial::write(unsigned char)+0x56>
    2724:	eb 8d       	ldd	r30, Y+27	; 0x1b
    2726:	ec 0f       	add	r30, r28
    2728:	fd 2f       	mov	r31, r29
    272a:	f1 1d       	adc	r31, r1
    272c:	e3 5a       	subi	r30, 0xA3	; 163
    272e:	ff 4f       	sbci	r31, 0xFF	; 255
    2730:	f0 82       	st	Z, r15
    2732:	0b 8f       	std	Y+27, r16	; 0x1b
    2734:	ea 89       	ldd	r30, Y+18	; 0x12
    2736:	fb 89       	ldd	r31, Y+19	; 0x13
    2738:	80 81       	ld	r24, Z
    273a:	80 62       	ori	r24, 0x20	; 32
    273c:	d2 cf       	rjmp	.-92     	; 0x26e2 <HardwareSerial::write(unsigned char)+0x32>

0000273e <HardwareSerial::end()>:
_ZN14HardwareSerial3endEv():
C:\Users\DH\AppData\Local\Arduino15\packages\MegaCore\hardware\avr\2.2.0\cores\MCUdude_corefiles/HardwareSerial.cpp:139

void HardwareSerial::end()
{
    273e:	cf 93       	push	r28
    2740:	df 93       	push	r29
    2742:	ec 01       	movw	r28, r24
C:\Users\DH\AppData\Local\Arduino15\packages\MegaCore\hardware\avr\2.2.0\cores\MCUdude_corefiles/HardwareSerial.cpp:141
  // wait for transmission of outgoing data
  flush();
    2744:	e8 81       	ld	r30, Y
    2746:	f9 81       	ldd	r31, Y+1	; 0x01
    2748:	06 80       	ldd	r0, Z+6	; 0x06
    274a:	f7 81       	ldd	r31, Z+7	; 0x07
    274c:	e0 2d       	mov	r30, r0
    274e:	19 95       	eicall
C:\Users\DH\AppData\Local\Arduino15\packages\MegaCore\hardware\avr\2.2.0\cores\MCUdude_corefiles/HardwareSerial.cpp:143

  *_ucsrb &= ~_BV(RXEN0) & ~_BV(TXEN0) & ~_BV(RXCIE0) & ~_BV(UDRIE0);
    2750:	ea 89       	ldd	r30, Y+18	; 0x12
    2752:	fb 89       	ldd	r31, Y+19	; 0x13
    2754:	80 81       	ld	r24, Z
    2756:	87 74       	andi	r24, 0x47	; 71
    2758:	80 83       	st	Z, r24
C:\Users\DH\AppData\Local\Arduino15\packages\MegaCore\hardware\avr\2.2.0\cores\MCUdude_corefiles/HardwareSerial.cpp:146
  
  // clear any received data
  _rx_buffer_head = _rx_buffer_tail;
    275a:	8a 8d       	ldd	r24, Y+26	; 0x1a
    275c:	89 8f       	std	Y+25, r24	; 0x19
C:\Users\DH\AppData\Local\Arduino15\packages\MegaCore\hardware\avr\2.2.0\cores\MCUdude_corefiles/HardwareSerial.cpp:147
}
    275e:	df 91       	pop	r29
    2760:	cf 91       	pop	r28
    2762:	08 95       	ret

00002764 <__vector_25>:
__vector_25():
C:\Users\DH\AppData\Local\Arduino15\packages\MegaCore\hardware\avr\2.2.0\cores\MCUdude_corefiles/HardwareSerial0.cpp:50
#elif defined(USART_RX_vect)
  ISR(USART_RX_vect)
#else
  #error "Don't know what the Data Received vector is called for Serial"
#endif
  {
    2764:	1f 92       	push	r1
    2766:	0f 92       	push	r0
    2768:	0f b6       	in	r0, 0x3f	; 63
    276a:	0f 92       	push	r0
    276c:	11 24       	eor	r1, r1
    276e:	0b b6       	in	r0, 0x3b	; 59
    2770:	0f 92       	push	r0
    2772:	2f 93       	push	r18
    2774:	8f 93       	push	r24
    2776:	9f 93       	push	r25
    2778:	ef 93       	push	r30
    277a:	ff 93       	push	r31
_ZN14HardwareSerial16_rx_complete_irqEv():
C:\Users\DH\AppData\Local\Arduino15\packages\MegaCore\hardware\avr\2.2.0\cores\MCUdude_corefiles/HardwareSerial_private.h:100

// Actual interrupt handlers //////////////////////////////////////////////////////////////

void HardwareSerial::_rx_complete_irq(void)
{
  if (bit_is_clear(*_ucsra, UPE0)) {
    277c:	e0 91 10 04 	lds	r30, 0x0410	; 0x800410 <Serial+0x10>
    2780:	f0 91 11 04 	lds	r31, 0x0411	; 0x800411 <Serial+0x11>
    2784:	80 81       	ld	r24, Z
    2786:	e0 91 16 04 	lds	r30, 0x0416	; 0x800416 <Serial+0x16>
    278a:	f0 91 17 04 	lds	r31, 0x0417	; 0x800417 <Serial+0x17>
    278e:	82 fd       	sbrc	r24, 2
    2790:	1d c0       	rjmp	.+58     	; 0x27cc <__vector_25+0x68>
C:\Users\DH\AppData\Local\Arduino15\packages\MegaCore\hardware\avr\2.2.0\cores\MCUdude_corefiles/HardwareSerial_private.h:103
    // No Parity error, read byte and store it in the buffer if there is
    // room
    unsigned char c = *_udr;
    2792:	90 81       	ld	r25, Z
C:\Users\DH\AppData\Local\Arduino15\packages\MegaCore\hardware\avr\2.2.0\cores\MCUdude_corefiles/HardwareSerial_private.h:104
    rx_buffer_index_t i = (unsigned int)(_rx_buffer_head + 1) % SERIAL_RX_BUFFER_SIZE;
    2794:	80 91 19 04 	lds	r24, 0x0419	; 0x800419 <Serial+0x19>
    2798:	8f 5f       	subi	r24, 0xFF	; 255
    279a:	8f 73       	andi	r24, 0x3F	; 63
C:\Users\DH\AppData\Local\Arduino15\packages\MegaCore\hardware\avr\2.2.0\cores\MCUdude_corefiles/HardwareSerial_private.h:110

    // if we should be storing the received character into the location
    // just before the tail (meaning that the head would advance to the
    // current location of the tail), we're about to overflow the buffer
    // and so we don't write the character or advance the head.
    if (i != _rx_buffer_tail) {
    279c:	20 91 1a 04 	lds	r18, 0x041A	; 0x80041a <Serial+0x1a>
    27a0:	82 17       	cp	r24, r18
    27a2:	41 f0       	breq	.+16     	; 0x27b4 <__vector_25+0x50>
C:\Users\DH\AppData\Local\Arduino15\packages\MegaCore\hardware\avr\2.2.0\cores\MCUdude_corefiles/HardwareSerial_private.h:111
      _rx_buffer[_rx_buffer_head] = c;
    27a4:	e0 91 19 04 	lds	r30, 0x0419	; 0x800419 <Serial+0x19>
    27a8:	f0 e0       	ldi	r31, 0x00	; 0
    27aa:	e0 50       	subi	r30, 0x00	; 0
    27ac:	fc 4f       	sbci	r31, 0xFC	; 252
    27ae:	95 8f       	std	Z+29, r25	; 0x1d
C:\Users\DH\AppData\Local\Arduino15\packages\MegaCore\hardware\avr\2.2.0\cores\MCUdude_corefiles/HardwareSerial_private.h:112
      _rx_buffer_head = i;
    27b0:	80 93 19 04 	sts	0x0419, r24	; 0x800419 <Serial+0x19>
__vector_25():
C:\Users\DH\AppData\Local\Arduino15\packages\MegaCore\hardware\avr\2.2.0\cores\MCUdude_corefiles/HardwareSerial0.cpp:52
    Serial._rx_complete_irq();
  }
    27b4:	ff 91       	pop	r31
    27b6:	ef 91       	pop	r30
    27b8:	9f 91       	pop	r25
    27ba:	8f 91       	pop	r24
    27bc:	2f 91       	pop	r18
    27be:	0f 90       	pop	r0
    27c0:	0b be       	out	0x3b, r0	; 59
    27c2:	0f 90       	pop	r0
    27c4:	0f be       	out	0x3f, r0	; 63
    27c6:	0f 90       	pop	r0
    27c8:	1f 90       	pop	r1
    27ca:	18 95       	reti
_ZN14HardwareSerial16_rx_complete_irqEv():
C:\Users\DH\AppData\Local\Arduino15\packages\MegaCore\hardware\avr\2.2.0\cores\MCUdude_corefiles/HardwareSerial_private.h:116
    }
  } else {
    // Parity error, read byte but discard it
    *_udr;
    27cc:	80 81       	ld	r24, Z
__vector_25():
C:\Users\DH\AppData\Local\Arduino15\packages\MegaCore\hardware\avr\2.2.0\cores\MCUdude_corefiles/HardwareSerial0.cpp:52
    27ce:	f2 cf       	rjmp	.-28     	; 0x27b4 <__vector_25+0x50>

000027d0 <__vector_26>:
__vector_26():
C:\Users\DH\AppData\Local\Arduino15\packages\MegaCore\hardware\avr\2.2.0\cores\MCUdude_corefiles/HardwareSerial0.cpp:63
#elif defined(USART0_UDRE_vect)
ISR(USART0_UDRE_vect)
#else
  #error "Don't know what the Data Register Empty vector is called for Serial"
#endif
{
    27d0:	1f 92       	push	r1
    27d2:	0f 92       	push	r0
    27d4:	0f b6       	in	r0, 0x3f	; 63
    27d6:	0f 92       	push	r0
    27d8:	11 24       	eor	r1, r1
    27da:	0b b6       	in	r0, 0x3b	; 59
    27dc:	0f 92       	push	r0
    27de:	2f 93       	push	r18
    27e0:	3f 93       	push	r19
    27e2:	4f 93       	push	r20
    27e4:	5f 93       	push	r21
    27e6:	6f 93       	push	r22
    27e8:	7f 93       	push	r23
    27ea:	8f 93       	push	r24
    27ec:	9f 93       	push	r25
    27ee:	af 93       	push	r26
    27f0:	bf 93       	push	r27
    27f2:	ef 93       	push	r30
    27f4:	ff 93       	push	r31
C:\Users\DH\AppData\Local\Arduino15\packages\MegaCore\hardware\avr\2.2.0\cores\MCUdude_corefiles/HardwareSerial0.cpp:64
  Serial._tx_udr_empty_irq();
    27f6:	80 e0       	ldi	r24, 0x00	; 0
    27f8:	94 e0       	ldi	r25, 0x04	; 4
    27fa:	0e 94 17 13 	call	0x262e	; 0x262e <HardwareSerial::_tx_udr_empty_irq()>
C:\Users\DH\AppData\Local\Arduino15\packages\MegaCore\hardware\avr\2.2.0\cores\MCUdude_corefiles/HardwareSerial0.cpp:65
}
    27fe:	ff 91       	pop	r31
    2800:	ef 91       	pop	r30
    2802:	bf 91       	pop	r27
    2804:	af 91       	pop	r26
    2806:	9f 91       	pop	r25
    2808:	8f 91       	pop	r24
    280a:	7f 91       	pop	r23
    280c:	6f 91       	pop	r22
    280e:	5f 91       	pop	r21
    2810:	4f 91       	pop	r20
    2812:	3f 91       	pop	r19
    2814:	2f 91       	pop	r18
    2816:	0f 90       	pop	r0
    2818:	0b be       	out	0x3b, r0	; 59
    281a:	0f 90       	pop	r0
    281c:	0f be       	out	0x3f, r0	; 63
    281e:	0f 90       	pop	r0
    2820:	1f 90       	pop	r1
    2822:	18 95       	reti

00002824 <Serial0_available()>:
_Z17Serial0_availablev():
C:\Users\DH\AppData\Local\Arduino15\packages\MegaCore\hardware\avr\2.2.0\cores\MCUdude_corefiles/HardwareSerial0.cpp:76
#endif

// Function that can be weakly referenced by serialEventRun to prevent
// pulling in this file if it's not otherwise used.
bool Serial0_available() {
  return Serial.available();
    2824:	80 e0       	ldi	r24, 0x00	; 0
    2826:	94 e0       	ldi	r25, 0x04	; 4
    2828:	0e 94 a5 12 	call	0x254a	; 0x254a <HardwareSerial::available()>
    282c:	21 e0       	ldi	r18, 0x01	; 1
    282e:	89 2b       	or	r24, r25
    2830:	09 f4       	brne	.+2      	; 0x2834 <Serial0_available()+0x10>
    2832:	20 e0       	ldi	r18, 0x00	; 0
C:\Users\DH\AppData\Local\Arduino15\packages\MegaCore\hardware\avr\2.2.0\cores\MCUdude_corefiles/HardwareSerial0.cpp:77
}
    2834:	82 2f       	mov	r24, r18
    2836:	08 95       	ret

00002838 <_GLOBAL__sub_I___vector_25>:
_ZN5PrintC4Ev():
C:\Users\DH\AppData\Local\Arduino15\packages\MegaCore\hardware\avr\2.2.0\cores\MCUdude_corefiles/Print.h:46
    2838:	e0 e0       	ldi	r30, 0x00	; 0
    283a:	f4 e0       	ldi	r31, 0x04	; 4
    283c:	13 82       	std	Z+3, r1	; 0x03
    283e:	12 82       	std	Z+2, r1	; 0x02
_ZN6StreamC4Ev():
C:\Users\DH\AppData\Local\Arduino15\packages\MegaCore\hardware\avr\2.2.0\cores\MCUdude_corefiles/Stream.h:63
    2840:	88 ee       	ldi	r24, 0xE8	; 232
    2842:	93 e0       	ldi	r25, 0x03	; 3
    2844:	a0 e0       	ldi	r26, 0x00	; 0
    2846:	b0 e0       	ldi	r27, 0x00	; 0
    2848:	84 83       	std	Z+4, r24	; 0x04
    284a:	95 83       	std	Z+5, r25	; 0x05
    284c:	a6 83       	std	Z+6, r26	; 0x06
    284e:	b7 83       	std	Z+7, r27	; 0x07
_ZN14HardwareSerialC4EPVhS1_S1_S1_S1_S1_():
C:\Users\DH\AppData\Local\Arduino15\packages\MegaCore\hardware\avr\2.2.0\cores\MCUdude_corefiles/HardwareSerial_private.h:92
  volatile uint8_t *ucsrc, volatile uint8_t *udr) :
    _ubrrh(ubrrh), _ubrrl(ubrrl),
    _ucsra(ucsra), _ucsrb(ucsrb), _ucsrc(ucsrc),
    _udr(udr),
    _rx_buffer_head(0), _rx_buffer_tail(0),
    _tx_buffer_head(0), _tx_buffer_tail(0)
    2850:	85 e6       	ldi	r24, 0x65	; 101
    2852:	92 e0       	ldi	r25, 0x02	; 2
    2854:	91 83       	std	Z+1, r25	; 0x01
    2856:	80 83       	st	Z, r24
    2858:	85 ec       	ldi	r24, 0xC5	; 197
    285a:	90 e0       	ldi	r25, 0x00	; 0
    285c:	95 87       	std	Z+13, r25	; 0x0d
    285e:	84 87       	std	Z+12, r24	; 0x0c
    2860:	84 ec       	ldi	r24, 0xC4	; 196
    2862:	90 e0       	ldi	r25, 0x00	; 0
    2864:	97 87       	std	Z+15, r25	; 0x0f
    2866:	86 87       	std	Z+14, r24	; 0x0e
    2868:	80 ec       	ldi	r24, 0xC0	; 192
    286a:	90 e0       	ldi	r25, 0x00	; 0
    286c:	91 8b       	std	Z+17, r25	; 0x11
    286e:	80 8b       	std	Z+16, r24	; 0x10
    2870:	81 ec       	ldi	r24, 0xC1	; 193
    2872:	90 e0       	ldi	r25, 0x00	; 0
    2874:	93 8b       	std	Z+19, r25	; 0x13
    2876:	82 8b       	std	Z+18, r24	; 0x12
    2878:	82 ec       	ldi	r24, 0xC2	; 194
    287a:	90 e0       	ldi	r25, 0x00	; 0
    287c:	95 8b       	std	Z+21, r25	; 0x15
    287e:	84 8b       	std	Z+20, r24	; 0x14
    2880:	86 ec       	ldi	r24, 0xC6	; 198
    2882:	90 e0       	ldi	r25, 0x00	; 0
    2884:	97 8b       	std	Z+23, r25	; 0x17
    2886:	86 8b       	std	Z+22, r24	; 0x16
    2888:	11 8e       	std	Z+25, r1	; 0x19
    288a:	12 8e       	std	Z+26, r1	; 0x1a
    288c:	13 8e       	std	Z+27, r1	; 0x1b
    288e:	14 8e       	std	Z+28, r1	; 0x1c
_GLOBAL__sub_I___vector_25():
C:\Users\DH\AppData\Local\Arduino15\packages\MegaCore\hardware\avr\2.2.0\cores\MCUdude_corefiles/HardwareSerial0.cpp:77
    2890:	08 95       	ret

00002892 <__vector_36>:
__vector_36():
C:\Users\DH\AppData\Local\Arduino15\packages\MegaCore\hardware\avr\2.2.0\cores\MCUdude_corefiles/HardwareSerial1.cpp:48
#elif defined(USART1_RXC_vect)
ISR(USART1_RXC_vect)
#else
#error "Don't know what the Data Register Empty vector is called for Serial1"
#endif
{
    2892:	1f 92       	push	r1
    2894:	0f 92       	push	r0
    2896:	0f b6       	in	r0, 0x3f	; 63
    2898:	0f 92       	push	r0
    289a:	11 24       	eor	r1, r1
    289c:	0b b6       	in	r0, 0x3b	; 59
    289e:	0f 92       	push	r0
    28a0:	2f 93       	push	r18
    28a2:	8f 93       	push	r24
    28a4:	9f 93       	push	r25
    28a6:	ef 93       	push	r30
    28a8:	ff 93       	push	r31
_ZN14HardwareSerial16_rx_complete_irqEv():
C:\Users\DH\AppData\Local\Arduino15\packages\MegaCore\hardware\avr\2.2.0\cores\MCUdude_corefiles/HardwareSerial_private.h:100

// Actual interrupt handlers //////////////////////////////////////////////////////////////

void HardwareSerial::_rx_complete_irq(void)
{
  if (bit_is_clear(*_ucsra, UPE0)) {
    28aa:	e0 91 ad 04 	lds	r30, 0x04AD	; 0x8004ad <Serial1+0x10>
    28ae:	f0 91 ae 04 	lds	r31, 0x04AE	; 0x8004ae <Serial1+0x11>
    28b2:	80 81       	ld	r24, Z
    28b4:	e0 91 b3 04 	lds	r30, 0x04B3	; 0x8004b3 <Serial1+0x16>
    28b8:	f0 91 b4 04 	lds	r31, 0x04B4	; 0x8004b4 <Serial1+0x17>
    28bc:	82 fd       	sbrc	r24, 2
    28be:	1d c0       	rjmp	.+58     	; 0x28fa <__vector_36+0x68>
C:\Users\DH\AppData\Local\Arduino15\packages\MegaCore\hardware\avr\2.2.0\cores\MCUdude_corefiles/HardwareSerial_private.h:103
    // No Parity error, read byte and store it in the buffer if there is
    // room
    unsigned char c = *_udr;
    28c0:	90 81       	ld	r25, Z
C:\Users\DH\AppData\Local\Arduino15\packages\MegaCore\hardware\avr\2.2.0\cores\MCUdude_corefiles/HardwareSerial_private.h:104
    rx_buffer_index_t i = (unsigned int)(_rx_buffer_head + 1) % SERIAL_RX_BUFFER_SIZE;
    28c2:	80 91 b6 04 	lds	r24, 0x04B6	; 0x8004b6 <Serial1+0x19>
    28c6:	8f 5f       	subi	r24, 0xFF	; 255
    28c8:	8f 73       	andi	r24, 0x3F	; 63
C:\Users\DH\AppData\Local\Arduino15\packages\MegaCore\hardware\avr\2.2.0\cores\MCUdude_corefiles/HardwareSerial_private.h:110

    // if we should be storing the received character into the location
    // just before the tail (meaning that the head would advance to the
    // current location of the tail), we're about to overflow the buffer
    // and so we don't write the character or advance the head.
    if (i != _rx_buffer_tail) {
    28ca:	20 91 b7 04 	lds	r18, 0x04B7	; 0x8004b7 <Serial1+0x1a>
    28ce:	82 17       	cp	r24, r18
    28d0:	41 f0       	breq	.+16     	; 0x28e2 <__vector_36+0x50>
C:\Users\DH\AppData\Local\Arduino15\packages\MegaCore\hardware\avr\2.2.0\cores\MCUdude_corefiles/HardwareSerial_private.h:111
      _rx_buffer[_rx_buffer_head] = c;
    28d2:	e0 91 b6 04 	lds	r30, 0x04B6	; 0x8004b6 <Serial1+0x19>
    28d6:	f0 e0       	ldi	r31, 0x00	; 0
    28d8:	e3 56       	subi	r30, 0x63	; 99
    28da:	fb 4f       	sbci	r31, 0xFB	; 251
    28dc:	95 8f       	std	Z+29, r25	; 0x1d
C:\Users\DH\AppData\Local\Arduino15\packages\MegaCore\hardware\avr\2.2.0\cores\MCUdude_corefiles/HardwareSerial_private.h:112
      _rx_buffer_head = i;
    28de:	80 93 b6 04 	sts	0x04B6, r24	; 0x8004b6 <Serial1+0x19>
__vector_36():
C:\Users\DH\AppData\Local\Arduino15\packages\MegaCore\hardware\avr\2.2.0\cores\MCUdude_corefiles/HardwareSerial1.cpp:50
  Serial1._rx_complete_irq();
}
    28e2:	ff 91       	pop	r31
    28e4:	ef 91       	pop	r30
    28e6:	9f 91       	pop	r25
    28e8:	8f 91       	pop	r24
    28ea:	2f 91       	pop	r18
    28ec:	0f 90       	pop	r0
    28ee:	0b be       	out	0x3b, r0	; 59
    28f0:	0f 90       	pop	r0
    28f2:	0f be       	out	0x3f, r0	; 63
    28f4:	0f 90       	pop	r0
    28f6:	1f 90       	pop	r1
    28f8:	18 95       	reti
_ZN14HardwareSerial16_rx_complete_irqEv():
C:\Users\DH\AppData\Local\Arduino15\packages\MegaCore\hardware\avr\2.2.0\cores\MCUdude_corefiles/HardwareSerial_private.h:116
    }
  } else {
    // Parity error, read byte but discard it
    *_udr;
    28fa:	80 81       	ld	r24, Z
__vector_36():
C:\Users\DH\AppData\Local\Arduino15\packages\MegaCore\hardware\avr\2.2.0\cores\MCUdude_corefiles/HardwareSerial1.cpp:50
    28fc:	f2 cf       	rjmp	.-28     	; 0x28e2 <__vector_36+0x50>

000028fe <__vector_37>:
__vector_37():
C:\Users\DH\AppData\Local\Arduino15\packages\MegaCore\hardware\avr\2.2.0\cores\MCUdude_corefiles/HardwareSerial1.cpp:59
#elif defined(USART1_UDRE_vect)
ISR(USART1_UDRE_vect)
#else
#error "Don't know what the Data Register Empty vector is called for Serial1"
#endif
{
    28fe:	1f 92       	push	r1
    2900:	0f 92       	push	r0
    2902:	0f b6       	in	r0, 0x3f	; 63
    2904:	0f 92       	push	r0
    2906:	11 24       	eor	r1, r1
    2908:	0b b6       	in	r0, 0x3b	; 59
    290a:	0f 92       	push	r0
    290c:	2f 93       	push	r18
    290e:	3f 93       	push	r19
    2910:	4f 93       	push	r20
    2912:	5f 93       	push	r21
    2914:	6f 93       	push	r22
    2916:	7f 93       	push	r23
    2918:	8f 93       	push	r24
    291a:	9f 93       	push	r25
    291c:	af 93       	push	r26
    291e:	bf 93       	push	r27
    2920:	ef 93       	push	r30
    2922:	ff 93       	push	r31
C:\Users\DH\AppData\Local\Arduino15\packages\MegaCore\hardware\avr\2.2.0\cores\MCUdude_corefiles/HardwareSerial1.cpp:60
  Serial1._tx_udr_empty_irq();
    2924:	8d e9       	ldi	r24, 0x9D	; 157
    2926:	94 e0       	ldi	r25, 0x04	; 4
    2928:	0e 94 17 13 	call	0x262e	; 0x262e <HardwareSerial::_tx_udr_empty_irq()>
C:\Users\DH\AppData\Local\Arduino15\packages\MegaCore\hardware\avr\2.2.0\cores\MCUdude_corefiles/HardwareSerial1.cpp:61
}
    292c:	ff 91       	pop	r31
    292e:	ef 91       	pop	r30
    2930:	bf 91       	pop	r27
    2932:	af 91       	pop	r26
    2934:	9f 91       	pop	r25
    2936:	8f 91       	pop	r24
    2938:	7f 91       	pop	r23
    293a:	6f 91       	pop	r22
    293c:	5f 91       	pop	r21
    293e:	4f 91       	pop	r20
    2940:	3f 91       	pop	r19
    2942:	2f 91       	pop	r18
    2944:	0f 90       	pop	r0
    2946:	0b be       	out	0x3b, r0	; 59
    2948:	0f 90       	pop	r0
    294a:	0f be       	out	0x3f, r0	; 63
    294c:	0f 90       	pop	r0
    294e:	1f 90       	pop	r1
    2950:	18 95       	reti

00002952 <Serial1_available()>:
_Z17Serial1_availablev():
C:\Users\DH\AppData\Local\Arduino15\packages\MegaCore\hardware\avr\2.2.0\cores\MCUdude_corefiles/HardwareSerial1.cpp:68
HardwareSerial Serial1(&UBRR1H, &UBRR1L, &UCSR1A, &UCSR1B, &UCSR1C, &UDR1);

// Function that can be weakly referenced by serialEventRun to prevent
// pulling in this file if it's not otherwise used.
bool Serial1_available() {
  return Serial1.available();
    2952:	8d e9       	ldi	r24, 0x9D	; 157
    2954:	94 e0       	ldi	r25, 0x04	; 4
    2956:	0e 94 a5 12 	call	0x254a	; 0x254a <HardwareSerial::available()>
    295a:	21 e0       	ldi	r18, 0x01	; 1
    295c:	89 2b       	or	r24, r25
    295e:	09 f4       	brne	.+2      	; 0x2962 <Serial1_available()+0x10>
    2960:	20 e0       	ldi	r18, 0x00	; 0
C:\Users\DH\AppData\Local\Arduino15\packages\MegaCore\hardware\avr\2.2.0\cores\MCUdude_corefiles/HardwareSerial1.cpp:69
}
    2962:	82 2f       	mov	r24, r18
    2964:	08 95       	ret

00002966 <_GLOBAL__sub_I___vector_36>:
_ZN5PrintC4Ev():
C:\Users\DH\AppData\Local\Arduino15\packages\MegaCore\hardware\avr\2.2.0\cores\MCUdude_corefiles/Print.h:46
    2966:	ed e9       	ldi	r30, 0x9D	; 157
    2968:	f4 e0       	ldi	r31, 0x04	; 4
    296a:	13 82       	std	Z+3, r1	; 0x03
    296c:	12 82       	std	Z+2, r1	; 0x02
_ZN6StreamC4Ev():
C:\Users\DH\AppData\Local\Arduino15\packages\MegaCore\hardware\avr\2.2.0\cores\MCUdude_corefiles/Stream.h:63
    296e:	88 ee       	ldi	r24, 0xE8	; 232
    2970:	93 e0       	ldi	r25, 0x03	; 3
    2972:	a0 e0       	ldi	r26, 0x00	; 0
    2974:	b0 e0       	ldi	r27, 0x00	; 0
    2976:	84 83       	std	Z+4, r24	; 0x04
    2978:	95 83       	std	Z+5, r25	; 0x05
    297a:	a6 83       	std	Z+6, r26	; 0x06
    297c:	b7 83       	std	Z+7, r27	; 0x07
_ZN14HardwareSerialC4EPVhS1_S1_S1_S1_S1_():
C:\Users\DH\AppData\Local\Arduino15\packages\MegaCore\hardware\avr\2.2.0\cores\MCUdude_corefiles/HardwareSerial_private.h:92
  volatile uint8_t *ucsrc, volatile uint8_t *udr) :
    _ubrrh(ubrrh), _ubrrl(ubrrl),
    _ucsra(ucsra), _ucsrb(ucsrb), _ucsrc(ucsrc),
    _udr(udr),
    _rx_buffer_head(0), _rx_buffer_tail(0),
    _tx_buffer_head(0), _tx_buffer_tail(0)
    297e:	85 e6       	ldi	r24, 0x65	; 101
    2980:	92 e0       	ldi	r25, 0x02	; 2
    2982:	91 83       	std	Z+1, r25	; 0x01
    2984:	80 83       	st	Z, r24
    2986:	8d ec       	ldi	r24, 0xCD	; 205
    2988:	90 e0       	ldi	r25, 0x00	; 0
    298a:	95 87       	std	Z+13, r25	; 0x0d
    298c:	84 87       	std	Z+12, r24	; 0x0c
    298e:	8c ec       	ldi	r24, 0xCC	; 204
    2990:	90 e0       	ldi	r25, 0x00	; 0
    2992:	97 87       	std	Z+15, r25	; 0x0f
    2994:	86 87       	std	Z+14, r24	; 0x0e
    2996:	88 ec       	ldi	r24, 0xC8	; 200
    2998:	90 e0       	ldi	r25, 0x00	; 0
    299a:	91 8b       	std	Z+17, r25	; 0x11
    299c:	80 8b       	std	Z+16, r24	; 0x10
    299e:	89 ec       	ldi	r24, 0xC9	; 201
    29a0:	90 e0       	ldi	r25, 0x00	; 0
    29a2:	93 8b       	std	Z+19, r25	; 0x13
    29a4:	82 8b       	std	Z+18, r24	; 0x12
    29a6:	8a ec       	ldi	r24, 0xCA	; 202
    29a8:	90 e0       	ldi	r25, 0x00	; 0
    29aa:	95 8b       	std	Z+21, r25	; 0x15
    29ac:	84 8b       	std	Z+20, r24	; 0x14
    29ae:	8e ec       	ldi	r24, 0xCE	; 206
    29b0:	90 e0       	ldi	r25, 0x00	; 0
    29b2:	97 8b       	std	Z+23, r25	; 0x17
    29b4:	86 8b       	std	Z+22, r24	; 0x16
    29b6:	11 8e       	std	Z+25, r1	; 0x19
    29b8:	12 8e       	std	Z+26, r1	; 0x1a
    29ba:	13 8e       	std	Z+27, r1	; 0x1b
    29bc:	14 8e       	std	Z+28, r1	; 0x1c
_GLOBAL__sub_I___vector_36():
C:\Users\DH\AppData\Local\Arduino15\packages\MegaCore\hardware\avr\2.2.0\cores\MCUdude_corefiles/HardwareSerial1.cpp:69
    29be:	08 95       	ret

000029c0 <Print::write(unsigned char const*, unsigned int)>:
_ZN5Print5writeEPKhj():
C:\Users\DH\AppData\Local\Arduino15\packages\MegaCore\hardware\avr\2.2.0\cores\MCUdude_corefiles/Print.cpp:35

// Public Methods //////////////////////////////////////////////////////////////

/* default implementation: may be overridden */
size_t Print::write(const uint8_t *buffer, size_t size)
{
    29c0:	af 92       	push	r10
    29c2:	bf 92       	push	r11
    29c4:	cf 92       	push	r12
    29c6:	df 92       	push	r13
    29c8:	ef 92       	push	r14
    29ca:	ff 92       	push	r15
    29cc:	0f 93       	push	r16
    29ce:	1f 93       	push	r17
    29d0:	cf 93       	push	r28
    29d2:	df 93       	push	r29
    29d4:	6c 01       	movw	r12, r24
    29d6:	7b 01       	movw	r14, r22
    29d8:	8b 01       	movw	r16, r22
    29da:	04 0f       	add	r16, r20
    29dc:	15 1f       	adc	r17, r21
    29de:	eb 01       	movw	r28, r22
    29e0:	5e 01       	movw	r10, r28
    29e2:	ae 18       	sub	r10, r14
    29e4:	bf 08       	sbc	r11, r15
C:\Users\DH\AppData\Local\Arduino15\packages\MegaCore\hardware\avr\2.2.0\cores\MCUdude_corefiles/Print.cpp:37
  size_t n = 0;
  while (size--) {
    29e6:	c0 17       	cp	r28, r16
    29e8:	d1 07       	cpc	r29, r17
    29ea:	59 f0       	breq	.+22     	; 0x2a02 <Print::write(unsigned char const*, unsigned int)+0x42>
C:\Users\DH\AppData\Local\Arduino15\packages\MegaCore\hardware\avr\2.2.0\cores\MCUdude_corefiles/Print.cpp:38
    if (write(*buffer++)) n++;
    29ec:	69 91       	ld	r22, Y+
    29ee:	d6 01       	movw	r26, r12
    29f0:	ed 91       	ld	r30, X+
    29f2:	fc 91       	ld	r31, X
    29f4:	01 90       	ld	r0, Z+
    29f6:	f0 81       	ld	r31, Z
    29f8:	e0 2d       	mov	r30, r0
    29fa:	c6 01       	movw	r24, r12
    29fc:	19 95       	eicall
    29fe:	89 2b       	or	r24, r25
    2a00:	79 f7       	brne	.-34     	; 0x29e0 <Print::write(unsigned char const*, unsigned int)+0x20>
C:\Users\DH\AppData\Local\Arduino15\packages\MegaCore\hardware\avr\2.2.0\cores\MCUdude_corefiles/Print.cpp:42
    else break;
  }
  return n;
}
    2a02:	c5 01       	movw	r24, r10
    2a04:	df 91       	pop	r29
    2a06:	cf 91       	pop	r28
    2a08:	1f 91       	pop	r17
    2a0a:	0f 91       	pop	r16
    2a0c:	ff 90       	pop	r15
    2a0e:	ef 90       	pop	r14
    2a10:	df 90       	pop	r13
    2a12:	cf 90       	pop	r12
    2a14:	bf 90       	pop	r11
    2a16:	af 90       	pop	r10
    2a18:	08 95       	ret

00002a1a <tone(unsigned char, unsigned int, unsigned long)>:
_Z4tonehjm():
C:\Users\DH\AppData\Local\Arduino15\packages\MegaCore\hardware\avr\2.2.0\cores\MCUdude_corefiles/Tone.cpp:281


// Frequency (in hertz) and duration (in milliseconds).

void tone(uint8_t _pin, unsigned int frequency, unsigned long duration)
{
    2a1a:	4f 92       	push	r4
    2a1c:	5f 92       	push	r5
    2a1e:	6f 92       	push	r6
    2a20:	7f 92       	push	r7
    2a22:	8f 92       	push	r8
    2a24:	9f 92       	push	r9
    2a26:	af 92       	push	r10
    2a28:	bf 92       	push	r11
    2a2a:	cf 92       	push	r12
    2a2c:	df 92       	push	r13
    2a2e:	ef 92       	push	r14
    2a30:	ff 92       	push	r15
    2a32:	0f 93       	push	r16
    2a34:	1f 93       	push	r17
    2a36:	cf 93       	push	r28
    2a38:	df 93       	push	r29
    2a3a:	00 d0       	rcall	.+0      	; 0x2a3c <tone(unsigned char, unsigned int, unsigned long)+0x22>
    2a3c:	1f 92       	push	r1
    2a3e:	1f 92       	push	r1
    2a40:	cd b7       	in	r28, 0x3d	; 61
    2a42:	de b7       	in	r29, 0x3e	; 62
    2a44:	8b 01       	movw	r16, r22
    2a46:	29 01       	movw	r4, r18
    2a48:	3a 01       	movw	r6, r20
toneBegin():
C:\Users\DH\AppData\Local\Arduino15\packages\MegaCore\hardware\avr\2.2.0\cores\MCUdude_corefiles/Tone.cpp:171
{
  int8_t _timer = -1;

  // if we're already using the pin, the timer should be configured.
  for (int i = 0; i < AVAILABLE_TONE_PINS; i++) {
    if (tone_pins[i] == _pin) {
    2a4a:	90 91 04 02 	lds	r25, 0x0204	; 0x800204 <tone_pins>
    2a4e:	89 17       	cp	r24, r25
    2a50:	c9 f0       	breq	.+50     	; 0x2a84 <tone(unsigned char, unsigned int, unsigned long)+0x6a>
C:\Users\DH\AppData\Local\Arduino15\packages\MegaCore\hardware\avr\2.2.0\cores\MCUdude_corefiles/Tone.cpp:178
    }
  }

  // search for an unused timer.
  for (int i = 0; i < AVAILABLE_TONE_PINS; i++) {
    if (tone_pins[i] == 255) {
    2a52:	9f 3f       	cpi	r25, 0xFF	; 255
    2a54:	09 f4       	brne	.+2      	; 0x2a58 <tone(unsigned char, unsigned int, unsigned long)+0x3e>
    2a56:	eb c0       	rjmp	.+470    	; 0x2c2e <tone(unsigned char, unsigned int, unsigned long)+0x214>
_Z4tonehjm():
C:\Users\DH\AppData\Local\Arduino15\packages\MegaCore\hardware\avr\2.2.0\cores\MCUdude_corefiles/Tone.cpp:457
        break;
#endif

    }
  }
}
    2a58:	0f 90       	pop	r0
    2a5a:	0f 90       	pop	r0
    2a5c:	0f 90       	pop	r0
    2a5e:	0f 90       	pop	r0
    2a60:	0f 90       	pop	r0
    2a62:	df 91       	pop	r29
    2a64:	cf 91       	pop	r28
    2a66:	1f 91       	pop	r17
    2a68:	0f 91       	pop	r16
    2a6a:	ff 90       	pop	r15
    2a6c:	ef 90       	pop	r14
    2a6e:	df 90       	pop	r13
    2a70:	cf 90       	pop	r12
    2a72:	bf 90       	pop	r11
    2a74:	af 90       	pop	r10
    2a76:	9f 90       	pop	r9
    2a78:	8f 90       	pop	r8
    2a7a:	7f 90       	pop	r7
    2a7c:	6f 90       	pop	r6
    2a7e:	5f 90       	pop	r5
    2a80:	4f 90       	pop	r4
    2a82:	08 95       	ret
toneBegin():
C:\Users\DH\AppData\Local\Arduino15\packages\MegaCore\hardware\avr\2.2.0\cores\MCUdude_corefiles/Tone.cpp:172
  int8_t _timer = -1;

  // if we're already using the pin, the timer should be configured.
  for (int i = 0; i < AVAILABLE_TONE_PINS; i++) {
    if (tone_pins[i] == _pin) {
      return pgm_read_byte(tone_pin_to_timer_PGM + i);
    2a84:	e8 ef       	ldi	r30, 0xF8	; 248
    2a86:	f1 e0       	ldi	r31, 0x01	; 1
    2a88:	24 91       	lpm	r18, Z
    2a8a:	2d 83       	std	Y+5, r18	; 0x05
_Z4tonehjm():
C:\Users\DH\AppData\Local\Arduino15\packages\MegaCore\hardware\avr\2.2.0\cores\MCUdude_corefiles/Tone.cpp:289
  uint32_t ocr = 0;
  int8_t _timer;

  _timer = toneBegin(_pin);

  if (_timer >= 0)
    2a8c:	27 fd       	sbrc	r18, 7
    2a8e:	e4 cf       	rjmp	.-56     	; 0x2a58 <tone(unsigned char, unsigned int, unsigned long)+0x3e>
C:\Users\DH\AppData\Local\Arduino15\packages\MegaCore\hardware\avr\2.2.0\cores\MCUdude_corefiles/Tone.cpp:292
  {
    // Set the pinMode as OUTPUT
    pinMode(_pin, OUTPUT);
    2a90:	61 e0       	ldi	r22, 0x01	; 1
    2a92:	0e 94 7c 1c 	call	0x38f8	; 0x38f8 <pinMode>
C:\Users\DH\AppData\Local\Arduino15\packages\MegaCore\hardware\avr\2.2.0\cores\MCUdude_corefiles/Tone.cpp:295

    // if we are using an 8 bit timer, scan through prescalars to find the best fit
    if (_timer == 0 || _timer == 2)
    2a96:	2d 81       	ldd	r18, Y+5	; 0x05
    2a98:	22 23       	and	r18, r18
    2a9a:	21 f0       	breq	.+8      	; 0x2aa4 <tone(unsigned char, unsigned int, unsigned long)+0x8a>
C:\Users\DH\AppData\Local\Arduino15\packages\MegaCore\hardware\avr\2.2.0\cores\MCUdude_corefiles/Tone.cpp:295 (discriminator 1)
    2a9c:	8d 81       	ldd	r24, Y+5	; 0x05
    2a9e:	82 30       	cpi	r24, 0x02	; 2
    2aa0:	09 f0       	breq	.+2      	; 0x2aa4 <tone(unsigned char, unsigned int, unsigned long)+0x8a>
    2aa2:	e5 c1       	rjmp	.+970    	; 0x2e6e <tone(unsigned char, unsigned int, unsigned long)+0x454>
C:\Users\DH\AppData\Local\Arduino15\packages\MegaCore\hardware\avr\2.2.0\cores\MCUdude_corefiles/Tone.cpp:297
    {
      ocr = F_CPU / frequency / 2 - 1;
    2aa4:	48 01       	movw	r8, r16
    2aa6:	b1 2c       	mov	r11, r1
    2aa8:	a1 2c       	mov	r10, r1
    2aaa:	60 e0       	ldi	r22, 0x00	; 0
    2aac:	79 e0       	ldi	r23, 0x09	; 9
    2aae:	8d e3       	ldi	r24, 0x3D	; 61
    2ab0:	90 e0       	ldi	r25, 0x00	; 0
    2ab2:	a5 01       	movw	r20, r10
    2ab4:	98 01       	movw	r18, r16
    2ab6:	0e 94 32 1d 	call	0x3a64	; 0x3a64 <__divmodsi4>
    2aba:	29 83       	std	Y+1, r18	; 0x01
    2abc:	3a 83       	std	Y+2, r19	; 0x02
    2abe:	4b 83       	std	Y+3, r20	; 0x03
    2ac0:	5c 83       	std	Y+4, r21	; 0x04
    2ac2:	69 01       	movw	r12, r18
    2ac4:	7a 01       	movw	r14, r20
    2ac6:	91 e0       	ldi	r25, 0x01	; 1
    2ac8:	c9 1a       	sub	r12, r25
    2aca:	d1 08       	sbc	r13, r1
    2acc:	e1 08       	sbc	r14, r1
    2ace:	f1 08       	sbc	r15, r1
C:\Users\DH\AppData\Local\Arduino15\packages\MegaCore\hardware\avr\2.2.0\cores\MCUdude_corefiles/Tone.cpp:299
      prescalarbits = 0b001;  // ck/1: same for both timers
      if (ocr > 255)
    2ad0:	2f ef       	ldi	r18, 0xFF	; 255
    2ad2:	c2 16       	cp	r12, r18
    2ad4:	d1 04       	cpc	r13, r1
    2ad6:	e1 04       	cpc	r14, r1
    2ad8:	f1 04       	cpc	r15, r1
    2ada:	09 f0       	breq	.+2      	; 0x2ade <tone(unsigned char, unsigned int, unsigned long)+0xc4>
    2adc:	0c f4       	brge	.+2      	; 0x2ae0 <tone(unsigned char, unsigned int, unsigned long)+0xc6>
    2ade:	a8 c1       	rjmp	.+848    	; 0x2e30 <tone(unsigned char, unsigned int, unsigned long)+0x416>
C:\Users\DH\AppData\Local\Arduino15\packages\MegaCore\hardware\avr\2.2.0\cores\MCUdude_corefiles/Tone.cpp:301
      {
        ocr = F_CPU / frequency / 2 / 8 - 1;
    2ae0:	60 e2       	ldi	r22, 0x20	; 32
    2ae2:	71 ea       	ldi	r23, 0xA1	; 161
    2ae4:	87 e0       	ldi	r24, 0x07	; 7
    2ae6:	90 e0       	ldi	r25, 0x00	; 0
    2ae8:	a5 01       	movw	r20, r10
    2aea:	98 01       	movw	r18, r16
    2aec:	0e 94 32 1d 	call	0x3a64	; 0x3a64 <__divmodsi4>
    2af0:	69 01       	movw	r12, r18
    2af2:	7a 01       	movw	r14, r20
    2af4:	81 e0       	ldi	r24, 0x01	; 1
    2af6:	c8 1a       	sub	r12, r24
    2af8:	d1 08       	sbc	r13, r1
    2afa:	e1 08       	sbc	r14, r1
    2afc:	f1 08       	sbc	r15, r1
C:\Users\DH\AppData\Local\Arduino15\packages\MegaCore\hardware\avr\2.2.0\cores\MCUdude_corefiles/Tone.cpp:304
        prescalarbits = 0b010;  // ck/8: same for both timers

        if (_timer == TIMER_WITH_FULL_PRESCALER && ocr > 255)
    2afe:	9d 81       	ldd	r25, Y+5	; 0x05
    2b00:	92 30       	cpi	r25, 0x02	; 2
    2b02:	09 f0       	breq	.+2      	; 0x2b06 <tone(unsigned char, unsigned int, unsigned long)+0xec>
    2b04:	d6 c2       	rjmp	.+1452   	; 0x30b2 <tone(unsigned char, unsigned int, unsigned long)+0x698>
C:\Users\DH\AppData\Local\Arduino15\packages\MegaCore\hardware\avr\2.2.0\cores\MCUdude_corefiles/Tone.cpp:302 (discriminator 1)
      ocr = F_CPU / frequency / 2 - 1;
      prescalarbits = 0b001;  // ck/1: same for both timers
      if (ocr > 255)
      {
        ocr = F_CPU / frequency / 2 / 8 - 1;
        prescalarbits = 0b010;  // ck/8: same for both timers
    2b06:	82 e0       	ldi	r24, 0x02	; 2
C:\Users\DH\AppData\Local\Arduino15\packages\MegaCore\hardware\avr\2.2.0\cores\MCUdude_corefiles/Tone.cpp:304 (discriminator 1)

        if (_timer == TIMER_WITH_FULL_PRESCALER && ocr > 255)
    2b08:	2f ef       	ldi	r18, 0xFF	; 255
    2b0a:	c2 16       	cp	r12, r18
    2b0c:	d1 04       	cpc	r13, r1
    2b0e:	e1 04       	cpc	r14, r1
    2b10:	f1 04       	cpc	r15, r1
    2b12:	09 f0       	breq	.+2      	; 0x2b16 <tone(unsigned char, unsigned int, unsigned long)+0xfc>
    2b14:	0c f4       	brge	.+2      	; 0x2b18 <tone(unsigned char, unsigned int, unsigned long)+0xfe>
    2b16:	6f c0       	rjmp	.+222    	; 0x2bf6 <tone(unsigned char, unsigned int, unsigned long)+0x1dc>
C:\Users\DH\AppData\Local\Arduino15\packages\MegaCore\hardware\avr\2.2.0\cores\MCUdude_corefiles/Tone.cpp:306
        {
          ocr = F_CPU / frequency / 2 / 32 - 1;
    2b18:	68 e4       	ldi	r22, 0x48	; 72
    2b1a:	78 ee       	ldi	r23, 0xE8	; 232
    2b1c:	81 e0       	ldi	r24, 0x01	; 1
    2b1e:	90 e0       	ldi	r25, 0x00	; 0
    2b20:	a5 01       	movw	r20, r10
    2b22:	98 01       	movw	r18, r16
    2b24:	0e 94 32 1d 	call	0x3a64	; 0x3a64 <__divmodsi4>
    2b28:	69 01       	movw	r12, r18
    2b2a:	7a 01       	movw	r14, r20
    2b2c:	81 e0       	ldi	r24, 0x01	; 1
    2b2e:	c8 1a       	sub	r12, r24
    2b30:	d1 08       	sbc	r13, r1
    2b32:	e1 08       	sbc	r14, r1
    2b34:	f1 08       	sbc	r15, r1
C:\Users\DH\AppData\Local\Arduino15\packages\MegaCore\hardware\avr\2.2.0\cores\MCUdude_corefiles/Tone.cpp:307
          prescalarbits = 0b011;
    2b36:	83 e0       	ldi	r24, 0x03	; 3
C:\Users\DH\AppData\Local\Arduino15\packages\MegaCore\hardware\avr\2.2.0\cores\MCUdude_corefiles/Tone.cpp:310
        }

        if (ocr > 255)
    2b38:	9f ef       	ldi	r25, 0xFF	; 255
    2b3a:	c9 16       	cp	r12, r25
    2b3c:	d1 04       	cpc	r13, r1
    2b3e:	e1 04       	cpc	r14, r1
    2b40:	f1 04       	cpc	r15, r1
    2b42:	09 f0       	breq	.+2      	; 0x2b46 <tone(unsigned char, unsigned int, unsigned long)+0x12c>
    2b44:	0c f4       	brge	.+2      	; 0x2b48 <tone(unsigned char, unsigned int, unsigned long)+0x12e>
    2b46:	57 c0       	rjmp	.+174    	; 0x2bf6 <tone(unsigned char, unsigned int, unsigned long)+0x1dc>
C:\Users\DH\AppData\Local\Arduino15\packages\MegaCore\hardware\avr\2.2.0\cores\MCUdude_corefiles/Tone.cpp:312
        {
          ocr = F_CPU / frequency / 2 / 64 - 1;
    2b48:	64 e2       	ldi	r22, 0x24	; 36
    2b4a:	74 ef       	ldi	r23, 0xF4	; 244
    2b4c:	80 e0       	ldi	r24, 0x00	; 0
    2b4e:	90 e0       	ldi	r25, 0x00	; 0
    2b50:	a5 01       	movw	r20, r10
    2b52:	98 01       	movw	r18, r16
    2b54:	0e 94 32 1d 	call	0x3a64	; 0x3a64 <__divmodsi4>
    2b58:	69 01       	movw	r12, r18
    2b5a:	7a 01       	movw	r14, r20
    2b5c:	81 e0       	ldi	r24, 0x01	; 1
    2b5e:	c8 1a       	sub	r12, r24
    2b60:	d1 08       	sbc	r13, r1
    2b62:	e1 08       	sbc	r14, r1
    2b64:	f1 08       	sbc	r15, r1
C:\Users\DH\AppData\Local\Arduino15\packages\MegaCore\hardware\avr\2.2.0\cores\MCUdude_corefiles/Tone.cpp:313
          prescalarbits = _timer != TIMER_WITH_FULL_PRESCALER ? 0b011 : 0b100;
    2b66:	84 e0       	ldi	r24, 0x04	; 4
C:\Users\DH\AppData\Local\Arduino15\packages\MegaCore\hardware\avr\2.2.0\cores\MCUdude_corefiles/Tone.cpp:315

          if (_timer == TIMER_WITH_FULL_PRESCALER && ocr > 255)
    2b68:	9f ef       	ldi	r25, 0xFF	; 255
    2b6a:	c9 16       	cp	r12, r25
    2b6c:	d1 04       	cpc	r13, r1
    2b6e:	e1 04       	cpc	r14, r1
    2b70:	f1 04       	cpc	r15, r1
    2b72:	09 f0       	breq	.+2      	; 0x2b76 <tone(unsigned char, unsigned int, unsigned long)+0x15c>
    2b74:	08 f4       	brcc	.+2      	; 0x2b78 <tone(unsigned char, unsigned int, unsigned long)+0x15e>
    2b76:	3f c0       	rjmp	.+126    	; 0x2bf6 <tone(unsigned char, unsigned int, unsigned long)+0x1dc>
C:\Users\DH\AppData\Local\Arduino15\packages\MegaCore\hardware\avr\2.2.0\cores\MCUdude_corefiles/Tone.cpp:317
          {
            ocr = F_CPU / frequency / 2 / 128 - 1;
    2b78:	62 e1       	ldi	r22, 0x12	; 18
    2b7a:	7a e7       	ldi	r23, 0x7A	; 122
    2b7c:	80 e0       	ldi	r24, 0x00	; 0
    2b7e:	90 e0       	ldi	r25, 0x00	; 0
    2b80:	a5 01       	movw	r20, r10
    2b82:	98 01       	movw	r18, r16
    2b84:	0e 94 32 1d 	call	0x3a64	; 0x3a64 <__divmodsi4>
    2b88:	69 01       	movw	r12, r18
    2b8a:	7a 01       	movw	r14, r20
    2b8c:	81 e0       	ldi	r24, 0x01	; 1
    2b8e:	c8 1a       	sub	r12, r24
    2b90:	d1 08       	sbc	r13, r1
    2b92:	e1 08       	sbc	r14, r1
    2b94:	f1 08       	sbc	r15, r1
C:\Users\DH\AppData\Local\Arduino15\packages\MegaCore\hardware\avr\2.2.0\cores\MCUdude_corefiles/Tone.cpp:318
            prescalarbits = 0b101;
    2b96:	85 e0       	ldi	r24, 0x05	; 5
C:\Users\DH\AppData\Local\Arduino15\packages\MegaCore\hardware\avr\2.2.0\cores\MCUdude_corefiles/Tone.cpp:321
          }

          if (ocr > 255)
    2b98:	9f ef       	ldi	r25, 0xFF	; 255
    2b9a:	c9 16       	cp	r12, r25
    2b9c:	d1 04       	cpc	r13, r1
    2b9e:	e1 04       	cpc	r14, r1
    2ba0:	f1 04       	cpc	r15, r1
    2ba2:	49 f1       	breq	.+82     	; 0x2bf6 <tone(unsigned char, unsigned int, unsigned long)+0x1dc>
    2ba4:	40 f1       	brcs	.+80     	; 0x2bf6 <tone(unsigned char, unsigned int, unsigned long)+0x1dc>
C:\Users\DH\AppData\Local\Arduino15\packages\MegaCore\hardware\avr\2.2.0\cores\MCUdude_corefiles/Tone.cpp:323
          {
            ocr = F_CPU / frequency / 2 / 256 - 1;
    2ba6:	69 e0       	ldi	r22, 0x09	; 9
    2ba8:	7d e3       	ldi	r23, 0x3D	; 61
    2baa:	80 e0       	ldi	r24, 0x00	; 0
    2bac:	90 e0       	ldi	r25, 0x00	; 0
    2bae:	a5 01       	movw	r20, r10
    2bb0:	98 01       	movw	r18, r16
    2bb2:	0e 94 32 1d 	call	0x3a64	; 0x3a64 <__divmodsi4>
    2bb6:	69 01       	movw	r12, r18
    2bb8:	7a 01       	movw	r14, r20
    2bba:	81 e0       	ldi	r24, 0x01	; 1
    2bbc:	c8 1a       	sub	r12, r24
    2bbe:	d1 08       	sbc	r13, r1
    2bc0:	e1 08       	sbc	r14, r1
    2bc2:	f1 08       	sbc	r15, r1
C:\Users\DH\AppData\Local\Arduino15\packages\MegaCore\hardware\avr\2.2.0\cores\MCUdude_corefiles/Tone.cpp:324
            prescalarbits = _timer != TIMER_WITH_FULL_PRESCALER ? 0b100 : 0b110;
    2bc4:	86 e0       	ldi	r24, 0x06	; 6
C:\Users\DH\AppData\Local\Arduino15\packages\MegaCore\hardware\avr\2.2.0\cores\MCUdude_corefiles/Tone.cpp:325
            if (ocr > 255)
    2bc6:	9f ef       	ldi	r25, 0xFF	; 255
    2bc8:	c9 16       	cp	r12, r25
    2bca:	d1 04       	cpc	r13, r1
    2bcc:	e1 04       	cpc	r14, r1
    2bce:	f1 04       	cpc	r15, r1
    2bd0:	91 f0       	breq	.+36     	; 0x2bf6 <tone(unsigned char, unsigned int, unsigned long)+0x1dc>
    2bd2:	88 f0       	brcs	.+34     	; 0x2bf6 <tone(unsigned char, unsigned int, unsigned long)+0x1dc>
C:\Users\DH\AppData\Local\Arduino15\packages\MegaCore\hardware\avr\2.2.0\cores\MCUdude_corefiles/Tone.cpp:328
            {
              // Can't do any better than /1024
              ocr = F_CPU / frequency / 2 / 1024 - 1;
    2bd4:	c9 80       	ldd	r12, Y+1	; 0x01
    2bd6:	da 80       	ldd	r13, Y+2	; 0x02
    2bd8:	eb 80       	ldd	r14, Y+3	; 0x03
    2bda:	fc 80       	ldd	r15, Y+4	; 0x04
    2bdc:	8a e0       	ldi	r24, 0x0A	; 10
    2bde:	f5 94       	asr	r15
    2be0:	e7 94       	ror	r14
    2be2:	d7 94       	ror	r13
    2be4:	c7 94       	ror	r12
    2be6:	8a 95       	dec	r24
    2be8:	d1 f7       	brne	.-12     	; 0x2bde <tone(unsigned char, unsigned int, unsigned long)+0x1c4>
    2bea:	91 e0       	ldi	r25, 0x01	; 1
    2bec:	c9 1a       	sub	r12, r25
    2bee:	d1 08       	sbc	r13, r1
    2bf0:	e1 08       	sbc	r14, r1
    2bf2:	f1 08       	sbc	r15, r1
C:\Users\DH\AppData\Local\Arduino15\packages\MegaCore\hardware\avr\2.2.0\cores\MCUdude_corefiles/Tone.cpp:329
              prescalarbits = _timer != TIMER_WITH_FULL_PRESCALER ? 0b101 : 0b111;
    2bf4:	87 e0       	ldi	r24, 0x07	; 7
C:\Users\DH\AppData\Local\Arduino15\packages\MegaCore\hardware\avr\2.2.0\cores\MCUdude_corefiles/Tone.cpp:344
      }
      else
#endif
#if defined(TCCR2B)
      {
        TCCR2B = (TCCR2B & 0b11111000) | prescalarbits;
    2bf6:	90 91 b1 00 	lds	r25, 0x00B1	; 0x8000b1 <__TEXT_REGION_LENGTH__+0x7000b1>
    2bfa:	98 7f       	andi	r25, 0xF8	; 248
    2bfc:	89 2b       	or	r24, r25
    2bfe:	80 93 b1 00 	sts	0x00B1, r24	; 0x8000b1 <__TEXT_REGION_LENGTH__+0x7000b1>
C:\Users\DH\AppData\Local\Arduino15\packages\MegaCore\hardware\avr\2.2.0\cores\MCUdude_corefiles/Tone.cpp:393
    {
      toggle_count = 2 * frequency * duration / 1000;
    }
    else
    {
      toggle_count = -1;
    2c02:	2f ef       	ldi	r18, 0xFF	; 255
    2c04:	3f ef       	ldi	r19, 0xFF	; 255
    2c06:	a9 01       	movw	r20, r18
C:\Users\DH\AppData\Local\Arduino15\packages\MegaCore\hardware\avr\2.2.0\cores\MCUdude_corefiles/Tone.cpp:387

    }


    // Calculate the toggle count
    if (duration > 0)
    2c08:	41 14       	cp	r4, r1
    2c0a:	51 04       	cpc	r5, r1
    2c0c:	61 04       	cpc	r6, r1
    2c0e:	71 04       	cpc	r7, r1
    2c10:	09 f0       	breq	.+2      	; 0x2c14 <tone(unsigned char, unsigned int, unsigned long)+0x1fa>
    2c12:	1f c1       	rjmp	.+574    	; 0x2e52 <tone(unsigned char, unsigned int, unsigned long)+0x438>
C:\Users\DH\AppData\Local\Arduino15\packages\MegaCore\hardware\avr\2.2.0\cores\MCUdude_corefiles/Tone.cpp:399
    }

    // Set the OCR for the given timer,
    // set the toggle count,
    // then turn on the interrupts
    switch (_timer)
    2c14:	9d 81       	ldd	r25, Y+5	; 0x05
    2c16:	92 30       	cpi	r25, 0x02	; 2
    2c18:	09 f4       	brne	.+2      	; 0x2c1c <tone(unsigned char, unsigned int, unsigned long)+0x202>
    2c1a:	f9 c1       	rjmp	.+1010   	; 0x300e <tone(unsigned char, unsigned int, unsigned long)+0x5f4>
    2c1c:	0c f0       	brlt	.+2      	; 0x2c20 <tone(unsigned char, unsigned int, unsigned long)+0x206>
    2c1e:	e0 c1       	rjmp	.+960    	; 0x2fe0 <tone(unsigned char, unsigned int, unsigned long)+0x5c6>
    2c20:	99 23       	and	r25, r25
    2c22:	09 f4       	brne	.+2      	; 0x2c26 <tone(unsigned char, unsigned int, unsigned long)+0x20c>
    2c24:	e5 c1       	rjmp	.+970    	; 0x2ff0 <tone(unsigned char, unsigned int, unsigned long)+0x5d6>
    2c26:	91 30       	cpi	r25, 0x01	; 1
    2c28:	09 f4       	brne	.+2      	; 0x2c2c <tone(unsigned char, unsigned int, unsigned long)+0x212>
    2c2a:	4a c1       	rjmp	.+660    	; 0x2ec0 <tone(unsigned char, unsigned int, unsigned long)+0x4a6>
    2c2c:	15 cf       	rjmp	.-470    	; 0x2a58 <tone(unsigned char, unsigned int, unsigned long)+0x3e>
toneBegin():
C:\Users\DH\AppData\Local\Arduino15\packages\MegaCore\hardware\avr\2.2.0\cores\MCUdude_corefiles/Tone.cpp:179
  }

  // search for an unused timer.
  for (int i = 0; i < AVAILABLE_TONE_PINS; i++) {
    if (tone_pins[i] == 255) {
      tone_pins[i] = _pin;
    2c2e:	80 93 04 02 	sts	0x0204, r24	; 0x800204 <tone_pins>
C:\Users\DH\AppData\Local\Arduino15\packages\MegaCore\hardware\avr\2.2.0\cores\MCUdude_corefiles/Tone.cpp:180
      _timer = pgm_read_byte(tone_pin_to_timer_PGM + i);
    2c32:	e8 ef       	ldi	r30, 0xF8	; 248
    2c34:	f1 e0       	ldi	r31, 0x01	; 1
    2c36:	94 91       	lpm	r25, Z
    2c38:	9d 83       	std	Y+5, r25	; 0x05
C:\Users\DH\AppData\Local\Arduino15\packages\MegaCore\hardware\avr\2.2.0\cores\MCUdude_corefiles/Tone.cpp:185
      break;
    }
  }

  if (_timer != -1)
    2c3a:	9f 3f       	cpi	r25, 0xFF	; 255
    2c3c:	09 f4       	brne	.+2      	; 0x2c40 <tone(unsigned char, unsigned int, unsigned long)+0x226>
    2c3e:	0c cf       	rjmp	.-488    	; 0x2a58 <tone(unsigned char, unsigned int, unsigned long)+0x3e>
C:\Users\DH\AppData\Local\Arduino15\packages\MegaCore\hardware\avr\2.2.0\cores\MCUdude_corefiles/Tone.cpp:191
  {
    // Set timer specific stuff
    // All timers in CTC mode
    // 8 bit timers will require changing prescalar values,
    // whereas 16 bit timers are set to either ck/1 or ck/64 prescalar
    switch (_timer)
    2c40:	92 30       	cpi	r25, 0x02	; 2
    2c42:	09 f4       	brne	.+2      	; 0x2c46 <tone(unsigned char, unsigned int, unsigned long)+0x22c>
    2c44:	81 c0       	rjmp	.+258    	; 0x2d48 <tone(unsigned char, unsigned int, unsigned long)+0x32e>
    2c46:	60 f4       	brcc	.+24     	; 0x2c60 <tone(unsigned char, unsigned int, unsigned long)+0x246>
    2c48:	99 23       	and	r25, r25
    2c4a:	09 f4       	brne	.+2      	; 0x2c4e <tone(unsigned char, unsigned int, unsigned long)+0x234>
    2c4c:	37 c0       	rjmp	.+110    	; 0x2cbc <tone(unsigned char, unsigned int, unsigned long)+0x2a2>
    2c4e:	91 30       	cpi	r25, 0x01	; 1
    2c50:	09 f4       	brne	.+2      	; 0x2c54 <tone(unsigned char, unsigned int, unsigned long)+0x23a>
    2c52:	54 c0       	rjmp	.+168    	; 0x2cfc <tone(unsigned char, unsigned int, unsigned long)+0x2e2>
_Z4tonehjm():
C:\Users\DH\AppData\Local\Arduino15\packages\MegaCore\hardware\avr\2.2.0\cores\MCUdude_corefiles/Tone.cpp:289
  uint32_t ocr = 0;
  int8_t _timer;

  _timer = toneBegin(_pin);

  if (_timer >= 0)
    2c54:	97 fd       	sbrc	r25, 7
    2c56:	00 cf       	rjmp	.-512    	; 0x2a58 <tone(unsigned char, unsigned int, unsigned long)+0x3e>
C:\Users\DH\AppData\Local\Arduino15\packages\MegaCore\hardware\avr\2.2.0\cores\MCUdude_corefiles/Tone.cpp:292
  {
    // Set the pinMode as OUTPUT
    pinMode(_pin, OUTPUT);
    2c58:	61 e0       	ldi	r22, 0x01	; 1
    2c5a:	0e 94 7c 1c 	call	0x38f8	; 0x38f8 <pinMode>
    2c5e:	1e cf       	rjmp	.-452    	; 0x2a9c <tone(unsigned char, unsigned int, unsigned long)+0x82>
toneBegin():
C:\Users\DH\AppData\Local\Arduino15\packages\MegaCore\hardware\avr\2.2.0\cores\MCUdude_corefiles/Tone.cpp:191
  {
    // Set timer specific stuff
    // All timers in CTC mode
    // 8 bit timers will require changing prescalar values,
    // whereas 16 bit timers are set to either ck/1 or ck/64 prescalar
    switch (_timer)
    2c60:	2d 81       	ldd	r18, Y+5	; 0x05
    2c62:	24 30       	cpi	r18, 0x04	; 4
    2c64:	09 f4       	brne	.+2      	; 0x2c68 <tone(unsigned char, unsigned int, unsigned long)+0x24e>
    2c66:	be c0       	rjmp	.+380    	; 0x2de4 <tone(unsigned char, unsigned int, unsigned long)+0x3ca>
    2c68:	08 f4       	brcc	.+2      	; 0x2c6c <tone(unsigned char, unsigned int, unsigned long)+0x252>
    2c6a:	94 c0       	rjmp	.+296    	; 0x2d94 <tone(unsigned char, unsigned int, unsigned long)+0x37a>
    2c6c:	25 30       	cpi	r18, 0x05	; 5
    2c6e:	91 f7       	brne	.-28     	; 0x2c54 <tone(unsigned char, unsigned int, unsigned long)+0x23a>
C:\Users\DH\AppData\Local\Arduino15\packages\MegaCore\hardware\avr\2.2.0\cores\MCUdude_corefiles/Tone.cpp:262
      #endif

      #if defined(TCCR5A) && defined(TCCR5B) &&  defined(TIMSK5)
      case 5:
        // 16 bit timer
        TCCR5A = 0;
    2c70:	10 92 20 01 	sts	0x0120, r1	; 0x800120 <__TEXT_REGION_LENGTH__+0x700120>
C:\Users\DH\AppData\Local\Arduino15\packages\MegaCore\hardware\avr\2.2.0\cores\MCUdude_corefiles/Tone.cpp:263
        TCCR5B = 0;
    2c74:	10 92 21 01 	sts	0x0121, r1	; 0x800121 <__TEXT_REGION_LENGTH__+0x700121>
C:\Users\DH\AppData\Local\Arduino15\packages\MegaCore\hardware\avr\2.2.0\cores\MCUdude_corefiles/Tone.cpp:264
        bitWrite(TCCR5B, WGM52, 1);
    2c78:	90 91 21 01 	lds	r25, 0x0121	; 0x800121 <__TEXT_REGION_LENGTH__+0x700121>
    2c7c:	98 60       	ori	r25, 0x08	; 8
    2c7e:	90 93 21 01 	sts	0x0121, r25	; 0x800121 <__TEXT_REGION_LENGTH__+0x700121>
C:\Users\DH\AppData\Local\Arduino15\packages\MegaCore\hardware\avr\2.2.0\cores\MCUdude_corefiles/Tone.cpp:265
        bitWrite(TCCR5B, CS50, 1);
    2c82:	90 91 21 01 	lds	r25, 0x0121	; 0x800121 <__TEXT_REGION_LENGTH__+0x700121>
    2c86:	91 60       	ori	r25, 0x01	; 1
    2c88:	90 93 21 01 	sts	0x0121, r25	; 0x800121 <__TEXT_REGION_LENGTH__+0x700121>
C:\Users\DH\AppData\Local\Arduino15\packages\MegaCore\hardware\avr\2.2.0\cores\MCUdude_corefiles/Tone.cpp:266
        timer5_pin_port = portOutputRegister(digitalPinToPort(_pin));
    2c8c:	28 2f       	mov	r18, r24
    2c8e:	30 e0       	ldi	r19, 0x00	; 0
    2c90:	f9 01       	movw	r30, r18
    2c92:	eb 55       	subi	r30, 0x5B	; 91
    2c94:	fd 4f       	sbci	r31, 0xFD	; 253
    2c96:	e4 91       	lpm	r30, Z
    2c98:	f0 e0       	ldi	r31, 0x00	; 0
    2c9a:	ee 0f       	add	r30, r30
    2c9c:	ff 1f       	adc	r31, r31
    2c9e:	eb 5e       	subi	r30, 0xEB	; 235
    2ca0:	fc 4f       	sbci	r31, 0xFC	; 252
    2ca2:	45 91       	lpm	r20, Z+
    2ca4:	54 91       	lpm	r21, Z
    2ca6:	50 93 3c 05 	sts	0x053C, r21	; 0x80053c <timer5_pin_port+0x1>
    2caa:	40 93 3b 05 	sts	0x053B, r20	; 0x80053b <timer5_pin_port>
C:\Users\DH\AppData\Local\Arduino15\packages\MegaCore\hardware\avr\2.2.0\cores\MCUdude_corefiles/Tone.cpp:267
        timer5_pin_mask = digitalPinToBitMask(_pin);
    2cae:	f9 01       	movw	r30, r18
    2cb0:	e1 5b       	subi	r30, 0xB1	; 177
    2cb2:	fd 4f       	sbci	r31, 0xFD	; 253
    2cb4:	e4 91       	lpm	r30, Z
    2cb6:	e0 93 3a 05 	sts	0x053A, r30	; 0x80053a <timer5_pin_mask>
    2cba:	ea ce       	rjmp	.-556    	; 0x2a90 <tone(unsigned char, unsigned int, unsigned long)+0x76>
C:\Users\DH\AppData\Local\Arduino15\packages\MegaCore\hardware\avr\2.2.0\cores\MCUdude_corefiles/Tone.cpp:196
    switch (_timer)
    {
      #if defined(TCCR0A) && defined(TCCR0B) && defined(WGM01)
      case 0:
        // 8 bit timer
        TCCR0A = 0;
    2cbc:	14 bc       	out	0x24, r1	; 36
C:\Users\DH\AppData\Local\Arduino15\packages\MegaCore\hardware\avr\2.2.0\cores\MCUdude_corefiles/Tone.cpp:197
        TCCR0B = 0;
    2cbe:	15 bc       	out	0x25, r1	; 37
C:\Users\DH\AppData\Local\Arduino15\packages\MegaCore\hardware\avr\2.2.0\cores\MCUdude_corefiles/Tone.cpp:198
        bitWrite(TCCR0A, WGM01, 1);
    2cc0:	94 b5       	in	r25, 0x24	; 36
    2cc2:	92 60       	ori	r25, 0x02	; 2
    2cc4:	94 bd       	out	0x24, r25	; 36
C:\Users\DH\AppData\Local\Arduino15\packages\MegaCore\hardware\avr\2.2.0\cores\MCUdude_corefiles/Tone.cpp:199
        bitWrite(TCCR0B, CS00, 1);
    2cc6:	95 b5       	in	r25, 0x25	; 37
    2cc8:	91 60       	ori	r25, 0x01	; 1
    2cca:	95 bd       	out	0x25, r25	; 37
C:\Users\DH\AppData\Local\Arduino15\packages\MegaCore\hardware\avr\2.2.0\cores\MCUdude_corefiles/Tone.cpp:200
        timer0_pin_port = portOutputRegister(digitalPinToPort(_pin));
    2ccc:	28 2f       	mov	r18, r24
    2cce:	30 e0       	ldi	r19, 0x00	; 0
    2cd0:	f9 01       	movw	r30, r18
    2cd2:	eb 55       	subi	r30, 0x5B	; 91
    2cd4:	fd 4f       	sbci	r31, 0xFD	; 253
    2cd6:	e4 91       	lpm	r30, Z
    2cd8:	f0 e0       	ldi	r31, 0x00	; 0
    2cda:	ee 0f       	add	r30, r30
    2cdc:	ff 1f       	adc	r31, r31
    2cde:	eb 5e       	subi	r30, 0xEB	; 235
    2ce0:	fc 4f       	sbci	r31, 0xFC	; 252
    2ce2:	45 91       	lpm	r20, Z+
    2ce4:	54 91       	lpm	r21, Z
    2ce6:	50 93 5f 05 	sts	0x055F, r21	; 0x80055f <timer0_pin_port+0x1>
    2cea:	40 93 5e 05 	sts	0x055E, r20	; 0x80055e <timer0_pin_port>
C:\Users\DH\AppData\Local\Arduino15\packages\MegaCore\hardware\avr\2.2.0\cores\MCUdude_corefiles/Tone.cpp:201
        timer0_pin_mask = digitalPinToBitMask(_pin);
    2cee:	f9 01       	movw	r30, r18
    2cf0:	e1 5b       	subi	r30, 0xB1	; 177
    2cf2:	fd 4f       	sbci	r31, 0xFD	; 253
    2cf4:	e4 91       	lpm	r30, Z
    2cf6:	e0 93 5d 05 	sts	0x055D, r30	; 0x80055d <timer0_pin_mask>
    2cfa:	ca ce       	rjmp	.-620    	; 0x2a90 <tone(unsigned char, unsigned int, unsigned long)+0x76>
C:\Users\DH\AppData\Local\Arduino15\packages\MegaCore\hardware\avr\2.2.0\cores\MCUdude_corefiles/Tone.cpp:208
      #endif

      #if defined(TCCR1A) && defined(TCCR1B) && defined(WGM12)
      case 1:
        // 16 bit timer
        TCCR1A = 0;
    2cfc:	10 92 80 00 	sts	0x0080, r1	; 0x800080 <__TEXT_REGION_LENGTH__+0x700080>
C:\Users\DH\AppData\Local\Arduino15\packages\MegaCore\hardware\avr\2.2.0\cores\MCUdude_corefiles/Tone.cpp:209
        TCCR1B = 0;
    2d00:	10 92 81 00 	sts	0x0081, r1	; 0x800081 <__TEXT_REGION_LENGTH__+0x700081>
C:\Users\DH\AppData\Local\Arduino15\packages\MegaCore\hardware\avr\2.2.0\cores\MCUdude_corefiles/Tone.cpp:210
        bitWrite(TCCR1B, WGM12, 1);
    2d04:	90 91 81 00 	lds	r25, 0x0081	; 0x800081 <__TEXT_REGION_LENGTH__+0x700081>
    2d08:	98 60       	ori	r25, 0x08	; 8
    2d0a:	90 93 81 00 	sts	0x0081, r25	; 0x800081 <__TEXT_REGION_LENGTH__+0x700081>
C:\Users\DH\AppData\Local\Arduino15\packages\MegaCore\hardware\avr\2.2.0\cores\MCUdude_corefiles/Tone.cpp:211
        bitWrite(TCCR1B, CS10, 1);
    2d0e:	90 91 81 00 	lds	r25, 0x0081	; 0x800081 <__TEXT_REGION_LENGTH__+0x700081>
    2d12:	91 60       	ori	r25, 0x01	; 1
    2d14:	90 93 81 00 	sts	0x0081, r25	; 0x800081 <__TEXT_REGION_LENGTH__+0x700081>
C:\Users\DH\AppData\Local\Arduino15\packages\MegaCore\hardware\avr\2.2.0\cores\MCUdude_corefiles/Tone.cpp:212
        timer1_pin_port = portOutputRegister(digitalPinToPort(_pin));
    2d18:	28 2f       	mov	r18, r24
    2d1a:	30 e0       	ldi	r19, 0x00	; 0
    2d1c:	f9 01       	movw	r30, r18
    2d1e:	eb 55       	subi	r30, 0x5B	; 91
    2d20:	fd 4f       	sbci	r31, 0xFD	; 253
    2d22:	e4 91       	lpm	r30, Z
    2d24:	f0 e0       	ldi	r31, 0x00	; 0
    2d26:	ee 0f       	add	r30, r30
    2d28:	ff 1f       	adc	r31, r31
    2d2a:	eb 5e       	subi	r30, 0xEB	; 235
    2d2c:	fc 4f       	sbci	r31, 0xFC	; 252
    2d2e:	45 91       	lpm	r20, Z+
    2d30:	54 91       	lpm	r21, Z
    2d32:	50 93 58 05 	sts	0x0558, r21	; 0x800558 <timer1_pin_port+0x1>
    2d36:	40 93 57 05 	sts	0x0557, r20	; 0x800557 <timer1_pin_port>
C:\Users\DH\AppData\Local\Arduino15\packages\MegaCore\hardware\avr\2.2.0\cores\MCUdude_corefiles/Tone.cpp:213
        timer1_pin_mask = digitalPinToBitMask(_pin);
    2d3a:	f9 01       	movw	r30, r18
    2d3c:	e1 5b       	subi	r30, 0xB1	; 177
    2d3e:	fd 4f       	sbci	r31, 0xFD	; 253
    2d40:	e4 91       	lpm	r30, Z
    2d42:	e0 93 56 05 	sts	0x0556, r30	; 0x800556 <timer1_pin_mask>
    2d46:	a4 ce       	rjmp	.-696    	; 0x2a90 <tone(unsigned char, unsigned int, unsigned long)+0x76>
C:\Users\DH\AppData\Local\Arduino15\packages\MegaCore\hardware\avr\2.2.0\cores\MCUdude_corefiles/Tone.cpp:220
      #endif

      #if defined(TCCR2A) && defined(TCCR2B)
      case 2:
        // 8 bit timer
        TCCR2A = 0;
    2d48:	10 92 b0 00 	sts	0x00B0, r1	; 0x8000b0 <__TEXT_REGION_LENGTH__+0x7000b0>
C:\Users\DH\AppData\Local\Arduino15\packages\MegaCore\hardware\avr\2.2.0\cores\MCUdude_corefiles/Tone.cpp:221
        TCCR2B = 0;
    2d4c:	10 92 b1 00 	sts	0x00B1, r1	; 0x8000b1 <__TEXT_REGION_LENGTH__+0x7000b1>
C:\Users\DH\AppData\Local\Arduino15\packages\MegaCore\hardware\avr\2.2.0\cores\MCUdude_corefiles/Tone.cpp:222
        bitWrite(TCCR2A, WGM21, 1);
    2d50:	90 91 b0 00 	lds	r25, 0x00B0	; 0x8000b0 <__TEXT_REGION_LENGTH__+0x7000b0>
    2d54:	92 60       	ori	r25, 0x02	; 2
    2d56:	90 93 b0 00 	sts	0x00B0, r25	; 0x8000b0 <__TEXT_REGION_LENGTH__+0x7000b0>
C:\Users\DH\AppData\Local\Arduino15\packages\MegaCore\hardware\avr\2.2.0\cores\MCUdude_corefiles/Tone.cpp:223
        bitWrite(TCCR2B, CS20, 1);
    2d5a:	90 91 b1 00 	lds	r25, 0x00B1	; 0x8000b1 <__TEXT_REGION_LENGTH__+0x7000b1>
    2d5e:	91 60       	ori	r25, 0x01	; 1
    2d60:	90 93 b1 00 	sts	0x00B1, r25	; 0x8000b1 <__TEXT_REGION_LENGTH__+0x7000b1>
C:\Users\DH\AppData\Local\Arduino15\packages\MegaCore\hardware\avr\2.2.0\cores\MCUdude_corefiles/Tone.cpp:224
        timer2_pin_port = portOutputRegister(digitalPinToPort(_pin));
    2d64:	28 2f       	mov	r18, r24
    2d66:	30 e0       	ldi	r19, 0x00	; 0
    2d68:	f9 01       	movw	r30, r18
    2d6a:	eb 55       	subi	r30, 0x5B	; 91
    2d6c:	fd 4f       	sbci	r31, 0xFD	; 253
    2d6e:	e4 91       	lpm	r30, Z
    2d70:	f0 e0       	ldi	r31, 0x00	; 0
    2d72:	ee 0f       	add	r30, r30
    2d74:	ff 1f       	adc	r31, r31
    2d76:	eb 5e       	subi	r30, 0xEB	; 235
    2d78:	fc 4f       	sbci	r31, 0xFC	; 252
    2d7a:	45 91       	lpm	r20, Z+
    2d7c:	54 91       	lpm	r21, Z
    2d7e:	50 93 51 05 	sts	0x0551, r21	; 0x800551 <timer2_pin_port+0x1>
    2d82:	40 93 50 05 	sts	0x0550, r20	; 0x800550 <timer2_pin_port>
C:\Users\DH\AppData\Local\Arduino15\packages\MegaCore\hardware\avr\2.2.0\cores\MCUdude_corefiles/Tone.cpp:225
        timer2_pin_mask = digitalPinToBitMask(_pin);
    2d86:	f9 01       	movw	r30, r18
    2d88:	e1 5b       	subi	r30, 0xB1	; 177
    2d8a:	fd 4f       	sbci	r31, 0xFD	; 253
    2d8c:	e4 91       	lpm	r30, Z
    2d8e:	e0 93 4f 05 	sts	0x054F, r30	; 0x80054f <timer2_pin_mask>
    2d92:	7e ce       	rjmp	.-772    	; 0x2a90 <tone(unsigned char, unsigned int, unsigned long)+0x76>
C:\Users\DH\AppData\Local\Arduino15\packages\MegaCore\hardware\avr\2.2.0\cores\MCUdude_corefiles/Tone.cpp:232
      #endif

      #if defined(TCCR3A) && defined(TCCR3B) &&  defined(TIMSK3)
      case 3:
        // 16 bit timer
        TCCR3A = 0;
    2d94:	10 92 90 00 	sts	0x0090, r1	; 0x800090 <__TEXT_REGION_LENGTH__+0x700090>
C:\Users\DH\AppData\Local\Arduino15\packages\MegaCore\hardware\avr\2.2.0\cores\MCUdude_corefiles/Tone.cpp:233
        TCCR3B = 0;
    2d98:	10 92 91 00 	sts	0x0091, r1	; 0x800091 <__TEXT_REGION_LENGTH__+0x700091>
C:\Users\DH\AppData\Local\Arduino15\packages\MegaCore\hardware\avr\2.2.0\cores\MCUdude_corefiles/Tone.cpp:234
        bitWrite(TCCR3B, WGM32, 1);
    2d9c:	90 91 91 00 	lds	r25, 0x0091	; 0x800091 <__TEXT_REGION_LENGTH__+0x700091>
    2da0:	98 60       	ori	r25, 0x08	; 8
    2da2:	90 93 91 00 	sts	0x0091, r25	; 0x800091 <__TEXT_REGION_LENGTH__+0x700091>
C:\Users\DH\AppData\Local\Arduino15\packages\MegaCore\hardware\avr\2.2.0\cores\MCUdude_corefiles/Tone.cpp:235
        bitWrite(TCCR3B, CS30, 1);
    2da6:	90 91 91 00 	lds	r25, 0x0091	; 0x800091 <__TEXT_REGION_LENGTH__+0x700091>
    2daa:	91 60       	ori	r25, 0x01	; 1
    2dac:	90 93 91 00 	sts	0x0091, r25	; 0x800091 <__TEXT_REGION_LENGTH__+0x700091>
C:\Users\DH\AppData\Local\Arduino15\packages\MegaCore\hardware\avr\2.2.0\cores\MCUdude_corefiles/Tone.cpp:236
        timer3_pin_port = portOutputRegister(digitalPinToPort(_pin));
    2db0:	28 2f       	mov	r18, r24
    2db2:	30 e0       	ldi	r19, 0x00	; 0
    2db4:	f9 01       	movw	r30, r18
    2db6:	eb 55       	subi	r30, 0x5B	; 91
    2db8:	fd 4f       	sbci	r31, 0xFD	; 253
    2dba:	e4 91       	lpm	r30, Z
    2dbc:	f0 e0       	ldi	r31, 0x00	; 0
    2dbe:	ee 0f       	add	r30, r30
    2dc0:	ff 1f       	adc	r31, r31
    2dc2:	eb 5e       	subi	r30, 0xEB	; 235
    2dc4:	fc 4f       	sbci	r31, 0xFC	; 252
    2dc6:	45 91       	lpm	r20, Z+
    2dc8:	54 91       	lpm	r21, Z
    2dca:	50 93 4a 05 	sts	0x054A, r21	; 0x80054a <timer3_pin_port+0x1>
    2dce:	40 93 49 05 	sts	0x0549, r20	; 0x800549 <timer3_pin_port>
C:\Users\DH\AppData\Local\Arduino15\packages\MegaCore\hardware\avr\2.2.0\cores\MCUdude_corefiles/Tone.cpp:237
        timer3_pin_mask = digitalPinToBitMask(_pin);
    2dd2:	f9 01       	movw	r30, r18
    2dd4:	e1 5b       	subi	r30, 0xB1	; 177
    2dd6:	fd 4f       	sbci	r31, 0xFD	; 253
    2dd8:	e4 91       	lpm	r30, Z
    2dda:	e0 93 48 05 	sts	0x0548, r30	; 0x800548 <timer3_pin_mask>
    2dde:	93 e0       	ldi	r25, 0x03	; 3
    2de0:	9d 83       	std	Y+5, r25	; 0x05
    2de2:	56 ce       	rjmp	.-852    	; 0x2a90 <tone(unsigned char, unsigned int, unsigned long)+0x76>
C:\Users\DH\AppData\Local\Arduino15\packages\MegaCore\hardware\avr\2.2.0\cores\MCUdude_corefiles/Tone.cpp:244
      #endif

      #if defined(TCCR4A) && defined(TCCR4B) &&  defined(TIMSK4)
      case 4:
        // 16 bit timer
        TCCR4A = 0;
    2de4:	10 92 a0 00 	sts	0x00A0, r1	; 0x8000a0 <__TEXT_REGION_LENGTH__+0x7000a0>
C:\Users\DH\AppData\Local\Arduino15\packages\MegaCore\hardware\avr\2.2.0\cores\MCUdude_corefiles/Tone.cpp:245
        TCCR4B = 0;
    2de8:	10 92 a1 00 	sts	0x00A1, r1	; 0x8000a1 <__TEXT_REGION_LENGTH__+0x7000a1>
C:\Users\DH\AppData\Local\Arduino15\packages\MegaCore\hardware\avr\2.2.0\cores\MCUdude_corefiles/Tone.cpp:247
        #if defined(WGM42)
          bitWrite(TCCR4B, WGM42, 1);
    2dec:	90 91 a1 00 	lds	r25, 0x00A1	; 0x8000a1 <__TEXT_REGION_LENGTH__+0x7000a1>
    2df0:	98 60       	ori	r25, 0x08	; 8
    2df2:	90 93 a1 00 	sts	0x00A1, r25	; 0x8000a1 <__TEXT_REGION_LENGTH__+0x7000a1>
C:\Users\DH\AppData\Local\Arduino15\packages\MegaCore\hardware\avr\2.2.0\cores\MCUdude_corefiles/Tone.cpp:253
        #elif defined(CS43)
          // TODO this may not be correct
          // atmega32u4
          bitWrite(TCCR4B, CS43, 1);
        #endif
        bitWrite(TCCR4B, CS40, 1);
    2df6:	90 91 a1 00 	lds	r25, 0x00A1	; 0x8000a1 <__TEXT_REGION_LENGTH__+0x7000a1>
    2dfa:	91 60       	ori	r25, 0x01	; 1
    2dfc:	90 93 a1 00 	sts	0x00A1, r25	; 0x8000a1 <__TEXT_REGION_LENGTH__+0x7000a1>
C:\Users\DH\AppData\Local\Arduino15\packages\MegaCore\hardware\avr\2.2.0\cores\MCUdude_corefiles/Tone.cpp:254
        timer4_pin_port = portOutputRegister(digitalPinToPort(_pin));
    2e00:	28 2f       	mov	r18, r24
    2e02:	30 e0       	ldi	r19, 0x00	; 0
    2e04:	f9 01       	movw	r30, r18
    2e06:	eb 55       	subi	r30, 0x5B	; 91
    2e08:	fd 4f       	sbci	r31, 0xFD	; 253
    2e0a:	e4 91       	lpm	r30, Z
    2e0c:	f0 e0       	ldi	r31, 0x00	; 0
    2e0e:	ee 0f       	add	r30, r30
    2e10:	ff 1f       	adc	r31, r31
    2e12:	eb 5e       	subi	r30, 0xEB	; 235
    2e14:	fc 4f       	sbci	r31, 0xFC	; 252
    2e16:	45 91       	lpm	r20, Z+
    2e18:	54 91       	lpm	r21, Z
    2e1a:	50 93 43 05 	sts	0x0543, r21	; 0x800543 <timer4_pin_port+0x1>
    2e1e:	40 93 42 05 	sts	0x0542, r20	; 0x800542 <timer4_pin_port>
C:\Users\DH\AppData\Local\Arduino15\packages\MegaCore\hardware\avr\2.2.0\cores\MCUdude_corefiles/Tone.cpp:255
        timer4_pin_mask = digitalPinToBitMask(_pin);
    2e22:	f9 01       	movw	r30, r18
    2e24:	e1 5b       	subi	r30, 0xB1	; 177
    2e26:	fd 4f       	sbci	r31, 0xFD	; 253
    2e28:	e4 91       	lpm	r30, Z
    2e2a:	e0 93 41 05 	sts	0x0541, r30	; 0x800541 <timer4_pin_mask>
    2e2e:	30 ce       	rjmp	.-928    	; 0x2a90 <tone(unsigned char, unsigned int, unsigned long)+0x76>
_Z4tonehjm():
C:\Users\DH\AppData\Local\Arduino15\packages\MegaCore\hardware\avr\2.2.0\cores\MCUdude_corefiles/Tone.cpp:298

    // if we are using an 8 bit timer, scan through prescalars to find the best fit
    if (_timer == 0 || _timer == 2)
    {
      ocr = F_CPU / frequency / 2 - 1;
      prescalarbits = 0b001;  // ck/1: same for both timers
    2e30:	81 e0       	ldi	r24, 0x01	; 1
C:\Users\DH\AppData\Local\Arduino15\packages\MegaCore\hardware\avr\2.2.0\cores\MCUdude_corefiles/Tone.cpp:336
          }
        }
      }

#if defined(TCCR0B)
      if (_timer == 0)
    2e32:	2d 81       	ldd	r18, Y+5	; 0x05
    2e34:	21 11       	cpse	r18, r1
    2e36:	df ce       	rjmp	.-578    	; 0x2bf6 <tone(unsigned char, unsigned int, unsigned long)+0x1dc>
C:\Users\DH\AppData\Local\Arduino15\packages\MegaCore\hardware\avr\2.2.0\cores\MCUdude_corefiles/Tone.cpp:338
      {
        TCCR0B = (TCCR0B & 0b11111000) | prescalarbits;
    2e38:	95 b5       	in	r25, 0x25	; 37
    2e3a:	98 7f       	andi	r25, 0xF8	; 248
    2e3c:	89 2b       	or	r24, r25
    2e3e:	85 bd       	out	0x25, r24	; 37
C:\Users\DH\AppData\Local\Arduino15\packages\MegaCore\hardware\avr\2.2.0\cores\MCUdude_corefiles/Tone.cpp:393
    {
      toggle_count = 2 * frequency * duration / 1000;
    }
    else
    {
      toggle_count = -1;
    2e40:	2f ef       	ldi	r18, 0xFF	; 255
    2e42:	3f ef       	ldi	r19, 0xFF	; 255
    2e44:	a9 01       	movw	r20, r18
C:\Users\DH\AppData\Local\Arduino15\packages\MegaCore\hardware\avr\2.2.0\cores\MCUdude_corefiles/Tone.cpp:387

    }


    // Calculate the toggle count
    if (duration > 0)
    2e46:	41 14       	cp	r4, r1
    2e48:	51 04       	cpc	r5, r1
    2e4a:	61 04       	cpc	r6, r1
    2e4c:	71 04       	cpc	r7, r1
    2e4e:	09 f4       	brne	.+2      	; 0x2e52 <tone(unsigned char, unsigned int, unsigned long)+0x438>
    2e50:	cf c0       	rjmp	.+414    	; 0x2ff0 <tone(unsigned char, unsigned int, unsigned long)+0x5d6>
C:\Users\DH\AppData\Local\Arduino15\packages\MegaCore\hardware\avr\2.2.0\cores\MCUdude_corefiles/Tone.cpp:389
    {
      toggle_count = 2 * frequency * duration / 1000;
    2e52:	d8 01       	movw	r26, r16
    2e54:	aa 0f       	add	r26, r26
    2e56:	bb 1f       	adc	r27, r27
    2e58:	a3 01       	movw	r20, r6
    2e5a:	92 01       	movw	r18, r4
    2e5c:	0e 94 59 1d 	call	0x3ab2	; 0x3ab2 <__muluhisi3>
    2e60:	28 ee       	ldi	r18, 0xE8	; 232
    2e62:	33 e0       	ldi	r19, 0x03	; 3
    2e64:	40 e0       	ldi	r20, 0x00	; 0
    2e66:	50 e0       	ldi	r21, 0x00	; 0
    2e68:	0e 94 10 1d 	call	0x3a20	; 0x3a20 <__udivmodsi4>
    2e6c:	d3 ce       	rjmp	.-602    	; 0x2c14 <tone(unsigned char, unsigned int, unsigned long)+0x1fa>
    2e6e:	b1 2c       	mov	r11, r1
    2e70:	a1 2c       	mov	r10, r1
    2e72:	60 e0       	ldi	r22, 0x00	; 0
    2e74:	79 e0       	ldi	r23, 0x09	; 9
    2e76:	8d e3       	ldi	r24, 0x3D	; 61
    2e78:	90 e0       	ldi	r25, 0x00	; 0
    2e7a:	a5 01       	movw	r20, r10
    2e7c:	98 01       	movw	r18, r16
    2e7e:	0e 94 32 1d 	call	0x3a64	; 0x3a64 <__divmodsi4>
    2e82:	69 01       	movw	r12, r18
    2e84:	7a 01       	movw	r14, r20
    2e86:	81 e0       	ldi	r24, 0x01	; 1
    2e88:	c8 1a       	sub	r12, r24
    2e8a:	d1 08       	sbc	r13, r1
    2e8c:	e1 08       	sbc	r14, r1
    2e8e:	f1 08       	sbc	r15, r1
C:\Users\DH\AppData\Local\Arduino15\packages\MegaCore\hardware\avr\2.2.0\cores\MCUdude_corefiles/Tone.cpp:358
    {
      // two choices for the 16 bit timers: ck/1 or ck/64
      ocr = F_CPU / frequency / 2 - 1;

      prescalarbits = 0b001;
      if (ocr > 0xffff)
    2e90:	c1 14       	cp	r12, r1
    2e92:	d1 04       	cpc	r13, r1
    2e94:	91 e0       	ldi	r25, 0x01	; 1
    2e96:	e9 06       	cpc	r14, r25
    2e98:	f1 04       	cpc	r15, r1
    2e9a:	24 f5       	brge	.+72     	; 0x2ee4 <tone(unsigned char, unsigned int, unsigned long)+0x4ca>
C:\Users\DH\AppData\Local\Arduino15\packages\MegaCore\hardware\avr\2.2.0\cores\MCUdude_corefiles/Tone.cpp:357
    else
    {
      // two choices for the 16 bit timers: ck/1 or ck/64
      ocr = F_CPU / frequency / 2 - 1;

      prescalarbits = 0b001;
    2e9c:	91 e0       	ldi	r25, 0x01	; 1
C:\Users\DH\AppData\Local\Arduino15\packages\MegaCore\hardware\avr\2.2.0\cores\MCUdude_corefiles/Tone.cpp:364
      {
        ocr = F_CPU / frequency / 2 / 64 - 1;
        prescalarbits = 0b011;
      }

      if (_timer == 1)
    2e9e:	2d 81       	ldd	r18, Y+5	; 0x05
    2ea0:	21 30       	cpi	r18, 0x01	; 1
    2ea2:	89 f5       	brne	.+98     	; 0x2f06 <tone(unsigned char, unsigned int, unsigned long)+0x4ec>
C:\Users\DH\AppData\Local\Arduino15\packages\MegaCore\hardware\avr\2.2.0\cores\MCUdude_corefiles/Tone.cpp:367
      {
#if defined(TCCR1B)
        TCCR1B = (TCCR1B & 0b11111000) | prescalarbits;
    2ea4:	80 91 81 00 	lds	r24, 0x0081	; 0x800081 <__TEXT_REGION_LENGTH__+0x700081>
    2ea8:	88 7f       	andi	r24, 0xF8	; 248
    2eaa:	89 2b       	or	r24, r25
    2eac:	80 93 81 00 	sts	0x0081, r24	; 0x800081 <__TEXT_REGION_LENGTH__+0x700081>
C:\Users\DH\AppData\Local\Arduino15\packages\MegaCore\hardware\avr\2.2.0\cores\MCUdude_corefiles/Tone.cpp:393
    {
      toggle_count = 2 * frequency * duration / 1000;
    }
    else
    {
      toggle_count = -1;
    2eb0:	2f ef       	ldi	r18, 0xFF	; 255
    2eb2:	3f ef       	ldi	r19, 0xFF	; 255
    2eb4:	a9 01       	movw	r20, r18
C:\Users\DH\AppData\Local\Arduino15\packages\MegaCore\hardware\avr\2.2.0\cores\MCUdude_corefiles/Tone.cpp:387

    }


    // Calculate the toggle count
    if (duration > 0)
    2eb6:	41 14       	cp	r4, r1
    2eb8:	51 04       	cpc	r5, r1
    2eba:	61 04       	cpc	r6, r1
    2ebc:	71 04       	cpc	r7, r1
    2ebe:	49 f6       	brne	.-110    	; 0x2e52 <tone(unsigned char, unsigned int, unsigned long)+0x438>
C:\Users\DH\AppData\Local\Arduino15\packages\MegaCore\hardware\avr\2.2.0\cores\MCUdude_corefiles/Tone.cpp:412
        break;
#endif

      case 1:
#if defined(OCR1A) && defined(TIMSK1) && defined(OCIE1A)
        OCR1A = ocr;
    2ec0:	d0 92 89 00 	sts	0x0089, r13	; 0x800089 <__TEXT_REGION_LENGTH__+0x700089>
    2ec4:	c0 92 88 00 	sts	0x0088, r12	; 0x800088 <__TEXT_REGION_LENGTH__+0x700088>
C:\Users\DH\AppData\Local\Arduino15\packages\MegaCore\hardware\avr\2.2.0\cores\MCUdude_corefiles/Tone.cpp:413
        timer1_toggle_count = toggle_count;
    2ec8:	20 93 59 05 	sts	0x0559, r18	; 0x800559 <timer1_toggle_count>
    2ecc:	30 93 5a 05 	sts	0x055A, r19	; 0x80055a <timer1_toggle_count+0x1>
    2ed0:	40 93 5b 05 	sts	0x055B, r20	; 0x80055b <timer1_toggle_count+0x2>
    2ed4:	50 93 5c 05 	sts	0x055C, r21	; 0x80055c <timer1_toggle_count+0x3>
C:\Users\DH\AppData\Local\Arduino15\packages\MegaCore\hardware\avr\2.2.0\cores\MCUdude_corefiles/Tone.cpp:414
        bitWrite(TIMSK1, OCIE1A, 1);
    2ed8:	80 91 6f 00 	lds	r24, 0x006F	; 0x80006f <__TEXT_REGION_LENGTH__+0x70006f>
    2edc:	82 60       	ori	r24, 0x02	; 2
    2ede:	80 93 6f 00 	sts	0x006F, r24	; 0x80006f <__TEXT_REGION_LENGTH__+0x70006f>
C:\Users\DH\AppData\Local\Arduino15\packages\MegaCore\hardware\avr\2.2.0\cores\MCUdude_corefiles/Tone.cpp:421
        // this combination is for at least the ATmega32
        OCR1A = ocr;
        timer1_toggle_count = toggle_count;
        bitWrite(TIMSK, OCIE1A, 1);
#endif
        break;
    2ee2:	ba cd       	rjmp	.-1164   	; 0x2a58 <tone(unsigned char, unsigned int, unsigned long)+0x3e>
C:\Users\DH\AppData\Local\Arduino15\packages\MegaCore\hardware\avr\2.2.0\cores\MCUdude_corefiles/Tone.cpp:360
      ocr = F_CPU / frequency / 2 - 1;

      prescalarbits = 0b001;
      if (ocr > 0xffff)
      {
        ocr = F_CPU / frequency / 2 / 64 - 1;
    2ee4:	64 e2       	ldi	r22, 0x24	; 36
    2ee6:	74 ef       	ldi	r23, 0xF4	; 244
    2ee8:	80 e0       	ldi	r24, 0x00	; 0
    2eea:	90 e0       	ldi	r25, 0x00	; 0
    2eec:	a5 01       	movw	r20, r10
    2eee:	98 01       	movw	r18, r16
    2ef0:	0e 94 32 1d 	call	0x3a64	; 0x3a64 <__divmodsi4>
    2ef4:	69 01       	movw	r12, r18
    2ef6:	7a 01       	movw	r14, r20
    2ef8:	81 e0       	ldi	r24, 0x01	; 1
    2efa:	c8 1a       	sub	r12, r24
    2efc:	d1 08       	sbc	r13, r1
    2efe:	e1 08       	sbc	r14, r1
    2f00:	f1 08       	sbc	r15, r1
C:\Users\DH\AppData\Local\Arduino15\packages\MegaCore\hardware\avr\2.2.0\cores\MCUdude_corefiles/Tone.cpp:361
        prescalarbits = 0b011;
    2f02:	93 e0       	ldi	r25, 0x03	; 3
    2f04:	cc cf       	rjmp	.-104    	; 0x2e9e <tone(unsigned char, unsigned int, unsigned long)+0x484>
C:\Users\DH\AppData\Local\Arduino15\packages\MegaCore\hardware\avr\2.2.0\cores\MCUdude_corefiles/Tone.cpp:371
#if defined(TCCR1B)
        TCCR1B = (TCCR1B & 0b11111000) | prescalarbits;
#endif
      }
#if defined(TCCR3B)
      else if (_timer == 3)
    2f06:	8d 81       	ldd	r24, Y+5	; 0x05
    2f08:	83 30       	cpi	r24, 0x03	; 3
    2f0a:	09 f5       	brne	.+66     	; 0x2f4e <tone(unsigned char, unsigned int, unsigned long)+0x534>
C:\Users\DH\AppData\Local\Arduino15\packages\MegaCore\hardware\avr\2.2.0\cores\MCUdude_corefiles/Tone.cpp:372
        TCCR3B = (TCCR3B & 0b11111000) | prescalarbits;
    2f0c:	80 91 91 00 	lds	r24, 0x0091	; 0x800091 <__TEXT_REGION_LENGTH__+0x700091>
    2f10:	88 7f       	andi	r24, 0xF8	; 248
    2f12:	89 2b       	or	r24, r25
    2f14:	80 93 91 00 	sts	0x0091, r24	; 0x800091 <__TEXT_REGION_LENGTH__+0x700091>
C:\Users\DH\AppData\Local\Arduino15\packages\MegaCore\hardware\avr\2.2.0\cores\MCUdude_corefiles/Tone.cpp:393
    {
      toggle_count = 2 * frequency * duration / 1000;
    }
    else
    {
      toggle_count = -1;
    2f18:	2f ef       	ldi	r18, 0xFF	; 255
    2f1a:	3f ef       	ldi	r19, 0xFF	; 255
    2f1c:	a9 01       	movw	r20, r18
C:\Users\DH\AppData\Local\Arduino15\packages\MegaCore\hardware\avr\2.2.0\cores\MCUdude_corefiles/Tone.cpp:387

    }


    // Calculate the toggle count
    if (duration > 0)
    2f1e:	41 14       	cp	r4, r1
    2f20:	51 04       	cpc	r5, r1
    2f22:	61 04       	cpc	r6, r1
    2f24:	71 04       	cpc	r7, r1
    2f26:	09 f0       	breq	.+2      	; 0x2f2a <tone(unsigned char, unsigned int, unsigned long)+0x510>
    2f28:	94 cf       	rjmp	.-216    	; 0x2e52 <tone(unsigned char, unsigned int, unsigned long)+0x438>
C:\Users\DH\AppData\Local\Arduino15\packages\MegaCore\hardware\avr\2.2.0\cores\MCUdude_corefiles/Tone.cpp:433
        break;
#endif

#if defined(OCR3A) && defined(TIMSK3) && defined(OCIE3A)
      case 3:
        OCR3A = ocr;
    2f2a:	d0 92 99 00 	sts	0x0099, r13	; 0x800099 <__TEXT_REGION_LENGTH__+0x700099>
    2f2e:	c0 92 98 00 	sts	0x0098, r12	; 0x800098 <__TEXT_REGION_LENGTH__+0x700098>
C:\Users\DH\AppData\Local\Arduino15\packages\MegaCore\hardware\avr\2.2.0\cores\MCUdude_corefiles/Tone.cpp:434
        timer3_toggle_count = toggle_count;
    2f32:	20 93 4b 05 	sts	0x054B, r18	; 0x80054b <timer3_toggle_count>
    2f36:	30 93 4c 05 	sts	0x054C, r19	; 0x80054c <timer3_toggle_count+0x1>
    2f3a:	40 93 4d 05 	sts	0x054D, r20	; 0x80054d <timer3_toggle_count+0x2>
    2f3e:	50 93 4e 05 	sts	0x054E, r21	; 0x80054e <timer3_toggle_count+0x3>
C:\Users\DH\AppData\Local\Arduino15\packages\MegaCore\hardware\avr\2.2.0\cores\MCUdude_corefiles/Tone.cpp:435
        bitWrite(TIMSK3, OCIE3A, 1);
    2f42:	80 91 71 00 	lds	r24, 0x0071	; 0x800071 <__TEXT_REGION_LENGTH__+0x700071>
    2f46:	82 60       	ori	r24, 0x02	; 2
    2f48:	80 93 71 00 	sts	0x0071, r24	; 0x800071 <__TEXT_REGION_LENGTH__+0x700071>
C:\Users\DH\AppData\Local\Arduino15\packages\MegaCore\hardware\avr\2.2.0\cores\MCUdude_corefiles/Tone.cpp:436
        break;
    2f4c:	85 cd       	rjmp	.-1270   	; 0x2a58 <tone(unsigned char, unsigned int, unsigned long)+0x3e>
C:\Users\DH\AppData\Local\Arduino15\packages\MegaCore\hardware\avr\2.2.0\cores\MCUdude_corefiles/Tone.cpp:375
#if defined(TCCR3B)
      else if (_timer == 3)
        TCCR3B = (TCCR3B & 0b11111000) | prescalarbits;
#endif
#if defined(TCCR4B)
      else if (_timer == 4)
    2f4e:	2d 81       	ldd	r18, Y+5	; 0x05
    2f50:	24 30       	cpi	r18, 0x04	; 4
    2f52:	09 f5       	brne	.+66     	; 0x2f96 <tone(unsigned char, unsigned int, unsigned long)+0x57c>
C:\Users\DH\AppData\Local\Arduino15\packages\MegaCore\hardware\avr\2.2.0\cores\MCUdude_corefiles/Tone.cpp:376
        TCCR4B = (TCCR4B & 0b11111000) | prescalarbits;
    2f54:	80 91 a1 00 	lds	r24, 0x00A1	; 0x8000a1 <__TEXT_REGION_LENGTH__+0x7000a1>
    2f58:	88 7f       	andi	r24, 0xF8	; 248
    2f5a:	89 2b       	or	r24, r25
    2f5c:	80 93 a1 00 	sts	0x00A1, r24	; 0x8000a1 <__TEXT_REGION_LENGTH__+0x7000a1>
C:\Users\DH\AppData\Local\Arduino15\packages\MegaCore\hardware\avr\2.2.0\cores\MCUdude_corefiles/Tone.cpp:393
    {
      toggle_count = 2 * frequency * duration / 1000;
    }
    else
    {
      toggle_count = -1;
    2f60:	2f ef       	ldi	r18, 0xFF	; 255
    2f62:	3f ef       	ldi	r19, 0xFF	; 255
    2f64:	a9 01       	movw	r20, r18
C:\Users\DH\AppData\Local\Arduino15\packages\MegaCore\hardware\avr\2.2.0\cores\MCUdude_corefiles/Tone.cpp:387

    }


    // Calculate the toggle count
    if (duration > 0)
    2f66:	41 14       	cp	r4, r1
    2f68:	51 04       	cpc	r5, r1
    2f6a:	61 04       	cpc	r6, r1
    2f6c:	71 04       	cpc	r7, r1
    2f6e:	09 f0       	breq	.+2      	; 0x2f72 <tone(unsigned char, unsigned int, unsigned long)+0x558>
    2f70:	70 cf       	rjmp	.-288    	; 0x2e52 <tone(unsigned char, unsigned int, unsigned long)+0x438>
C:\Users\DH\AppData\Local\Arduino15\packages\MegaCore\hardware\avr\2.2.0\cores\MCUdude_corefiles/Tone.cpp:441
        break;
#endif

#if defined(OCR4A) && defined(TIMSK4) && defined(OCIE4A)
      case 4:
        OCR4A = ocr;
    2f72:	d0 92 a9 00 	sts	0x00A9, r13	; 0x8000a9 <__TEXT_REGION_LENGTH__+0x7000a9>
    2f76:	c0 92 a8 00 	sts	0x00A8, r12	; 0x8000a8 <__TEXT_REGION_LENGTH__+0x7000a8>
C:\Users\DH\AppData\Local\Arduino15\packages\MegaCore\hardware\avr\2.2.0\cores\MCUdude_corefiles/Tone.cpp:442
        timer4_toggle_count = toggle_count;
    2f7a:	20 93 44 05 	sts	0x0544, r18	; 0x800544 <timer4_toggle_count>
    2f7e:	30 93 45 05 	sts	0x0545, r19	; 0x800545 <timer4_toggle_count+0x1>
    2f82:	40 93 46 05 	sts	0x0546, r20	; 0x800546 <timer4_toggle_count+0x2>
    2f86:	50 93 47 05 	sts	0x0547, r21	; 0x800547 <timer4_toggle_count+0x3>
C:\Users\DH\AppData\Local\Arduino15\packages\MegaCore\hardware\avr\2.2.0\cores\MCUdude_corefiles/Tone.cpp:443
        bitWrite(TIMSK4, OCIE4A, 1);
    2f8a:	80 91 72 00 	lds	r24, 0x0072	; 0x800072 <__TEXT_REGION_LENGTH__+0x700072>
    2f8e:	82 60       	ori	r24, 0x02	; 2
    2f90:	80 93 72 00 	sts	0x0072, r24	; 0x800072 <__TEXT_REGION_LENGTH__+0x700072>
C:\Users\DH\AppData\Local\Arduino15\packages\MegaCore\hardware\avr\2.2.0\cores\MCUdude_corefiles/Tone.cpp:444
        break;
    2f94:	61 cd       	rjmp	.-1342   	; 0x2a58 <tone(unsigned char, unsigned int, unsigned long)+0x3e>
C:\Users\DH\AppData\Local\Arduino15\packages\MegaCore\hardware\avr\2.2.0\cores\MCUdude_corefiles/Tone.cpp:379
#if defined(TCCR4B)
      else if (_timer == 4)
        TCCR4B = (TCCR4B & 0b11111000) | prescalarbits;
#endif
#if defined(TCCR5B)
      else if (_timer == 5)
    2f96:	8d 81       	ldd	r24, Y+5	; 0x05
    2f98:	85 30       	cpi	r24, 0x05	; 5
    2f9a:	09 f0       	breq	.+2      	; 0x2f9e <tone(unsigned char, unsigned int, unsigned long)+0x584>
    2f9c:	32 ce       	rjmp	.-924    	; 0x2c02 <tone(unsigned char, unsigned int, unsigned long)+0x1e8>
C:\Users\DH\AppData\Local\Arduino15\packages\MegaCore\hardware\avr\2.2.0\cores\MCUdude_corefiles/Tone.cpp:380
        TCCR5B = (TCCR5B & 0b11111000) | prescalarbits;
    2f9e:	80 91 21 01 	lds	r24, 0x0121	; 0x800121 <__TEXT_REGION_LENGTH__+0x700121>
    2fa2:	88 7f       	andi	r24, 0xF8	; 248
    2fa4:	89 2b       	or	r24, r25
    2fa6:	80 93 21 01 	sts	0x0121, r24	; 0x800121 <__TEXT_REGION_LENGTH__+0x700121>
C:\Users\DH\AppData\Local\Arduino15\packages\MegaCore\hardware\avr\2.2.0\cores\MCUdude_corefiles/Tone.cpp:393
    {
      toggle_count = 2 * frequency * duration / 1000;
    }
    else
    {
      toggle_count = -1;
    2faa:	2f ef       	ldi	r18, 0xFF	; 255
    2fac:	3f ef       	ldi	r19, 0xFF	; 255
    2fae:	a9 01       	movw	r20, r18
C:\Users\DH\AppData\Local\Arduino15\packages\MegaCore\hardware\avr\2.2.0\cores\MCUdude_corefiles/Tone.cpp:387

    }


    // Calculate the toggle count
    if (duration > 0)
    2fb0:	41 14       	cp	r4, r1
    2fb2:	51 04       	cpc	r5, r1
    2fb4:	61 04       	cpc	r6, r1
    2fb6:	71 04       	cpc	r7, r1
    2fb8:	09 f0       	breq	.+2      	; 0x2fbc <tone(unsigned char, unsigned int, unsigned long)+0x5a2>
    2fba:	4b cf       	rjmp	.-362    	; 0x2e52 <tone(unsigned char, unsigned int, unsigned long)+0x438>
C:\Users\DH\AppData\Local\Arduino15\packages\MegaCore\hardware\avr\2.2.0\cores\MCUdude_corefiles/Tone.cpp:449
        break;
#endif

#if defined(OCR5A) && defined(TIMSK5) && defined(OCIE5A)
      case 5:
        OCR5A = ocr;
    2fbc:	d0 92 29 01 	sts	0x0129, r13	; 0x800129 <__TEXT_REGION_LENGTH__+0x700129>
    2fc0:	c0 92 28 01 	sts	0x0128, r12	; 0x800128 <__TEXT_REGION_LENGTH__+0x700128>
C:\Users\DH\AppData\Local\Arduino15\packages\MegaCore\hardware\avr\2.2.0\cores\MCUdude_corefiles/Tone.cpp:450
        timer5_toggle_count = toggle_count;
    2fc4:	20 93 3d 05 	sts	0x053D, r18	; 0x80053d <timer5_toggle_count>
    2fc8:	30 93 3e 05 	sts	0x053E, r19	; 0x80053e <timer5_toggle_count+0x1>
    2fcc:	40 93 3f 05 	sts	0x053F, r20	; 0x80053f <timer5_toggle_count+0x2>
    2fd0:	50 93 40 05 	sts	0x0540, r21	; 0x800540 <timer5_toggle_count+0x3>
C:\Users\DH\AppData\Local\Arduino15\packages\MegaCore\hardware\avr\2.2.0\cores\MCUdude_corefiles/Tone.cpp:451
        bitWrite(TIMSK5, OCIE5A, 1);
    2fd4:	80 91 73 00 	lds	r24, 0x0073	; 0x800073 <__TEXT_REGION_LENGTH__+0x700073>
    2fd8:	82 60       	ori	r24, 0x02	; 2
    2fda:	80 93 73 00 	sts	0x0073, r24	; 0x800073 <__TEXT_REGION_LENGTH__+0x700073>
C:\Users\DH\AppData\Local\Arduino15\packages\MegaCore\hardware\avr\2.2.0\cores\MCUdude_corefiles/Tone.cpp:457
        break;
#endif

    }
  }
}
    2fde:	3c cd       	rjmp	.-1416   	; 0x2a58 <tone(unsigned char, unsigned int, unsigned long)+0x3e>
C:\Users\DH\AppData\Local\Arduino15\packages\MegaCore\hardware\avr\2.2.0\cores\MCUdude_corefiles/Tone.cpp:399
    }

    // Set the OCR for the given timer,
    // set the toggle count,
    // then turn on the interrupts
    switch (_timer)
    2fe0:	8d 81       	ldd	r24, Y+5	; 0x05
    2fe2:	84 30       	cpi	r24, 0x04	; 4
    2fe4:	31 f2       	breq	.-116    	; 0x2f72 <tone(unsigned char, unsigned int, unsigned long)+0x558>
    2fe6:	0c f4       	brge	.+2      	; 0x2fea <tone(unsigned char, unsigned int, unsigned long)+0x5d0>
    2fe8:	a0 cf       	rjmp	.-192    	; 0x2f2a <tone(unsigned char, unsigned int, unsigned long)+0x510>
    2fea:	85 30       	cpi	r24, 0x05	; 5
    2fec:	39 f3       	breq	.-50     	; 0x2fbc <tone(unsigned char, unsigned int, unsigned long)+0x5a2>
    2fee:	34 cd       	rjmp	.-1432   	; 0x2a58 <tone(unsigned char, unsigned int, unsigned long)+0x3e>
C:\Users\DH\AppData\Local\Arduino15\packages\MegaCore\hardware\avr\2.2.0\cores\MCUdude_corefiles/Tone.cpp:404
    {

#if defined(OCR0A) && defined(TIMSK0) && defined(OCIE0A)
      case 0:
        OCR0A = ocr;
    2ff0:	c7 bc       	out	0x27, r12	; 39
C:\Users\DH\AppData\Local\Arduino15\packages\MegaCore\hardware\avr\2.2.0\cores\MCUdude_corefiles/Tone.cpp:405
        timer0_toggle_count = toggle_count;
    2ff2:	20 93 60 05 	sts	0x0560, r18	; 0x800560 <timer0_toggle_count>
    2ff6:	30 93 61 05 	sts	0x0561, r19	; 0x800561 <timer0_toggle_count+0x1>
    2ffa:	40 93 62 05 	sts	0x0562, r20	; 0x800562 <timer0_toggle_count+0x2>
    2ffe:	50 93 63 05 	sts	0x0563, r21	; 0x800563 <timer0_toggle_count+0x3>
C:\Users\DH\AppData\Local\Arduino15\packages\MegaCore\hardware\avr\2.2.0\cores\MCUdude_corefiles/Tone.cpp:406
        bitWrite(TIMSK0, OCIE0A, 1);
    3002:	80 91 6e 00 	lds	r24, 0x006E	; 0x80006e <__TEXT_REGION_LENGTH__+0x70006e>
    3006:	82 60       	ori	r24, 0x02	; 2
    3008:	80 93 6e 00 	sts	0x006E, r24	; 0x80006e <__TEXT_REGION_LENGTH__+0x70006e>
C:\Users\DH\AppData\Local\Arduino15\packages\MegaCore\hardware\avr\2.2.0\cores\MCUdude_corefiles/Tone.cpp:407
        break;
    300c:	25 cd       	rjmp	.-1462   	; 0x2a58 <tone(unsigned char, unsigned int, unsigned long)+0x3e>
C:\Users\DH\AppData\Local\Arduino15\packages\MegaCore\hardware\avr\2.2.0\cores\MCUdude_corefiles/Tone.cpp:425
#endif
        break;

#if defined(OCR2A) && defined(TIMSK2) && defined(OCIE2A)
      case 2:
        OCR2A = ocr;
    300e:	c0 92 b3 00 	sts	0x00B3, r12	; 0x8000b3 <__TEXT_REGION_LENGTH__+0x7000b3>
C:\Users\DH\AppData\Local\Arduino15\packages\MegaCore\hardware\avr\2.2.0\cores\MCUdude_corefiles/Tone.cpp:426
        timer2_toggle_count = toggle_count;
    3012:	20 93 52 05 	sts	0x0552, r18	; 0x800552 <timer2_toggle_count>
    3016:	30 93 53 05 	sts	0x0553, r19	; 0x800553 <timer2_toggle_count+0x1>
    301a:	40 93 54 05 	sts	0x0554, r20	; 0x800554 <timer2_toggle_count+0x2>
    301e:	50 93 55 05 	sts	0x0555, r21	; 0x800555 <timer2_toggle_count+0x3>
C:\Users\DH\AppData\Local\Arduino15\packages\MegaCore\hardware\avr\2.2.0\cores\MCUdude_corefiles/Tone.cpp:427
        bitWrite(TIMSK2, OCIE2A, 1);
    3022:	80 91 70 00 	lds	r24, 0x0070	; 0x800070 <__TEXT_REGION_LENGTH__+0x700070>
    3026:	82 60       	ori	r24, 0x02	; 2
    3028:	80 93 70 00 	sts	0x0070, r24	; 0x800070 <__TEXT_REGION_LENGTH__+0x700070>
C:\Users\DH\AppData\Local\Arduino15\packages\MegaCore\hardware\avr\2.2.0\cores\MCUdude_corefiles/Tone.cpp:428
        break;
    302c:	15 cd       	rjmp	.-1494   	; 0x2a58 <tone(unsigned char, unsigned int, unsigned long)+0x3e>
C:\Users\DH\AppData\Local\Arduino15\packages\MegaCore\hardware\avr\2.2.0\cores\MCUdude_corefiles/Tone.cpp:312
          prescalarbits = 0b011;
        }

        if (ocr > 255)
        {
          ocr = F_CPU / frequency / 2 / 64 - 1;
    302e:	64 e2       	ldi	r22, 0x24	; 36
    3030:	74 ef       	ldi	r23, 0xF4	; 244
    3032:	80 e0       	ldi	r24, 0x00	; 0
    3034:	90 e0       	ldi	r25, 0x00	; 0
    3036:	a5 01       	movw	r20, r10
    3038:	94 01       	movw	r18, r8
    303a:	0e 94 32 1d 	call	0x3a64	; 0x3a64 <__divmodsi4>
    303e:	69 01       	movw	r12, r18
    3040:	7a 01       	movw	r14, r20
    3042:	91 e0       	ldi	r25, 0x01	; 1
    3044:	c9 1a       	sub	r12, r25
    3046:	d1 08       	sbc	r13, r1
    3048:	e1 08       	sbc	r14, r1
    304a:	f1 08       	sbc	r15, r1
C:\Users\DH\AppData\Local\Arduino15\packages\MegaCore\hardware\avr\2.2.0\cores\MCUdude_corefiles/Tone.cpp:321
          {
            ocr = F_CPU / frequency / 2 / 128 - 1;
            prescalarbits = 0b101;
          }

          if (ocr > 255)
    304c:	83 e0       	ldi	r24, 0x03	; 3
    304e:	2f ef       	ldi	r18, 0xFF	; 255
    3050:	c2 16       	cp	r12, r18
    3052:	d1 04       	cpc	r13, r1
    3054:	e1 04       	cpc	r14, r1
    3056:	f1 04       	cpc	r15, r1
    3058:	09 f0       	breq	.+2      	; 0x305c <tone(unsigned char, unsigned int, unsigned long)+0x642>
    305a:	08 f4       	brcc	.+2      	; 0x305e <tone(unsigned char, unsigned int, unsigned long)+0x644>
    305c:	ea ce       	rjmp	.-556    	; 0x2e32 <tone(unsigned char, unsigned int, unsigned long)+0x418>
C:\Users\DH\AppData\Local\Arduino15\packages\MegaCore\hardware\avr\2.2.0\cores\MCUdude_corefiles/Tone.cpp:323
          {
            ocr = F_CPU / frequency / 2 / 256 - 1;
    305e:	69 e0       	ldi	r22, 0x09	; 9
    3060:	7d e3       	ldi	r23, 0x3D	; 61
    3062:	80 e0       	ldi	r24, 0x00	; 0
    3064:	90 e0       	ldi	r25, 0x00	; 0
    3066:	a5 01       	movw	r20, r10
    3068:	94 01       	movw	r18, r8
    306a:	0e 94 32 1d 	call	0x3a64	; 0x3a64 <__divmodsi4>
    306e:	69 01       	movw	r12, r18
    3070:	7a 01       	movw	r14, r20
    3072:	91 e0       	ldi	r25, 0x01	; 1
    3074:	c9 1a       	sub	r12, r25
    3076:	d1 08       	sbc	r13, r1
    3078:	e1 08       	sbc	r14, r1
    307a:	f1 08       	sbc	r15, r1
C:\Users\DH\AppData\Local\Arduino15\packages\MegaCore\hardware\avr\2.2.0\cores\MCUdude_corefiles/Tone.cpp:325
            prescalarbits = _timer != TIMER_WITH_FULL_PRESCALER ? 0b100 : 0b110;
            if (ocr > 255)
    307c:	84 e0       	ldi	r24, 0x04	; 4
    307e:	2f ef       	ldi	r18, 0xFF	; 255
    3080:	c2 16       	cp	r12, r18
    3082:	d1 04       	cpc	r13, r1
    3084:	e1 04       	cpc	r14, r1
    3086:	f1 04       	cpc	r15, r1
    3088:	09 f0       	breq	.+2      	; 0x308c <tone(unsigned char, unsigned int, unsigned long)+0x672>
    308a:	08 f4       	brcc	.+2      	; 0x308e <tone(unsigned char, unsigned int, unsigned long)+0x674>
    308c:	d2 ce       	rjmp	.-604    	; 0x2e32 <tone(unsigned char, unsigned int, unsigned long)+0x418>
C:\Users\DH\AppData\Local\Arduino15\packages\MegaCore\hardware\avr\2.2.0\cores\MCUdude_corefiles/Tone.cpp:328
            {
              // Can't do any better than /1024
              ocr = F_CPU / frequency / 2 / 1024 - 1;
    308e:	c9 80       	ldd	r12, Y+1	; 0x01
    3090:	da 80       	ldd	r13, Y+2	; 0x02
    3092:	eb 80       	ldd	r14, Y+3	; 0x03
    3094:	fc 80       	ldd	r15, Y+4	; 0x04
    3096:	9a e0       	ldi	r25, 0x0A	; 10
    3098:	f5 94       	asr	r15
    309a:	e7 94       	ror	r14
    309c:	d7 94       	ror	r13
    309e:	c7 94       	ror	r12
    30a0:	9a 95       	dec	r25
    30a2:	d1 f7       	brne	.-12     	; 0x3098 <tone(unsigned char, unsigned int, unsigned long)+0x67e>
    30a4:	81 e0       	ldi	r24, 0x01	; 1
    30a6:	c8 1a       	sub	r12, r24
    30a8:	d1 08       	sbc	r13, r1
    30aa:	e1 08       	sbc	r14, r1
    30ac:	f1 08       	sbc	r15, r1
C:\Users\DH\AppData\Local\Arduino15\packages\MegaCore\hardware\avr\2.2.0\cores\MCUdude_corefiles/Tone.cpp:329
              prescalarbits = _timer != TIMER_WITH_FULL_PRESCALER ? 0b101 : 0b111;
    30ae:	85 e0       	ldi	r24, 0x05	; 5
    30b0:	c0 ce       	rjmp	.-640    	; 0x2e32 <tone(unsigned char, unsigned int, unsigned long)+0x418>
C:\Users\DH\AppData\Local\Arduino15\packages\MegaCore\hardware\avr\2.2.0\cores\MCUdude_corefiles/Tone.cpp:310
        {
          ocr = F_CPU / frequency / 2 / 32 - 1;
          prescalarbits = 0b011;
        }

        if (ocr > 255)
    30b2:	8f ef       	ldi	r24, 0xFF	; 255
    30b4:	c8 16       	cp	r12, r24
    30b6:	d1 04       	cpc	r13, r1
    30b8:	e1 04       	cpc	r14, r1
    30ba:	f1 04       	cpc	r15, r1
    30bc:	11 f0       	breq	.+4      	; 0x30c2 <tone(unsigned char, unsigned int, unsigned long)+0x6a8>
    30be:	0c f0       	brlt	.+2      	; 0x30c2 <tone(unsigned char, unsigned int, unsigned long)+0x6a8>
    30c0:	b6 cf       	rjmp	.-148    	; 0x302e <tone(unsigned char, unsigned int, unsigned long)+0x614>
C:\Users\DH\AppData\Local\Arduino15\packages\MegaCore\hardware\avr\2.2.0\cores\MCUdude_corefiles/Tone.cpp:302
      ocr = F_CPU / frequency / 2 - 1;
      prescalarbits = 0b001;  // ck/1: same for both timers
      if (ocr > 255)
      {
        ocr = F_CPU / frequency / 2 / 8 - 1;
        prescalarbits = 0b010;  // ck/8: same for both timers
    30c2:	82 e0       	ldi	r24, 0x02	; 2
    30c4:	b6 ce       	rjmp	.-660    	; 0x2e32 <tone(unsigned char, unsigned int, unsigned long)+0x418>

000030c6 <disableTimer(unsigned char)>:
_Z12disableTimerh():
C:\Users\DH\AppData\Local\Arduino15\packages\MegaCore\hardware\avr\2.2.0\cores\MCUdude_corefiles/Tone.cpp:465
// XXX: this function only works properly for timer 2 (the only one we use
// currently).  for the others, it should end the tone, but won't restore
// proper PWM functionality for the timer.
void disableTimer(uint8_t _timer)
{
  switch (_timer)
    30c6:	82 30       	cpi	r24, 0x02	; 2
    30c8:	a9 f0       	breq	.+42     	; 0x30f4 <disableTimer(unsigned char)+0x2e>
    30ca:	28 f4       	brcc	.+10     	; 0x30d6 <disableTimer(unsigned char)+0x10>
    30cc:	88 23       	and	r24, r24
    30ce:	49 f0       	breq	.+18     	; 0x30e2 <disableTimer(unsigned char)+0x1c>
    30d0:	81 30       	cpi	r24, 0x01	; 1
    30d2:	51 f0       	breq	.+20     	; 0x30e8 <disableTimer(unsigned char)+0x22>
    30d4:	08 95       	ret
    30d6:	84 30       	cpi	r24, 0x04	; 4
    30d8:	21 f1       	breq	.+72     	; 0x3122 <disableTimer(unsigned char)+0x5c>
    30da:	e8 f0       	brcs	.+58     	; 0x3116 <disableTimer(unsigned char)+0x50>
    30dc:	85 30       	cpi	r24, 0x05	; 5
    30de:	39 f1       	breq	.+78     	; 0x312e <disableTimer(unsigned char)+0x68>
    30e0:	08 95       	ret
C:\Users\DH\AppData\Local\Arduino15\packages\MegaCore\hardware\avr\2.2.0\cores\MCUdude_corefiles/Tone.cpp:469
  {
    case 0:
      #if defined(TIMSK0)
        TIMSK0 = 0;
    30e2:	10 92 6e 00 	sts	0x006E, r1	; 0x80006e <__TEXT_REGION_LENGTH__+0x70006e>
C:\Users\DH\AppData\Local\Arduino15\packages\MegaCore\hardware\avr\2.2.0\cores\MCUdude_corefiles/Tone.cpp:473
      #elif defined(TIMSK)
        TIMSK = 0; // atmega32
      #endif
      break;
    30e6:	08 95       	ret
C:\Users\DH\AppData\Local\Arduino15\packages\MegaCore\hardware\avr\2.2.0\cores\MCUdude_corefiles/Tone.cpp:477

#if defined(TIMSK1) && defined(OCIE1A)
    case 1:
      bitWrite(TIMSK1, OCIE1A, 0);
    30e8:	80 91 6f 00 	lds	r24, 0x006F	; 0x80006f <__TEXT_REGION_LENGTH__+0x70006f>
    30ec:	8d 7f       	andi	r24, 0xFD	; 253
    30ee:	80 93 6f 00 	sts	0x006F, r24	; 0x80006f <__TEXT_REGION_LENGTH__+0x70006f>
C:\Users\DH\AppData\Local\Arduino15\packages\MegaCore\hardware\avr\2.2.0\cores\MCUdude_corefiles/Tone.cpp:478
      break;
    30f2:	08 95       	ret
C:\Users\DH\AppData\Local\Arduino15\packages\MegaCore\hardware\avr\2.2.0\cores\MCUdude_corefiles/Tone.cpp:483
#endif

    case 2:
      #if defined(TIMSK2) && defined(OCIE2A)
        bitWrite(TIMSK2, OCIE2A, 0); // disable interrupt
    30f4:	80 91 70 00 	lds	r24, 0x0070	; 0x800070 <__TEXT_REGION_LENGTH__+0x700070>
    30f8:	8d 7f       	andi	r24, 0xFD	; 253
    30fa:	80 93 70 00 	sts	0x0070, r24	; 0x800070 <__TEXT_REGION_LENGTH__+0x700070>
C:\Users\DH\AppData\Local\Arduino15\packages\MegaCore\hardware\avr\2.2.0\cores\MCUdude_corefiles/Tone.cpp:486
      #endif
      #if defined(TCCR2A) && defined(WGM20)
        TCCR2A = (1 << WGM20);
    30fe:	81 e0       	ldi	r24, 0x01	; 1
    3100:	80 93 b0 00 	sts	0x00B0, r24	; 0x8000b0 <__TEXT_REGION_LENGTH__+0x7000b0>
C:\Users\DH\AppData\Local\Arduino15\packages\MegaCore\hardware\avr\2.2.0\cores\MCUdude_corefiles/Tone.cpp:489
      #endif
      #if defined(TCCR2B) && defined(CS22)
        TCCR2B = (TCCR2B & 0b11111000) | (1 << CS22);
    3104:	80 91 b1 00 	lds	r24, 0x00B1	; 0x8000b1 <__TEXT_REGION_LENGTH__+0x7000b1>
    3108:	88 7f       	andi	r24, 0xF8	; 248
    310a:	84 60       	ori	r24, 0x04	; 4
    310c:	80 93 b1 00 	sts	0x00B1, r24	; 0x8000b1 <__TEXT_REGION_LENGTH__+0x7000b1>
C:\Users\DH\AppData\Local\Arduino15\packages\MegaCore\hardware\avr\2.2.0\cores\MCUdude_corefiles/Tone.cpp:492
      #endif
      #if defined(OCR2A)
        OCR2A = 0;
    3110:	10 92 b3 00 	sts	0x00B3, r1	; 0x8000b3 <__TEXT_REGION_LENGTH__+0x7000b3>
    3114:	08 95       	ret
C:\Users\DH\AppData\Local\Arduino15\packages\MegaCore\hardware\avr\2.2.0\cores\MCUdude_corefiles/Tone.cpp:498
      #endif
      break;

#if defined(TIMSK3) && defined(OCIE3A)
    case 3:
      bitWrite(TIMSK3, OCIE3A, 0);
    3116:	80 91 71 00 	lds	r24, 0x0071	; 0x800071 <__TEXT_REGION_LENGTH__+0x700071>
    311a:	8d 7f       	andi	r24, 0xFD	; 253
    311c:	80 93 71 00 	sts	0x0071, r24	; 0x800071 <__TEXT_REGION_LENGTH__+0x700071>
C:\Users\DH\AppData\Local\Arduino15\packages\MegaCore\hardware\avr\2.2.0\cores\MCUdude_corefiles/Tone.cpp:499
      break;
    3120:	08 95       	ret
C:\Users\DH\AppData\Local\Arduino15\packages\MegaCore\hardware\avr\2.2.0\cores\MCUdude_corefiles/Tone.cpp:504
#endif

#if defined(TIMSK4) && defined(OCIE4A)
    case 4:
      bitWrite(TIMSK4, OCIE4A, 0);
    3122:	80 91 72 00 	lds	r24, 0x0072	; 0x800072 <__TEXT_REGION_LENGTH__+0x700072>
    3126:	8d 7f       	andi	r24, 0xFD	; 253
    3128:	80 93 72 00 	sts	0x0072, r24	; 0x800072 <__TEXT_REGION_LENGTH__+0x700072>
C:\Users\DH\AppData\Local\Arduino15\packages\MegaCore\hardware\avr\2.2.0\cores\MCUdude_corefiles/Tone.cpp:505
      break;
    312c:	08 95       	ret
C:\Users\DH\AppData\Local\Arduino15\packages\MegaCore\hardware\avr\2.2.0\cores\MCUdude_corefiles/Tone.cpp:510
#endif

#if defined(TIMSK5) && defined(OCIE5A)
    case 5:
      bitWrite(TIMSK5, OCIE5A, 0);
    312e:	80 91 73 00 	lds	r24, 0x0073	; 0x800073 <__TEXT_REGION_LENGTH__+0x700073>
    3132:	8d 7f       	andi	r24, 0xFD	; 253
    3134:	80 93 73 00 	sts	0x0073, r24	; 0x800073 <__TEXT_REGION_LENGTH__+0x700073>
C:\Users\DH\AppData\Local\Arduino15\packages\MegaCore\hardware\avr\2.2.0\cores\MCUdude_corefiles/Tone.cpp:514
      break;
#endif
  }
}
    3138:	08 95       	ret

0000313a <noTone(unsigned char)>:
_Z6noToneh():
C:\Users\DH\AppData\Local\Arduino15\packages\MegaCore\hardware\avr\2.2.0\cores\MCUdude_corefiles/Tone.cpp:518


void noTone(uint8_t _pin)
{
    313a:	cf 93       	push	r28
    313c:	c8 2f       	mov	r28, r24
C:\Users\DH\AppData\Local\Arduino15\packages\MegaCore\hardware\avr\2.2.0\cores\MCUdude_corefiles/Tone.cpp:522
  int8_t _timer = -1;

  for (int i = 0; i < AVAILABLE_TONE_PINS; i++) {
    if (tone_pins[i] == _pin) {
    313e:	80 91 04 02 	lds	r24, 0x0204	; 0x800204 <tone_pins>
    3142:	c8 13       	cpse	r28, r24
    3144:	0d c0       	rjmp	.+26     	; 0x3160 <noTone(unsigned char)+0x26>
C:\Users\DH\AppData\Local\Arduino15\packages\MegaCore\hardware\avr\2.2.0\cores\MCUdude_corefiles/Tone.cpp:523
      _timer = pgm_read_byte(tone_pin_to_timer_PGM + i);
    3146:	e8 ef       	ldi	r30, 0xF8	; 248
    3148:	f1 e0       	ldi	r31, 0x01	; 1
    314a:	84 91       	lpm	r24, Z
C:\Users\DH\AppData\Local\Arduino15\packages\MegaCore\hardware\avr\2.2.0\cores\MCUdude_corefiles/Tone.cpp:524
      tone_pins[i] = 255;
    314c:	9f ef       	ldi	r25, 0xFF	; 255
    314e:	90 93 04 02 	sts	0x0204, r25	; 0x800204 <tone_pins>
C:\Users\DH\AppData\Local\Arduino15\packages\MegaCore\hardware\avr\2.2.0\cores\MCUdude_corefiles/Tone.cpp:529
      break;
    }
  }

  disableTimer(_timer);
    3152:	0e 94 63 18 	call	0x30c6	; 0x30c6 <disableTimer(unsigned char)>
C:\Users\DH\AppData\Local\Arduino15\packages\MegaCore\hardware\avr\2.2.0\cores\MCUdude_corefiles/Tone.cpp:531

  digitalWrite(_pin, 0);
    3156:	60 e0       	ldi	r22, 0x00	; 0
    3158:	8c 2f       	mov	r24, r28
C:\Users\DH\AppData\Local\Arduino15\packages\MegaCore\hardware\avr\2.2.0\cores\MCUdude_corefiles/Tone.cpp:532
}
    315a:	cf 91       	pop	r28
C:\Users\DH\AppData\Local\Arduino15\packages\MegaCore\hardware\avr\2.2.0\cores\MCUdude_corefiles/Tone.cpp:531
    }
  }

  disableTimer(_timer);

  digitalWrite(_pin, 0);
    315c:	0c 94 b8 1c 	jmp	0x3970	; 0x3970 <digitalWrite>
C:\Users\DH\AppData\Local\Arduino15\packages\MegaCore\hardware\avr\2.2.0\cores\MCUdude_corefiles/Tone.cpp:519
}


void noTone(uint8_t _pin)
{
  int8_t _timer = -1;
    3160:	8f ef       	ldi	r24, 0xFF	; 255
    3162:	f7 cf       	rjmp	.-18     	; 0x3152 <noTone(unsigned char)+0x18>

00003164 <__vector_13>:
__vector_13():
C:\Users\DH\AppData\Local\Arduino15\packages\MegaCore\hardware\avr\2.2.0\cores\MCUdude_corefiles/Tone.cpp:580
#if defined(__AVR_ATmega162__)
ISR(TIMER2_COMP_vect)
#else
ISR(TIMER2_COMPA_vect)
#endif
{
    3164:	1f 92       	push	r1
    3166:	0f 92       	push	r0
    3168:	0f b6       	in	r0, 0x3f	; 63
    316a:	0f 92       	push	r0
    316c:	11 24       	eor	r1, r1
    316e:	0b b6       	in	r0, 0x3b	; 59
    3170:	0f 92       	push	r0
    3172:	2f 93       	push	r18
    3174:	3f 93       	push	r19
    3176:	4f 93       	push	r20
    3178:	5f 93       	push	r21
    317a:	6f 93       	push	r22
    317c:	7f 93       	push	r23
    317e:	8f 93       	push	r24
    3180:	9f 93       	push	r25
    3182:	af 93       	push	r26
    3184:	bf 93       	push	r27
    3186:	ef 93       	push	r30
    3188:	ff 93       	push	r31
C:\Users\DH\AppData\Local\Arduino15\packages\MegaCore\hardware\avr\2.2.0\cores\MCUdude_corefiles/Tone.cpp:582

  if (timer2_toggle_count != 0)
    318a:	80 91 52 05 	lds	r24, 0x0552	; 0x800552 <timer2_toggle_count>
    318e:	90 91 53 05 	lds	r25, 0x0553	; 0x800553 <timer2_toggle_count+0x1>
    3192:	a0 91 54 05 	lds	r26, 0x0554	; 0x800554 <timer2_toggle_count+0x2>
    3196:	b0 91 55 05 	lds	r27, 0x0555	; 0x800555 <timer2_toggle_count+0x3>
    319a:	89 2b       	or	r24, r25
    319c:	8a 2b       	or	r24, r26
    319e:	8b 2b       	or	r24, r27
    31a0:	e1 f1       	breq	.+120    	; 0x321a <__vector_13+0xb6>
C:\Users\DH\AppData\Local\Arduino15\packages\MegaCore\hardware\avr\2.2.0\cores\MCUdude_corefiles/Tone.cpp:585
  {
    // toggle the pin
    *timer2_pin_port ^= timer2_pin_mask;
    31a2:	90 91 4f 05 	lds	r25, 0x054F	; 0x80054f <timer2_pin_mask>
    31a6:	e0 91 50 05 	lds	r30, 0x0550	; 0x800550 <timer2_pin_port>
    31aa:	f0 91 51 05 	lds	r31, 0x0551	; 0x800551 <timer2_pin_port+0x1>
    31ae:	80 81       	ld	r24, Z
    31b0:	89 27       	eor	r24, r25
    31b2:	80 83       	st	Z, r24
C:\Users\DH\AppData\Local\Arduino15\packages\MegaCore\hardware\avr\2.2.0\cores\MCUdude_corefiles/Tone.cpp:587

    if (timer2_toggle_count > 0)
    31b4:	80 91 52 05 	lds	r24, 0x0552	; 0x800552 <timer2_toggle_count>
    31b8:	90 91 53 05 	lds	r25, 0x0553	; 0x800553 <timer2_toggle_count+0x1>
    31bc:	a0 91 54 05 	lds	r26, 0x0554	; 0x800554 <timer2_toggle_count+0x2>
    31c0:	b0 91 55 05 	lds	r27, 0x0555	; 0x800555 <timer2_toggle_count+0x3>
    31c4:	18 16       	cp	r1, r24
    31c6:	19 06       	cpc	r1, r25
    31c8:	1a 06       	cpc	r1, r26
    31ca:	1b 06       	cpc	r1, r27
    31cc:	9c f4       	brge	.+38     	; 0x31f4 <__vector_13+0x90>
C:\Users\DH\AppData\Local\Arduino15\packages\MegaCore\hardware\avr\2.2.0\cores\MCUdude_corefiles/Tone.cpp:588
      timer2_toggle_count--;
    31ce:	80 91 52 05 	lds	r24, 0x0552	; 0x800552 <timer2_toggle_count>
    31d2:	90 91 53 05 	lds	r25, 0x0553	; 0x800553 <timer2_toggle_count+0x1>
    31d6:	a0 91 54 05 	lds	r26, 0x0554	; 0x800554 <timer2_toggle_count+0x2>
    31da:	b0 91 55 05 	lds	r27, 0x0555	; 0x800555 <timer2_toggle_count+0x3>
    31de:	01 97       	sbiw	r24, 0x01	; 1
    31e0:	a1 09       	sbc	r26, r1
    31e2:	b1 09       	sbc	r27, r1
    31e4:	80 93 52 05 	sts	0x0552, r24	; 0x800552 <timer2_toggle_count>
    31e8:	90 93 53 05 	sts	0x0553, r25	; 0x800553 <timer2_toggle_count+0x1>
    31ec:	a0 93 54 05 	sts	0x0554, r26	; 0x800554 <timer2_toggle_count+0x2>
    31f0:	b0 93 55 05 	sts	0x0555, r27	; 0x800555 <timer2_toggle_count+0x3>
C:\Users\DH\AppData\Local\Arduino15\packages\MegaCore\hardware\avr\2.2.0\cores\MCUdude_corefiles/Tone.cpp:599
    // XXX: this assumes timer 2 is always the first one used.
    noTone(tone_pins[0]);
//    disableTimer(2);
//    *timer2_pin_port &= ~(timer2_pin_mask);  // keep pin low after stop
  }
}
    31f4:	ff 91       	pop	r31
    31f6:	ef 91       	pop	r30
    31f8:	bf 91       	pop	r27
    31fa:	af 91       	pop	r26
    31fc:	9f 91       	pop	r25
    31fe:	8f 91       	pop	r24
    3200:	7f 91       	pop	r23
    3202:	6f 91       	pop	r22
    3204:	5f 91       	pop	r21
    3206:	4f 91       	pop	r20
    3208:	3f 91       	pop	r19
    320a:	2f 91       	pop	r18
    320c:	0f 90       	pop	r0
    320e:	0b be       	out	0x3b, r0	; 59
    3210:	0f 90       	pop	r0
    3212:	0f be       	out	0x3f, r0	; 63
    3214:	0f 90       	pop	r0
    3216:	1f 90       	pop	r1
    3218:	18 95       	reti
C:\Users\DH\AppData\Local\Arduino15\packages\MegaCore\hardware\avr\2.2.0\cores\MCUdude_corefiles/Tone.cpp:595
  else
  {
    // need to call noTone() so that the tone_pins[] entry is reset, so the
    // timer gets initialized next time we call tone().
    // XXX: this assumes timer 2 is always the first one used.
    noTone(tone_pins[0]);
    321a:	80 91 04 02 	lds	r24, 0x0204	; 0x800204 <tone_pins>
    321e:	0e 94 9d 18 	call	0x313a	; 0x313a <noTone(unsigned char)>
C:\Users\DH\AppData\Local\Arduino15\packages\MegaCore\hardware\avr\2.2.0\cores\MCUdude_corefiles/Tone.cpp:599
//    disableTimer(2);
//    *timer2_pin_port &= ~(timer2_pin_mask);  // keep pin low after stop
  }
}
    3222:	e8 cf       	rjmp	.-48     	; 0x31f4 <__vector_13+0x90>

00003224 <nothing>:
nothing():
C:\Users\DH\AppData\Local\Arduino15\packages\MegaCore\hardware\avr\2.2.0\cores\MCUdude_corefiles/WInterrupts.c:323
        case 6:
          EIMSK &= ~(1 << INT6);
          break;
        case 7:
          EIMSK &= ~(1 << INT7);
          break;
    3224:	08 95       	ret

00003226 <attachInterrupt>:
attachInterrupt():
    3226:	88 30       	cpi	r24, 0x08	; 8
    3228:	08 f0       	brcs	.+2      	; 0x322c <attachInterrupt+0x6>
    322a:	76 c0       	rjmp	.+236    	; 0x3318 <attachInterrupt+0xf2>
    322c:	e8 2f       	mov	r30, r24
    322e:	f0 e0       	ldi	r31, 0x00	; 0
    3230:	ee 0f       	add	r30, r30
    3232:	ff 1f       	adc	r31, r31
    3234:	eb 5f       	subi	r30, 0xFB	; 251
    3236:	fd 4f       	sbci	r31, 0xFD	; 253
    3238:	71 83       	std	Z+1, r23	; 0x01
    323a:	60 83       	st	Z, r22
    323c:	81 50       	subi	r24, 0x01	; 1
    323e:	87 30       	cpi	r24, 0x07	; 7
    3240:	08 f0       	brcs	.+2      	; 0x3244 <attachInterrupt+0x1e>
    3242:	3d c0       	rjmp	.+122    	; 0x32be <attachInterrupt+0x98>
    3244:	e8 2f       	mov	r30, r24
    3246:	f0 e0       	ldi	r31, 0x00	; 0
    3248:	88 27       	eor	r24, r24
    324a:	e6 5d       	subi	r30, 0xD6	; 214
    324c:	f6 4e       	sbci	r31, 0xE6	; 230
    324e:	8f 4f       	sbci	r24, 0xFF	; 255
    3250:	0c 94 51 1d 	jmp	0x3aa2	; 0x3aa2 <__tablejump2__>
    3254:	67 19       	sub	r22, r7
    3256:	31 19       	sub	r19, r1
    3258:	39 19       	sub	r19, r9
    325a:	45 19       	sub	r20, r5
    325c:	52 19       	sub	r21, r2
    325e:	73 19       	sub	r23, r3
    3260:	80 19       	sub	r24, r0
    3262:	80 91 69 00 	lds	r24, 0x0069	; 0x800069 <__TEXT_REGION_LENGTH__+0x700069>
    3266:	8c 7f       	andi	r24, 0xFC	; 252
    3268:	48 2b       	or	r20, r24
    326a:	40 93 69 00 	sts	0x0069, r20	; 0x800069 <__TEXT_REGION_LENGTH__+0x700069>
    326e:	e8 9a       	sbi	0x1d, 0	; 29
    3270:	08 95       	ret
    3272:	80 91 69 00 	lds	r24, 0x0069	; 0x800069 <__TEXT_REGION_LENGTH__+0x700069>
    3276:	83 7f       	andi	r24, 0xF3	; 243
    3278:	44 0f       	add	r20, r20
    327a:	55 1f       	adc	r21, r21
    327c:	44 0f       	add	r20, r20
    327e:	55 1f       	adc	r21, r21
    3280:	48 2b       	or	r20, r24
    3282:	40 93 69 00 	sts	0x0069, r20	; 0x800069 <__TEXT_REGION_LENGTH__+0x700069>
    3286:	e9 9a       	sbi	0x1d, 1	; 29
    3288:	08 95       	ret
    328a:	80 91 69 00 	lds	r24, 0x0069	; 0x800069 <__TEXT_REGION_LENGTH__+0x700069>
    328e:	8f 7c       	andi	r24, 0xCF	; 207
    3290:	74 e0       	ldi	r23, 0x04	; 4
    3292:	44 0f       	add	r20, r20
    3294:	55 1f       	adc	r21, r21
    3296:	7a 95       	dec	r23
    3298:	e1 f7       	brne	.-8      	; 0x3292 <attachInterrupt+0x6c>
    329a:	48 2b       	or	r20, r24
    329c:	40 93 69 00 	sts	0x0069, r20	; 0x800069 <__TEXT_REGION_LENGTH__+0x700069>
    32a0:	ea 9a       	sbi	0x1d, 2	; 29
    32a2:	08 95       	ret
    32a4:	80 91 69 00 	lds	r24, 0x0069	; 0x800069 <__TEXT_REGION_LENGTH__+0x700069>
    32a8:	8f 73       	andi	r24, 0x3F	; 63
    32aa:	66 e0       	ldi	r22, 0x06	; 6
    32ac:	44 0f       	add	r20, r20
    32ae:	55 1f       	adc	r21, r21
    32b0:	6a 95       	dec	r22
    32b2:	e1 f7       	brne	.-8      	; 0x32ac <attachInterrupt+0x86>
    32b4:	48 2b       	or	r20, r24
    32b6:	40 93 69 00 	sts	0x0069, r20	; 0x800069 <__TEXT_REGION_LENGTH__+0x700069>
    32ba:	eb 9a       	sbi	0x1d, 3	; 29
    32bc:	08 95       	ret
    32be:	80 91 6a 00 	lds	r24, 0x006A	; 0x80006a <__TEXT_REGION_LENGTH__+0x70006a>
    32c2:	8c 7f       	andi	r24, 0xFC	; 252
    32c4:	48 2b       	or	r20, r24
    32c6:	40 93 6a 00 	sts	0x006A, r20	; 0x80006a <__TEXT_REGION_LENGTH__+0x70006a>
    32ca:	ec 9a       	sbi	0x1d, 4	; 29
    32cc:	08 95       	ret
    32ce:	80 91 6a 00 	lds	r24, 0x006A	; 0x80006a <__TEXT_REGION_LENGTH__+0x70006a>
    32d2:	83 7f       	andi	r24, 0xF3	; 243
    32d4:	44 0f       	add	r20, r20
    32d6:	55 1f       	adc	r21, r21
    32d8:	44 0f       	add	r20, r20
    32da:	55 1f       	adc	r21, r21
    32dc:	48 2b       	or	r20, r24
    32de:	40 93 6a 00 	sts	0x006A, r20	; 0x80006a <__TEXT_REGION_LENGTH__+0x70006a>
    32e2:	ed 9a       	sbi	0x1d, 5	; 29
    32e4:	08 95       	ret
    32e6:	80 91 6a 00 	lds	r24, 0x006A	; 0x80006a <__TEXT_REGION_LENGTH__+0x70006a>
    32ea:	8f 7c       	andi	r24, 0xCF	; 207
    32ec:	24 e0       	ldi	r18, 0x04	; 4
    32ee:	44 0f       	add	r20, r20
    32f0:	55 1f       	adc	r21, r21
    32f2:	2a 95       	dec	r18
    32f4:	e1 f7       	brne	.-8      	; 0x32ee <attachInterrupt+0xc8>
    32f6:	48 2b       	or	r20, r24
    32f8:	40 93 6a 00 	sts	0x006A, r20	; 0x80006a <__TEXT_REGION_LENGTH__+0x70006a>
    32fc:	ee 9a       	sbi	0x1d, 6	; 29
    32fe:	08 95       	ret
    3300:	80 91 6a 00 	lds	r24, 0x006A	; 0x80006a <__TEXT_REGION_LENGTH__+0x70006a>
    3304:	8f 73       	andi	r24, 0x3F	; 63
    3306:	96 e0       	ldi	r25, 0x06	; 6
    3308:	44 0f       	add	r20, r20
    330a:	55 1f       	adc	r21, r21
    330c:	9a 95       	dec	r25
    330e:	e1 f7       	brne	.-8      	; 0x3308 <attachInterrupt+0xe2>
    3310:	48 2b       	or	r20, r24
    3312:	40 93 6a 00 	sts	0x006A, r20	; 0x80006a <__TEXT_REGION_LENGTH__+0x70006a>
    3316:	ef 9a       	sbi	0x1d, 7	; 29
    3318:	08 95       	ret

0000331a <__vector_1>:
__vector_1():
C:\Users\DH\AppData\Local\Arduino15\packages\MegaCore\hardware\avr\2.2.0\cores\MCUdude_corefiles/WInterrupts.c:438
  IMPLEMENT_ISR(INT6_vect, EXTERNAL_INT_6)
  IMPLEMENT_ISR(INT7_vect, EXTERNAL_INT_7)

// ATmega640, ATmega1280, ATmega2560 - Arduino MEGA compatible pinout
#elif defined(MEGACORE_100_PIN_MEGA_PINOUT) && (defined(__AVR_ATmega640__) || defined(__AVR_ATmega1280__) || defined(__AVR_ATmega2560__))
  IMPLEMENT_ISR(INT0_vect, EXTERNAL_INT_2)
    331a:	1f 92       	push	r1
    331c:	0f 92       	push	r0
    331e:	0f b6       	in	r0, 0x3f	; 63
    3320:	0f 92       	push	r0
    3322:	11 24       	eor	r1, r1
    3324:	0b b6       	in	r0, 0x3b	; 59
    3326:	0f 92       	push	r0
    3328:	2f 93       	push	r18
    332a:	3f 93       	push	r19
    332c:	4f 93       	push	r20
    332e:	5f 93       	push	r21
    3330:	6f 93       	push	r22
    3332:	7f 93       	push	r23
    3334:	8f 93       	push	r24
    3336:	9f 93       	push	r25
    3338:	af 93       	push	r26
    333a:	bf 93       	push	r27
    333c:	ef 93       	push	r30
    333e:	ff 93       	push	r31
    3340:	e0 91 09 02 	lds	r30, 0x0209	; 0x800209 <intFunc+0x4>
    3344:	f0 91 0a 02 	lds	r31, 0x020A	; 0x80020a <intFunc+0x5>
    3348:	19 95       	eicall
    334a:	ff 91       	pop	r31
    334c:	ef 91       	pop	r30
    334e:	bf 91       	pop	r27
    3350:	af 91       	pop	r26
    3352:	9f 91       	pop	r25
    3354:	8f 91       	pop	r24
    3356:	7f 91       	pop	r23
    3358:	6f 91       	pop	r22
    335a:	5f 91       	pop	r21
    335c:	4f 91       	pop	r20
    335e:	3f 91       	pop	r19
    3360:	2f 91       	pop	r18
    3362:	0f 90       	pop	r0
    3364:	0b be       	out	0x3b, r0	; 59
    3366:	0f 90       	pop	r0
    3368:	0f be       	out	0x3f, r0	; 63
    336a:	0f 90       	pop	r0
    336c:	1f 90       	pop	r1
    336e:	18 95       	reti

00003370 <__vector_2>:
__vector_2():
C:\Users\DH\AppData\Local\Arduino15\packages\MegaCore\hardware\avr\2.2.0\cores\MCUdude_corefiles/WInterrupts.c:439
  IMPLEMENT_ISR(INT1_vect, EXTERNAL_INT_3)
    3370:	1f 92       	push	r1
    3372:	0f 92       	push	r0
    3374:	0f b6       	in	r0, 0x3f	; 63
    3376:	0f 92       	push	r0
    3378:	11 24       	eor	r1, r1
    337a:	0b b6       	in	r0, 0x3b	; 59
    337c:	0f 92       	push	r0
    337e:	2f 93       	push	r18
    3380:	3f 93       	push	r19
    3382:	4f 93       	push	r20
    3384:	5f 93       	push	r21
    3386:	6f 93       	push	r22
    3388:	7f 93       	push	r23
    338a:	8f 93       	push	r24
    338c:	9f 93       	push	r25
    338e:	af 93       	push	r26
    3390:	bf 93       	push	r27
    3392:	ef 93       	push	r30
    3394:	ff 93       	push	r31
    3396:	e0 91 0b 02 	lds	r30, 0x020B	; 0x80020b <intFunc+0x6>
    339a:	f0 91 0c 02 	lds	r31, 0x020C	; 0x80020c <intFunc+0x7>
    339e:	19 95       	eicall
    33a0:	ff 91       	pop	r31
    33a2:	ef 91       	pop	r30
    33a4:	bf 91       	pop	r27
    33a6:	af 91       	pop	r26
    33a8:	9f 91       	pop	r25
    33aa:	8f 91       	pop	r24
    33ac:	7f 91       	pop	r23
    33ae:	6f 91       	pop	r22
    33b0:	5f 91       	pop	r21
    33b2:	4f 91       	pop	r20
    33b4:	3f 91       	pop	r19
    33b6:	2f 91       	pop	r18
    33b8:	0f 90       	pop	r0
    33ba:	0b be       	out	0x3b, r0	; 59
    33bc:	0f 90       	pop	r0
    33be:	0f be       	out	0x3f, r0	; 63
    33c0:	0f 90       	pop	r0
    33c2:	1f 90       	pop	r1
    33c4:	18 95       	reti

000033c6 <__vector_3>:
__vector_3():
C:\Users\DH\AppData\Local\Arduino15\packages\MegaCore\hardware\avr\2.2.0\cores\MCUdude_corefiles/WInterrupts.c:440
  IMPLEMENT_ISR(INT2_vect, EXTERNAL_INT_4)
    33c6:	1f 92       	push	r1
    33c8:	0f 92       	push	r0
    33ca:	0f b6       	in	r0, 0x3f	; 63
    33cc:	0f 92       	push	r0
    33ce:	11 24       	eor	r1, r1
    33d0:	0b b6       	in	r0, 0x3b	; 59
    33d2:	0f 92       	push	r0
    33d4:	2f 93       	push	r18
    33d6:	3f 93       	push	r19
    33d8:	4f 93       	push	r20
    33da:	5f 93       	push	r21
    33dc:	6f 93       	push	r22
    33de:	7f 93       	push	r23
    33e0:	8f 93       	push	r24
    33e2:	9f 93       	push	r25
    33e4:	af 93       	push	r26
    33e6:	bf 93       	push	r27
    33e8:	ef 93       	push	r30
    33ea:	ff 93       	push	r31
    33ec:	e0 91 0d 02 	lds	r30, 0x020D	; 0x80020d <intFunc+0x8>
    33f0:	f0 91 0e 02 	lds	r31, 0x020E	; 0x80020e <intFunc+0x9>
    33f4:	19 95       	eicall
    33f6:	ff 91       	pop	r31
    33f8:	ef 91       	pop	r30
    33fa:	bf 91       	pop	r27
    33fc:	af 91       	pop	r26
    33fe:	9f 91       	pop	r25
    3400:	8f 91       	pop	r24
    3402:	7f 91       	pop	r23
    3404:	6f 91       	pop	r22
    3406:	5f 91       	pop	r21
    3408:	4f 91       	pop	r20
    340a:	3f 91       	pop	r19
    340c:	2f 91       	pop	r18
    340e:	0f 90       	pop	r0
    3410:	0b be       	out	0x3b, r0	; 59
    3412:	0f 90       	pop	r0
    3414:	0f be       	out	0x3f, r0	; 63
    3416:	0f 90       	pop	r0
    3418:	1f 90       	pop	r1
    341a:	18 95       	reti

0000341c <__vector_4>:
__vector_4():
C:\Users\DH\AppData\Local\Arduino15\packages\MegaCore\hardware\avr\2.2.0\cores\MCUdude_corefiles/WInterrupts.c:441
  IMPLEMENT_ISR(INT3_vect, EXTERNAL_INT_5)
    341c:	1f 92       	push	r1
    341e:	0f 92       	push	r0
    3420:	0f b6       	in	r0, 0x3f	; 63
    3422:	0f 92       	push	r0
    3424:	11 24       	eor	r1, r1
    3426:	0b b6       	in	r0, 0x3b	; 59
    3428:	0f 92       	push	r0
    342a:	2f 93       	push	r18
    342c:	3f 93       	push	r19
    342e:	4f 93       	push	r20
    3430:	5f 93       	push	r21
    3432:	6f 93       	push	r22
    3434:	7f 93       	push	r23
    3436:	8f 93       	push	r24
    3438:	9f 93       	push	r25
    343a:	af 93       	push	r26
    343c:	bf 93       	push	r27
    343e:	ef 93       	push	r30
    3440:	ff 93       	push	r31
    3442:	e0 91 0f 02 	lds	r30, 0x020F	; 0x80020f <intFunc+0xa>
    3446:	f0 91 10 02 	lds	r31, 0x0210	; 0x800210 <intFunc+0xb>
    344a:	19 95       	eicall
    344c:	ff 91       	pop	r31
    344e:	ef 91       	pop	r30
    3450:	bf 91       	pop	r27
    3452:	af 91       	pop	r26
    3454:	9f 91       	pop	r25
    3456:	8f 91       	pop	r24
    3458:	7f 91       	pop	r23
    345a:	6f 91       	pop	r22
    345c:	5f 91       	pop	r21
    345e:	4f 91       	pop	r20
    3460:	3f 91       	pop	r19
    3462:	2f 91       	pop	r18
    3464:	0f 90       	pop	r0
    3466:	0b be       	out	0x3b, r0	; 59
    3468:	0f 90       	pop	r0
    346a:	0f be       	out	0x3f, r0	; 63
    346c:	0f 90       	pop	r0
    346e:	1f 90       	pop	r1
    3470:	18 95       	reti

00003472 <__vector_5>:
__vector_5():
C:\Users\DH\AppData\Local\Arduino15\packages\MegaCore\hardware\avr\2.2.0\cores\MCUdude_corefiles/WInterrupts.c:442
  IMPLEMENT_ISR(INT4_vect, EXTERNAL_INT_0)
    3472:	1f 92       	push	r1
    3474:	0f 92       	push	r0
    3476:	0f b6       	in	r0, 0x3f	; 63
    3478:	0f 92       	push	r0
    347a:	11 24       	eor	r1, r1
    347c:	0b b6       	in	r0, 0x3b	; 59
    347e:	0f 92       	push	r0
    3480:	2f 93       	push	r18
    3482:	3f 93       	push	r19
    3484:	4f 93       	push	r20
    3486:	5f 93       	push	r21
    3488:	6f 93       	push	r22
    348a:	7f 93       	push	r23
    348c:	8f 93       	push	r24
    348e:	9f 93       	push	r25
    3490:	af 93       	push	r26
    3492:	bf 93       	push	r27
    3494:	ef 93       	push	r30
    3496:	ff 93       	push	r31
    3498:	e0 91 05 02 	lds	r30, 0x0205	; 0x800205 <intFunc>
    349c:	f0 91 06 02 	lds	r31, 0x0206	; 0x800206 <intFunc+0x1>
    34a0:	19 95       	eicall
    34a2:	ff 91       	pop	r31
    34a4:	ef 91       	pop	r30
    34a6:	bf 91       	pop	r27
    34a8:	af 91       	pop	r26
    34aa:	9f 91       	pop	r25
    34ac:	8f 91       	pop	r24
    34ae:	7f 91       	pop	r23
    34b0:	6f 91       	pop	r22
    34b2:	5f 91       	pop	r21
    34b4:	4f 91       	pop	r20
    34b6:	3f 91       	pop	r19
    34b8:	2f 91       	pop	r18
    34ba:	0f 90       	pop	r0
    34bc:	0b be       	out	0x3b, r0	; 59
    34be:	0f 90       	pop	r0
    34c0:	0f be       	out	0x3f, r0	; 63
    34c2:	0f 90       	pop	r0
    34c4:	1f 90       	pop	r1
    34c6:	18 95       	reti

000034c8 <__vector_6>:
__vector_6():
C:\Users\DH\AppData\Local\Arduino15\packages\MegaCore\hardware\avr\2.2.0\cores\MCUdude_corefiles/WInterrupts.c:443
  IMPLEMENT_ISR(INT5_vect, EXTERNAL_INT_1)
    34c8:	1f 92       	push	r1
    34ca:	0f 92       	push	r0
    34cc:	0f b6       	in	r0, 0x3f	; 63
    34ce:	0f 92       	push	r0
    34d0:	11 24       	eor	r1, r1
    34d2:	0b b6       	in	r0, 0x3b	; 59
    34d4:	0f 92       	push	r0
    34d6:	2f 93       	push	r18
    34d8:	3f 93       	push	r19
    34da:	4f 93       	push	r20
    34dc:	5f 93       	push	r21
    34de:	6f 93       	push	r22
    34e0:	7f 93       	push	r23
    34e2:	8f 93       	push	r24
    34e4:	9f 93       	push	r25
    34e6:	af 93       	push	r26
    34e8:	bf 93       	push	r27
    34ea:	ef 93       	push	r30
    34ec:	ff 93       	push	r31
    34ee:	e0 91 07 02 	lds	r30, 0x0207	; 0x800207 <intFunc+0x2>
    34f2:	f0 91 08 02 	lds	r31, 0x0208	; 0x800208 <intFunc+0x3>
    34f6:	19 95       	eicall
    34f8:	ff 91       	pop	r31
    34fa:	ef 91       	pop	r30
    34fc:	bf 91       	pop	r27
    34fe:	af 91       	pop	r26
    3500:	9f 91       	pop	r25
    3502:	8f 91       	pop	r24
    3504:	7f 91       	pop	r23
    3506:	6f 91       	pop	r22
    3508:	5f 91       	pop	r21
    350a:	4f 91       	pop	r20
    350c:	3f 91       	pop	r19
    350e:	2f 91       	pop	r18
    3510:	0f 90       	pop	r0
    3512:	0b be       	out	0x3b, r0	; 59
    3514:	0f 90       	pop	r0
    3516:	0f be       	out	0x3f, r0	; 63
    3518:	0f 90       	pop	r0
    351a:	1f 90       	pop	r1
    351c:	18 95       	reti

0000351e <__vector_7>:
__vector_7():
C:\Users\DH\AppData\Local\Arduino15\packages\MegaCore\hardware\avr\2.2.0\cores\MCUdude_corefiles/WInterrupts.c:444
  IMPLEMENT_ISR(INT6_vect, EXTERNAL_INT_6)
    351e:	1f 92       	push	r1
    3520:	0f 92       	push	r0
    3522:	0f b6       	in	r0, 0x3f	; 63
    3524:	0f 92       	push	r0
    3526:	11 24       	eor	r1, r1
    3528:	0b b6       	in	r0, 0x3b	; 59
    352a:	0f 92       	push	r0
    352c:	2f 93       	push	r18
    352e:	3f 93       	push	r19
    3530:	4f 93       	push	r20
    3532:	5f 93       	push	r21
    3534:	6f 93       	push	r22
    3536:	7f 93       	push	r23
    3538:	8f 93       	push	r24
    353a:	9f 93       	push	r25
    353c:	af 93       	push	r26
    353e:	bf 93       	push	r27
    3540:	ef 93       	push	r30
    3542:	ff 93       	push	r31
    3544:	e0 91 11 02 	lds	r30, 0x0211	; 0x800211 <intFunc+0xc>
    3548:	f0 91 12 02 	lds	r31, 0x0212	; 0x800212 <intFunc+0xd>
    354c:	19 95       	eicall
    354e:	ff 91       	pop	r31
    3550:	ef 91       	pop	r30
    3552:	bf 91       	pop	r27
    3554:	af 91       	pop	r26
    3556:	9f 91       	pop	r25
    3558:	8f 91       	pop	r24
    355a:	7f 91       	pop	r23
    355c:	6f 91       	pop	r22
    355e:	5f 91       	pop	r21
    3560:	4f 91       	pop	r20
    3562:	3f 91       	pop	r19
    3564:	2f 91       	pop	r18
    3566:	0f 90       	pop	r0
    3568:	0b be       	out	0x3b, r0	; 59
    356a:	0f 90       	pop	r0
    356c:	0f be       	out	0x3f, r0	; 63
    356e:	0f 90       	pop	r0
    3570:	1f 90       	pop	r1
    3572:	18 95       	reti

00003574 <__vector_8>:
__vector_8():
C:\Users\DH\AppData\Local\Arduino15\packages\MegaCore\hardware\avr\2.2.0\cores\MCUdude_corefiles/WInterrupts.c:445
  IMPLEMENT_ISR(INT7_vect, EXTERNAL_INT_7)
    3574:	1f 92       	push	r1
    3576:	0f 92       	push	r0
    3578:	0f b6       	in	r0, 0x3f	; 63
    357a:	0f 92       	push	r0
    357c:	11 24       	eor	r1, r1
    357e:	0b b6       	in	r0, 0x3b	; 59
    3580:	0f 92       	push	r0
    3582:	2f 93       	push	r18
    3584:	3f 93       	push	r19
    3586:	4f 93       	push	r20
    3588:	5f 93       	push	r21
    358a:	6f 93       	push	r22
    358c:	7f 93       	push	r23
    358e:	8f 93       	push	r24
    3590:	9f 93       	push	r25
    3592:	af 93       	push	r26
    3594:	bf 93       	push	r27
    3596:	ef 93       	push	r30
    3598:	ff 93       	push	r31
    359a:	e0 91 13 02 	lds	r30, 0x0213	; 0x800213 <intFunc+0xe>
    359e:	f0 91 14 02 	lds	r31, 0x0214	; 0x800214 <intFunc+0xf>
    35a2:	19 95       	eicall
    35a4:	ff 91       	pop	r31
    35a6:	ef 91       	pop	r30
    35a8:	bf 91       	pop	r27
    35aa:	af 91       	pop	r26
    35ac:	9f 91       	pop	r25
    35ae:	8f 91       	pop	r24
    35b0:	7f 91       	pop	r23
    35b2:	6f 91       	pop	r22
    35b4:	5f 91       	pop	r21
    35b6:	4f 91       	pop	r20
    35b8:	3f 91       	pop	r19
    35ba:	2f 91       	pop	r18
    35bc:	0f 90       	pop	r0
    35be:	0b be       	out	0x3b, r0	; 59
    35c0:	0f 90       	pop	r0
    35c2:	0f be       	out	0x3f, r0	; 63
    35c4:	0f 90       	pop	r0
    35c6:	1f 90       	pop	r1
    35c8:	18 95       	reti

000035ca <initVariant>:
initVariant():
C:\Users\DH\AppData\Local\Arduino15\packages\MegaCore\hardware\avr\2.2.0\cores\MCUdude_corefiles/main.cpp:28
int atexit(void (* /*func*/ )()) { return 0; }

// Weak empty variant initialization function.
// May be redefined by variant files.
void initVariant() __attribute__((weak));
void initVariant() { }
    35ca:	08 95       	ret

000035cc <main>:
main():
C:\Users\DH\AppData\Local\Arduino15\packages\MegaCore\hardware\avr\2.2.0\cores\MCUdude_corefiles/main.cpp:35
//void setupUSB() __attribute__((weak));
//void setupUSB() { }

int main(void)
{
  init();
    35cc:	0e 94 a9 1b 	call	0x3752	; 0x3752 <init>
C:\Users\DH\AppData\Local\Arduino15\packages\MegaCore\hardware\avr\2.2.0\cores\MCUdude_corefiles/main.cpp:37

  initVariant();
    35d0:	0e 94 e5 1a 	call	0x35ca	; 0x35ca <initVariant>
C:\Users\DH\AppData\Local\Arduino15\packages\MegaCore\hardware\avr\2.2.0\cores\MCUdude_corefiles/main.cpp:43

#if defined(USBCON)
  USBDevice.attach();
#endif
  
  setup();
    35d4:	0e 94 ce 09 	call	0x139c	; 0x139c <setup>
C:\Users\DH\AppData\Local\Arduino15\packages\MegaCore\hardware\avr\2.2.0\cores\MCUdude_corefiles/main.cpp:47
    
  for (;;) {
    loop();
    if (serialEventRun) serialEventRun();
    35d8:	c2 ee       	ldi	r28, 0xE2	; 226
    35da:	d2 e1       	ldi	r29, 0x12	; 18
C:\Users\DH\AppData\Local\Arduino15\packages\MegaCore\hardware\avr\2.2.0\cores\MCUdude_corefiles/main.cpp:46
#endif
  
  setup();
    
  for (;;) {
    loop();
    35dc:	0e 94 fb 08 	call	0x11f6	; 0x11f6 <loop>
C:\Users\DH\AppData\Local\Arduino15\packages\MegaCore\hardware\avr\2.2.0\cores\MCUdude_corefiles/main.cpp:47
    if (serialEventRun) serialEventRun();
    35e0:	20 97       	sbiw	r28, 0x00	; 0
    35e2:	e1 f3       	breq	.-8      	; 0x35dc <main+0x10>
C:\Users\DH\AppData\Local\Arduino15\packages\MegaCore\hardware\avr\2.2.0\cores\MCUdude_corefiles/main.cpp:47 (discriminator 1)
    35e4:	0e 94 e2 12 	call	0x25c4	; 0x25c4 <serialEventRun()>
    35e8:	f9 cf       	rjmp	.-14     	; 0x35dc <main+0x10>

000035ea <__vector_23>:
__vector_23():
C:\Users\DH\AppData\Local\Arduino15\packages\MegaCore\hardware\avr\2.2.0\cores\MCUdude_corefiles/wiring.c:939
    "   brne 1b"                     // 2 cycles
    : /* no outputs */
    : "w" (us)
  );
  // return = 4 cycles
}
    35ea:	1f 92       	push	r1
    35ec:	0f 92       	push	r0
    35ee:	0f b6       	in	r0, 0x3f	; 63
    35f0:	0f 92       	push	r0
    35f2:	11 24       	eor	r1, r1
    35f4:	2f 93       	push	r18
    35f6:	3f 93       	push	r19
    35f8:	8f 93       	push	r24
    35fa:	9f 93       	push	r25
    35fc:	af 93       	push	r26
    35fe:	bf 93       	push	r27
    3600:	80 91 69 05 	lds	r24, 0x0569	; 0x800569 <timer0_millis>
    3604:	90 91 6a 05 	lds	r25, 0x056A	; 0x80056a <timer0_millis+0x1>
    3608:	a0 91 6b 05 	lds	r26, 0x056B	; 0x80056b <timer0_millis+0x2>
    360c:	b0 91 6c 05 	lds	r27, 0x056C	; 0x80056c <timer0_millis+0x3>
    3610:	30 91 68 05 	lds	r19, 0x0568	; 0x800568 <timer0_fract>
    3614:	26 e0       	ldi	r18, 0x06	; 6
    3616:	23 0f       	add	r18, r19
    3618:	2d 37       	cpi	r18, 0x7D	; 125
    361a:	68 f1       	brcs	.+90     	; 0x3676 <__vector_23+0x8c>
    361c:	29 e8       	ldi	r18, 0x89	; 137
    361e:	23 0f       	add	r18, r19
    3620:	03 96       	adiw	r24, 0x03	; 3
    3622:	a1 1d       	adc	r26, r1
    3624:	b1 1d       	adc	r27, r1
    3626:	20 93 68 05 	sts	0x0568, r18	; 0x800568 <timer0_fract>
    362a:	80 93 69 05 	sts	0x0569, r24	; 0x800569 <timer0_millis>
    362e:	90 93 6a 05 	sts	0x056A, r25	; 0x80056a <timer0_millis+0x1>
    3632:	a0 93 6b 05 	sts	0x056B, r26	; 0x80056b <timer0_millis+0x2>
    3636:	b0 93 6c 05 	sts	0x056C, r27	; 0x80056c <timer0_millis+0x3>
    363a:	80 91 64 05 	lds	r24, 0x0564	; 0x800564 <timer0_overflow_count>
    363e:	90 91 65 05 	lds	r25, 0x0565	; 0x800565 <timer0_overflow_count+0x1>
    3642:	a0 91 66 05 	lds	r26, 0x0566	; 0x800566 <timer0_overflow_count+0x2>
    3646:	b0 91 67 05 	lds	r27, 0x0567	; 0x800567 <timer0_overflow_count+0x3>
    364a:	01 96       	adiw	r24, 0x01	; 1
    364c:	a1 1d       	adc	r26, r1
    364e:	b1 1d       	adc	r27, r1
    3650:	80 93 64 05 	sts	0x0564, r24	; 0x800564 <timer0_overflow_count>
    3654:	90 93 65 05 	sts	0x0565, r25	; 0x800565 <timer0_overflow_count+0x1>
    3658:	a0 93 66 05 	sts	0x0566, r26	; 0x800566 <timer0_overflow_count+0x2>
    365c:	b0 93 67 05 	sts	0x0567, r27	; 0x800567 <timer0_overflow_count+0x3>
    3660:	bf 91       	pop	r27
    3662:	af 91       	pop	r26
    3664:	9f 91       	pop	r25
    3666:	8f 91       	pop	r24
    3668:	3f 91       	pop	r19
    366a:	2f 91       	pop	r18
    366c:	0f 90       	pop	r0
    366e:	0f be       	out	0x3f, r0	; 63
    3670:	0f 90       	pop	r0
    3672:	1f 90       	pop	r1
    3674:	18 95       	reti
    3676:	02 96       	adiw	r24, 0x02	; 2
    3678:	a1 1d       	adc	r26, r1
    367a:	b1 1d       	adc	r27, r1
    367c:	d4 cf       	rjmp	.-88     	; 0x3626 <__vector_23+0x3c>

0000367e <millis>:
millis():
    367e:	2f b7       	in	r18, 0x3f	; 63
    3680:	f8 94       	cli
    3682:	60 91 69 05 	lds	r22, 0x0569	; 0x800569 <timer0_millis>
    3686:	70 91 6a 05 	lds	r23, 0x056A	; 0x80056a <timer0_millis+0x1>
    368a:	80 91 6b 05 	lds	r24, 0x056B	; 0x80056b <timer0_millis+0x2>
    368e:	90 91 6c 05 	lds	r25, 0x056C	; 0x80056c <timer0_millis+0x3>
    3692:	2f bf       	out	0x3f, r18	; 63
    3694:	08 95       	ret

00003696 <micros>:
micros():
    3696:	3f b7       	in	r19, 0x3f	; 63
    3698:	f8 94       	cli
    369a:	80 91 64 05 	lds	r24, 0x0564	; 0x800564 <timer0_overflow_count>
    369e:	90 91 65 05 	lds	r25, 0x0565	; 0x800565 <timer0_overflow_count+0x1>
    36a2:	a0 91 66 05 	lds	r26, 0x0566	; 0x800566 <timer0_overflow_count+0x2>
    36a6:	b0 91 67 05 	lds	r27, 0x0567	; 0x800567 <timer0_overflow_count+0x3>
    36aa:	26 b5       	in	r18, 0x26	; 38
    36ac:	a8 9b       	sbis	0x15, 0	; 21
    36ae:	05 c0       	rjmp	.+10     	; 0x36ba <micros+0x24>
    36b0:	2f 3f       	cpi	r18, 0xFF	; 255
    36b2:	19 f0       	breq	.+6      	; 0x36ba <micros+0x24>
    36b4:	01 96       	adiw	r24, 0x01	; 1
    36b6:	a1 1d       	adc	r26, r1
    36b8:	b1 1d       	adc	r27, r1
    36ba:	3f bf       	out	0x3f, r19	; 63
    36bc:	ba 2f       	mov	r27, r26
    36be:	a9 2f       	mov	r26, r25
    36c0:	98 2f       	mov	r25, r24
    36c2:	88 27       	eor	r24, r24
    36c4:	bc 01       	movw	r22, r24
    36c6:	cd 01       	movw	r24, r26
    36c8:	62 0f       	add	r22, r18
    36ca:	71 1d       	adc	r23, r1
    36cc:	81 1d       	adc	r24, r1
    36ce:	91 1d       	adc	r25, r1
    36d0:	43 e0       	ldi	r20, 0x03	; 3
    36d2:	66 0f       	add	r22, r22
    36d4:	77 1f       	adc	r23, r23
    36d6:	88 1f       	adc	r24, r24
    36d8:	99 1f       	adc	r25, r25
    36da:	4a 95       	dec	r20
    36dc:	d1 f7       	brne	.-12     	; 0x36d2 <micros+0x3c>
    36de:	08 95       	ret

000036e0 <delay>:
delay():
    36e0:	8f 92       	push	r8
    36e2:	9f 92       	push	r9
    36e4:	af 92       	push	r10
    36e6:	bf 92       	push	r11
    36e8:	cf 92       	push	r12
    36ea:	df 92       	push	r13
    36ec:	ef 92       	push	r14
    36ee:	ff 92       	push	r15
    36f0:	6b 01       	movw	r12, r22
    36f2:	7c 01       	movw	r14, r24
    36f4:	0e 94 4b 1b 	call	0x3696	; 0x3696 <micros>
    36f8:	4b 01       	movw	r8, r22
    36fa:	5c 01       	movw	r10, r24
    36fc:	c1 14       	cp	r12, r1
    36fe:	d1 04       	cpc	r13, r1
    3700:	e1 04       	cpc	r14, r1
    3702:	f1 04       	cpc	r15, r1
    3704:	e9 f0       	breq	.+58     	; 0x3740 <delay+0x60>
    3706:	0e 94 0f 1d 	call	0x3a1e	; 0x3a1e <yield>
    370a:	0e 94 4b 1b 	call	0x3696	; 0x3696 <micros>
    370e:	68 19       	sub	r22, r8
    3710:	79 09       	sbc	r23, r9
    3712:	8a 09       	sbc	r24, r10
    3714:	9b 09       	sbc	r25, r11
    3716:	68 3e       	cpi	r22, 0xE8	; 232
    3718:	73 40       	sbci	r23, 0x03	; 3
    371a:	81 05       	cpc	r24, r1
    371c:	91 05       	cpc	r25, r1
    371e:	70 f3       	brcs	.-36     	; 0x36fc <delay+0x1c>
    3720:	21 e0       	ldi	r18, 0x01	; 1
    3722:	c2 1a       	sub	r12, r18
    3724:	d1 08       	sbc	r13, r1
    3726:	e1 08       	sbc	r14, r1
    3728:	f1 08       	sbc	r15, r1
    372a:	88 ee       	ldi	r24, 0xE8	; 232
    372c:	88 0e       	add	r8, r24
    372e:	83 e0       	ldi	r24, 0x03	; 3
    3730:	98 1e       	adc	r9, r24
    3732:	a1 1c       	adc	r10, r1
    3734:	b1 1c       	adc	r11, r1
    3736:	c1 14       	cp	r12, r1
    3738:	d1 04       	cpc	r13, r1
    373a:	e1 04       	cpc	r14, r1
    373c:	f1 04       	cpc	r15, r1
    373e:	29 f7       	brne	.-54     	; 0x370a <delay+0x2a>
    3740:	ff 90       	pop	r15
    3742:	ef 90       	pop	r14
    3744:	df 90       	pop	r13
    3746:	cf 90       	pop	r12
    3748:	bf 90       	pop	r11
    374a:	af 90       	pop	r10
    374c:	9f 90       	pop	r9
    374e:	8f 90       	pop	r8
    3750:	08 95       	ret

00003752 <init>:
init():
C:\Users\DH\AppData\Local\Arduino15\packages\MegaCore\hardware\avr\2.2.0\cores\MCUdude_corefiles/wiring.c:945

void init()
{
  // this needs to be called before setup() or some functions won't
  // work there
  sei();
    3752:	78 94       	sei
C:\Users\DH\AppData\Local\Arduino15\packages\MegaCore\hardware\avr\2.2.0\cores\MCUdude_corefiles/wiring.c:957

  // On the ATmega168, timer 0 is also used for fast hardware pwm
  // (using phase-correct PWM would mean that timer 0 overflowed half as often
  // resulting in different millis() behavior on the ATmega8 and ATmega168)
#if defined(TCCR0A) && defined(WGM01)
  TCCR0A |= _BV(WGM01) | _BV(WGM00);
    3754:	84 b5       	in	r24, 0x24	; 36
    3756:	83 60       	ori	r24, 0x03	; 3
    3758:	84 bd       	out	0x24, r24	; 36
C:\Users\DH\AppData\Local\Arduino15\packages\MegaCore\hardware\avr\2.2.0\cores\MCUdude_corefiles/wiring.c:972
  #if defined(WGM00) && defined(WGM01) // The ATmega8 doesn't have WGM00 and WGM01
    TCCR0 |= _BV(WGM01) | _BV(WGM00);
  #endif
#elif defined(TCCR0B) && defined(CS01) && defined(CS00)
  // This combination is for the standard 168/328/640/1280/1281/2560/2561
  TCCR0B |= _BV(CS01) | _BV(CS00);
    375a:	85 b5       	in	r24, 0x25	; 37
    375c:	83 60       	ori	r24, 0x03	; 3
    375e:	85 bd       	out	0x25, r24	; 37
C:\Users\DH\AppData\Local\Arduino15\packages\MegaCore\hardware\avr\2.2.0\cores\MCUdude_corefiles/wiring.c:984

// Enable timer 0 overflow interrupt
#if defined(TIMSK) && defined(TOIE0)
  TIMSK |= _BV(TOIE0);
#elif defined(TIMSK0) && defined(TOIE0)
  TIMSK0 |= _BV(TOIE0);
    3760:	ee e6       	ldi	r30, 0x6E	; 110
    3762:	f0 e0       	ldi	r31, 0x00	; 0
    3764:	80 81       	ld	r24, Z
    3766:	81 60       	ori	r24, 0x01	; 1
    3768:	80 83       	st	Z, r24
C:\Users\DH\AppData\Local\Arduino15\packages\MegaCore\hardware\avr\2.2.0\cores\MCUdude_corefiles/wiring.c:995
// this is better for motors as it ensures an even waveform
// note, however, that fast pwm mode can achieve a frequency of up
// 8 MHz (with a 16 MHz clock) at 50% duty cycle

#if defined(TCCR1B) && defined(CS11) && defined(CS10)
  TCCR1B = _BV(CS11); // Set timer 1 prescale factor to 64
    376a:	e1 e8       	ldi	r30, 0x81	; 129
    376c:	f0 e0       	ldi	r31, 0x00	; 0
    376e:	82 e0       	ldi	r24, 0x02	; 2
    3770:	80 83       	st	Z, r24
C:\Users\DH\AppData\Local\Arduino15\packages\MegaCore\hardware\avr\2.2.0\cores\MCUdude_corefiles/wiring.c:997
#if F_CPU >= 8000000L
  TCCR1B |= _BV(CS10);
    3772:	80 81       	ld	r24, Z
    3774:	81 60       	ori	r24, 0x01	; 1
    3776:	80 83       	st	Z, r24
C:\Users\DH\AppData\Local\Arduino15\packages\MegaCore\hardware\avr\2.2.0\cores\MCUdude_corefiles/wiring.c:1006
#if F_CPU >= 8000000L
  TCCR1 |= _BV(CS10);
#endif
#endif
#if defined(TCCR1A) && defined(WGM10)
  TCCR1A |= _BV(WGM10); // Put timer 1 in 8-bit phase correct pwm mode
    3778:	e0 e8       	ldi	r30, 0x80	; 128
    377a:	f0 e0       	ldi	r31, 0x00	; 0
    377c:	80 81       	ld	r24, Z
    377e:	81 60       	ori	r24, 0x01	; 1
    3780:	80 83       	st	Z, r24
C:\Users\DH\AppData\Local\Arduino15\packages\MegaCore\hardware\avr\2.2.0\cores\MCUdude_corefiles/wiring.c:1013

// Set timer 2 prescale factor to 64
#if defined(TCCR2) && defined(CS22)
  TCCR2 |= _BV(CS22);
#elif defined(TCCR2B) && defined(CS22)
  TCCR2B |= _BV(CS22);
    3782:	e1 eb       	ldi	r30, 0xB1	; 177
    3784:	f0 e0       	ldi	r31, 0x00	; 0
    3786:	80 81       	ld	r24, Z
    3788:	84 60       	ori	r24, 0x04	; 4
    378a:	80 83       	st	Z, r24
C:\Users\DH\AppData\Local\Arduino15\packages\MegaCore\hardware\avr\2.2.0\cores\MCUdude_corefiles/wiring.c:1022

// Configure timer 2 for phase correct pwm (8-bit)
#if defined(TCCR2) && defined(WGM20)
  TCCR2 |= _BV(WGM20);
#elif defined(TCCR2A) && defined(WGM20)
  TCCR2A |= _BV(WGM20);
    378c:	e0 eb       	ldi	r30, 0xB0	; 176
    378e:	f0 e0       	ldi	r31, 0x00	; 0
    3790:	80 81       	ld	r24, Z
    3792:	81 60       	ori	r24, 0x01	; 1
    3794:	80 83       	st	Z, r24
C:\Users\DH\AppData\Local\Arduino15\packages\MegaCore\hardware\avr\2.2.0\cores\MCUdude_corefiles/wiring.c:1028
//#else
  // Timer 2 not finished (may not be present on this CPU)
#endif

#if defined(TCCR3B) && defined(CS31) && defined(WGM30)
  TCCR3B |= _BV(CS31) | _BV(CS30); // Set timer 3 prescale factor to 64
    3796:	e1 e9       	ldi	r30, 0x91	; 145
    3798:	f0 e0       	ldi	r31, 0x00	; 0
    379a:	80 81       	ld	r24, Z
    379c:	83 60       	ori	r24, 0x03	; 3
    379e:	80 83       	st	Z, r24
C:\Users\DH\AppData\Local\Arduino15\packages\MegaCore\hardware\avr\2.2.0\cores\MCUdude_corefiles/wiring.c:1029
  TCCR3A |= _BV(WGM30);            // Put timer 3 in 8-bit phase correct pwm mode
    37a0:	e0 e9       	ldi	r30, 0x90	; 144
    37a2:	f0 e0       	ldi	r31, 0x00	; 0
    37a4:	80 81       	ld	r24, Z
    37a6:	81 60       	ori	r24, 0x01	; 1
    37a8:	80 83       	st	Z, r24
C:\Users\DH\AppData\Local\Arduino15\packages\MegaCore\hardware\avr\2.2.0\cores\MCUdude_corefiles/wiring.c:1038
  TCCR4B |= _BV(CS42) | _BV(CS41) | _BV(CS40); // Set timer 4 prescale factor to 64
  TCCR4D |= _BV(WGM40);                        // Put timer 4 in phase- and frequency-correct PWM mode
  TCCR4A |= _BV(PWM4A);                        // Enable PWM mode for comparator OCR4A
  TCCR4C |= _BV(PWM4D);                        // Enable PWM mode for comparator OCR4D
#elif defined(TCCR4B) && defined(CS41) && defined(WGM40)
  TCCR4B |= _BV(CS41) | _BV(CS40); // Set timer 4 prescale factor to 64
    37aa:	e1 ea       	ldi	r30, 0xA1	; 161
    37ac:	f0 e0       	ldi	r31, 0x00	; 0
    37ae:	80 81       	ld	r24, Z
    37b0:	83 60       	ori	r24, 0x03	; 3
    37b2:	80 83       	st	Z, r24
C:\Users\DH\AppData\Local\Arduino15\packages\MegaCore\hardware\avr\2.2.0\cores\MCUdude_corefiles/wiring.c:1039
  TCCR4A |= _BV(WGM40);            // Put timer 4 in 8-bit phase correct pwm mode
    37b4:	e0 ea       	ldi	r30, 0xA0	; 160
    37b6:	f0 e0       	ldi	r31, 0x00	; 0
    37b8:	80 81       	ld	r24, Z
    37ba:	81 60       	ori	r24, 0x01	; 1
    37bc:	80 83       	st	Z, r24
C:\Users\DH\AppData\Local\Arduino15\packages\MegaCore\hardware\avr\2.2.0\cores\MCUdude_corefiles/wiring.c:1043
#endif

#if defined(TCCR5B) && defined(CS51) && defined(WGM50)
  TCCR5B |= _BV(CS51) | _BV(CS50); // Set timer 5 prescale factor to 64
    37be:	e1 e2       	ldi	r30, 0x21	; 33
    37c0:	f1 e0       	ldi	r31, 0x01	; 1
    37c2:	80 81       	ld	r24, Z
    37c4:	83 60       	ori	r24, 0x03	; 3
    37c6:	80 83       	st	Z, r24
C:\Users\DH\AppData\Local\Arduino15\packages\MegaCore\hardware\avr\2.2.0\cores\MCUdude_corefiles/wiring.c:1044
  TCCR5A |= _BV(WGM50);            // Put timer 5 in 8-bit phase correct pwm mode
    37c8:	e0 e2       	ldi	r30, 0x20	; 32
    37ca:	f1 e0       	ldi	r31, 0x01	; 1
    37cc:	80 81       	ld	r24, Z
    37ce:	81 60       	ori	r24, 0x01	; 1
    37d0:	80 83       	st	Z, r24
C:\Users\DH\AppData\Local\Arduino15\packages\MegaCore\hardware\avr\2.2.0\cores\MCUdude_corefiles/wiring.c:1052
#if defined(ADCSRA)
  // set a2d prescaler so we are inside the desired 50-200 KHz range.
  #if F_CPU >= 16000000 // 16 MHz / 128 = 125 KHz
    ADCSRA = _BV(ADPS2) | _BV(ADPS1) | _BV(ADPS0) | _BV(ADEN);
  #elif F_CPU >= 8000000 // 8 MHz / 64 = 125 KHz
    ADCSRA = _BV(ADPS2) | _BV(ADPS1) | _BV(ADEN);
    37d2:	86 e8       	ldi	r24, 0x86	; 134
    37d4:	80 93 7a 00 	sts	0x007A, r24	; 0x80007a <__TEXT_REGION_LENGTH__+0x70007a>
C:\Users\DH\AppData\Local\Arduino15\packages\MegaCore\hardware\avr\2.2.0\cores\MCUdude_corefiles/wiring.c:1070
  // here so they can be used as normal digital i/o; they will be
  // reconnected in Serial.begin()
#if defined(UCSRB)
  UCSRB = 0;
#elif defined(UCSR0B)
  UCSR0B = 0;
    37d8:	10 92 c1 00 	sts	0x00C1, r1	; 0x8000c1 <__TEXT_REGION_LENGTH__+0x7000c1>
C:\Users\DH\AppData\Local\Arduino15\packages\MegaCore\hardware\avr\2.2.0\cores\MCUdude_corefiles/wiring.c:1072
#endif
}
    37dc:	08 95       	ret

000037de <analogRead>:
analogRead():
C:\Users\DH\AppData\Local\Arduino15\packages\MegaCore\hardware\avr\2.2.0\cores\MCUdude_corefiles/wiring_analog.c:50
{
  uint8_t low, high;

// Macro located in the pins_arduino.h file
#ifdef analogPinToChannel
  pin = analogPinToChannel(pin);
    37de:	80 31       	cpi	r24, 0x10	; 16
    37e0:	20 f0       	brcs	.+8      	; 0x37ea <analogRead+0xc>
C:\Users\DH\AppData\Local\Arduino15\packages\MegaCore\hardware\avr\2.2.0\cores\MCUdude_corefiles/wiring_analog.c:50 (discriminator 1)
    37e2:	85 33       	cpi	r24, 0x35	; 53
    37e4:	08 f4       	brcc	.+2      	; 0x37e8 <analogRead+0xa>
    37e6:	85 e3       	ldi	r24, 0x35	; 53
    37e8:	86 53       	subi	r24, 0x36	; 54
C:\Users\DH\AppData\Local\Arduino15\packages\MegaCore\hardware\avr\2.2.0\cores\MCUdude_corefiles/wiring_analog.c:62 (discriminator 4)
#endif

#if defined(ADCSRB) && defined(MUX5)
  // the MUX5 bit of ADCSRB selects whether we're reading from channels
  // 0 to 7 (MUX5 low) or 8 to 15 (MUX5 high).
  ADCSRB = (ADCSRB & ~(1 << MUX5)) | (((pin >> 3) & 0x01) << MUX5);
    37ea:	20 91 7b 00 	lds	r18, 0x007B	; 0x80007b <__TEXT_REGION_LENGTH__+0x70007b>
    37ee:	98 2f       	mov	r25, r24
    37f0:	98 70       	andi	r25, 0x08	; 8
    37f2:	27 7f       	andi	r18, 0xF7	; 247
    37f4:	92 2b       	or	r25, r18
    37f6:	90 93 7b 00 	sts	0x007B, r25	; 0x80007b <__TEXT_REGION_LENGTH__+0x70007b>
C:\Users\DH\AppData\Local\Arduino15\packages\MegaCore\hardware\avr\2.2.0\cores\MCUdude_corefiles/wiring_analog.c:69 (discriminator 4)
  
  // set the analog reference (high two bits of ADMUX) and select the
  // channel (low 4 bits).  this also sets ADLAR (left-adjust result)
  // to 0 (the default).
#if defined(ADMUX)
  ADMUX = (analog_reference << 6) | (pin & 0x07);
    37fa:	20 91 15 02 	lds	r18, 0x0215	; 0x800215 <analog_reference>
    37fe:	90 e4       	ldi	r25, 0x40	; 64
    3800:	29 9f       	mul	r18, r25
    3802:	90 01       	movw	r18, r0
    3804:	11 24       	eor	r1, r1
    3806:	87 70       	andi	r24, 0x07	; 7
    3808:	82 2b       	or	r24, r18
    380a:	80 93 7c 00 	sts	0x007C, r24	; 0x80007c <__TEXT_REGION_LENGTH__+0x70007c>
C:\Users\DH\AppData\Local\Arduino15\packages\MegaCore\hardware\avr\2.2.0\cores\MCUdude_corefiles/wiring_analog.c:77 (discriminator 4)
  // without a delay, we seem to read from the wrong channel
  //delay(1);

#if defined(ADCSRA) && defined(ADCL)
  // start the conversion
  ADCSRA |= _BV(ADSC);
    380e:	80 91 7a 00 	lds	r24, 0x007A	; 0x80007a <__TEXT_REGION_LENGTH__+0x70007a>
    3812:	80 64       	ori	r24, 0x40	; 64
    3814:	80 93 7a 00 	sts	0x007A, r24	; 0x80007a <__TEXT_REGION_LENGTH__+0x70007a>
C:\Users\DH\AppData\Local\Arduino15\packages\MegaCore\hardware\avr\2.2.0\cores\MCUdude_corefiles/wiring_analog.c:80 (discriminator 1)

  // ADSC is cleared when the conversion finishes
  while (ADCSRA & _BV(ADSC));
    3818:	80 91 7a 00 	lds	r24, 0x007A	; 0x80007a <__TEXT_REGION_LENGTH__+0x70007a>
    381c:	86 fd       	sbrc	r24, 6
    381e:	fc cf       	rjmp	.-8      	; 0x3818 <analogRead+0x3a>
C:\Users\DH\AppData\Local\Arduino15\packages\MegaCore\hardware\avr\2.2.0\cores\MCUdude_corefiles/wiring_analog.c:86

  // we have to read ADCL first; doing so locks both ADCL
  // and ADCH until ADCH is read.  reading ADCL second would
  // cause the results of each conversion to be discarded,
  // as ADCL and ADCH would be locked when it completed.
  low  = ADCL;
    3820:	80 91 78 00 	lds	r24, 0x0078	; 0x800078 <__TEXT_REGION_LENGTH__+0x700078>
C:\Users\DH\AppData\Local\Arduino15\packages\MegaCore\hardware\avr\2.2.0\cores\MCUdude_corefiles/wiring_analog.c:87
  high = ADCH;
    3824:	90 91 79 00 	lds	r25, 0x0079	; 0x800079 <__TEXT_REGION_LENGTH__+0x700079>
C:\Users\DH\AppData\Local\Arduino15\packages\MegaCore\hardware\avr\2.2.0\cores\MCUdude_corefiles/wiring_analog.c:96
  high = 0;
#endif

  // combine the two bytes
  return (high << 8) | low;
}
    3828:	08 95       	ret

0000382a <turnOffPWM>:
turnOffPWM():
C:\Users\DH\AppData\Local\Arduino15\packages\MegaCore\hardware\avr\2.2.0\cores\MCUdude_corefiles/wiring_digital.c:77
//
//static inline void turnOffPWM(uint8_t timer) __attribute__ ((always_inline));
//static inline void turnOffPWM(uint8_t timer)
static void turnOffPWM(uint8_t timer)
{
  switch (timer)
    382a:	82 50       	subi	r24, 0x02	; 2
    382c:	82 31       	cpi	r24, 0x12	; 18
    382e:	08 f0       	brcs	.+2      	; 0x3832 <turnOffPWM+0x8>
    3830:	5f c0       	rjmp	.+190    	; 0x38f0 <turnOffPWM+0xc6>
    3832:	e8 2f       	mov	r30, r24
    3834:	f0 e0       	ldi	r31, 0x00	; 0
    3836:	88 27       	eor	r24, r24
    3838:	ef 5d       	subi	r30, 0xDF	; 223
    383a:	f3 4e       	sbci	r31, 0xE3	; 227
    383c:	8f 4f       	sbci	r24, 0xFF	; 255
    383e:	0c 94 51 1d 	jmp	0x3aa2	; 0x3aa2 <__tablejump2__>
    3842:	75 1c       	adc	r7, r5
    3844:	79 1c       	adc	r7, r9
    3846:	33 1c       	adc	r3, r3
    3848:	39 1c       	adc	r3, r9
    384a:	3d 1c       	adc	r3, r13
    384c:	78 1c       	adc	r7, r8
    384e:	41 1c       	adc	r4, r1
    3850:	47 1c       	adc	r4, r7
    3852:	4b 1c       	adc	r4, r11
    3854:	51 1c       	adc	r5, r1
    3856:	55 1c       	adc	r5, r5
    3858:	59 1c       	adc	r5, r9
    385a:	5f 1c       	adc	r5, r15
    385c:	63 1c       	adc	r6, r3
    385e:	78 1c       	adc	r7, r8
    3860:	67 1c       	adc	r6, r7
    3862:	6d 1c       	adc	r6, r13
    3864:	71 1c       	adc	r7, r1
C:\Users\DH\AppData\Local\Arduino15\packages\MegaCore\hardware\avr\2.2.0\cores\MCUdude_corefiles/wiring_digital.c:82
  {
    // Timer1
    #if defined(TCCR1A) && defined(COM1A1)
      case TIMER1A:
        TCCR1A &= ~_BV(COM1A1);
    3866:	80 91 80 00 	lds	r24, 0x0080	; 0x800080 <__TEXT_REGION_LENGTH__+0x700080>
    386a:	8f 77       	andi	r24, 0x7F	; 127
C:\Users\DH\AppData\Local\Arduino15\packages\MegaCore\hardware\avr\2.2.0\cores\MCUdude_corefiles/wiring_digital.c:87
        break;
    #endif
    #if defined(TCCR1A) && defined(COM1B1)
      case TIMER1B:
        TCCR1A &= ~_BV(COM1B1);
    386c:	80 93 80 00 	sts	0x0080, r24	; 0x800080 <__TEXT_REGION_LENGTH__+0x700080>
C:\Users\DH\AppData\Local\Arduino15\packages\MegaCore\hardware\avr\2.2.0\cores\MCUdude_corefiles/wiring_digital.c:88
        break;
    3870:	08 95       	ret
C:\Users\DH\AppData\Local\Arduino15\packages\MegaCore\hardware\avr\2.2.0\cores\MCUdude_corefiles/wiring_digital.c:87
        TCCR1A &= ~_BV(COM1A1);
        break;
    #endif
    #if defined(TCCR1A) && defined(COM1B1)
      case TIMER1B:
        TCCR1A &= ~_BV(COM1B1);
    3872:	80 91 80 00 	lds	r24, 0x0080	; 0x800080 <__TEXT_REGION_LENGTH__+0x700080>
    3876:	8f 7d       	andi	r24, 0xDF	; 223
    3878:	f9 cf       	rjmp	.-14     	; 0x386c <turnOffPWM+0x42>
C:\Users\DH\AppData\Local\Arduino15\packages\MegaCore\hardware\avr\2.2.0\cores\MCUdude_corefiles/wiring_digital.c:92
        break;
    #endif
    #if defined(TCCR1A) && defined(COM1C1)
      case TIMER1C:
        TCCR1A &= ~_BV(COM1C1);
    387a:	80 91 80 00 	lds	r24, 0x0080	; 0x800080 <__TEXT_REGION_LENGTH__+0x700080>
    387e:	87 7f       	andi	r24, 0xF7	; 247
    3880:	f5 cf       	rjmp	.-22     	; 0x386c <turnOffPWM+0x42>
C:\Users\DH\AppData\Local\Arduino15\packages\MegaCore\hardware\avr\2.2.0\cores\MCUdude_corefiles/wiring_digital.c:104
        TCCR2 &= ~_BV(COM21);
        break;
    #endif
    #if defined(TCCR2A) && defined(COM2A1)
      case TIMER2A:
        TCCR2A &= ~_BV(COM2A1);
    3882:	80 91 b0 00 	lds	r24, 0x00B0	; 0x8000b0 <__TEXT_REGION_LENGTH__+0x7000b0>
    3886:	8f 77       	andi	r24, 0x7F	; 127
C:\Users\DH\AppData\Local\Arduino15\packages\MegaCore\hardware\avr\2.2.0\cores\MCUdude_corefiles/wiring_digital.c:109
        break;
    #endif
    #if defined(TCCR2A) && defined(COM2B1)
      case TIMER2B:
        TCCR2A &= ~_BV(COM2B1);
    3888:	80 93 b0 00 	sts	0x00B0, r24	; 0x8000b0 <__TEXT_REGION_LENGTH__+0x7000b0>
C:\Users\DH\AppData\Local\Arduino15\packages\MegaCore\hardware\avr\2.2.0\cores\MCUdude_corefiles/wiring_digital.c:110
        break;
    388c:	08 95       	ret
C:\Users\DH\AppData\Local\Arduino15\packages\MegaCore\hardware\avr\2.2.0\cores\MCUdude_corefiles/wiring_digital.c:109
        TCCR2A &= ~_BV(COM2A1);
        break;
    #endif
    #if defined(TCCR2A) && defined(COM2B1)
      case TIMER2B:
        TCCR2A &= ~_BV(COM2B1);
    388e:	80 91 b0 00 	lds	r24, 0x00B0	; 0x8000b0 <__TEXT_REGION_LENGTH__+0x7000b0>
    3892:	8f 7d       	andi	r24, 0xDF	; 223
    3894:	f9 cf       	rjmp	.-14     	; 0x3888 <turnOffPWM+0x5e>
C:\Users\DH\AppData\Local\Arduino15\packages\MegaCore\hardware\avr\2.2.0\cores\MCUdude_corefiles/wiring_digital.c:116
    #endif

    // Timer3
    #if defined(TCCR3A) && defined(COM3A1)
      case TIMER3A:
        TCCR3A &= ~_BV(COM3A1);
    3896:	80 91 90 00 	lds	r24, 0x0090	; 0x800090 <__TEXT_REGION_LENGTH__+0x700090>
    389a:	8f 77       	andi	r24, 0x7F	; 127
C:\Users\DH\AppData\Local\Arduino15\packages\MegaCore\hardware\avr\2.2.0\cores\MCUdude_corefiles/wiring_digital.c:126
        TCCR3A &= ~_BV(COM3B1);
        break;
    #endif
    #if defined(TCCR3A) && defined(COM3C1)
      case TIMER3C:
        TCCR3A &= ~_BV(COM3C1);
    389c:	80 93 90 00 	sts	0x0090, r24	; 0x800090 <__TEXT_REGION_LENGTH__+0x700090>
C:\Users\DH\AppData\Local\Arduino15\packages\MegaCore\hardware\avr\2.2.0\cores\MCUdude_corefiles/wiring_digital.c:127
        break;
    38a0:	08 95       	ret
C:\Users\DH\AppData\Local\Arduino15\packages\MegaCore\hardware\avr\2.2.0\cores\MCUdude_corefiles/wiring_digital.c:121
        TCCR3A &= ~_BV(COM3A1);
        break;
    #endif
    #if defined(TCCR3A) && defined(COM3B1)
      case TIMER3B:
        TCCR3A &= ~_BV(COM3B1);
    38a2:	80 91 90 00 	lds	r24, 0x0090	; 0x800090 <__TEXT_REGION_LENGTH__+0x700090>
    38a6:	8f 7d       	andi	r24, 0xDF	; 223
    38a8:	f9 cf       	rjmp	.-14     	; 0x389c <turnOffPWM+0x72>
C:\Users\DH\AppData\Local\Arduino15\packages\MegaCore\hardware\avr\2.2.0\cores\MCUdude_corefiles/wiring_digital.c:126
        break;
    #endif
    #if defined(TCCR3A) && defined(COM3C1)
      case TIMER3C:
        TCCR3A &= ~_BV(COM3C1);
    38aa:	80 91 90 00 	lds	r24, 0x0090	; 0x800090 <__TEXT_REGION_LENGTH__+0x700090>
    38ae:	87 7f       	andi	r24, 0xF7	; 247
    38b0:	f5 cf       	rjmp	.-22     	; 0x389c <turnOffPWM+0x72>
C:\Users\DH\AppData\Local\Arduino15\packages\MegaCore\hardware\avr\2.2.0\cores\MCUdude_corefiles/wiring_digital.c:133
    #endif

    // Timer4
    #if defined(TCCR4A) && defined(COM4A1)
      case TIMER4A:
        TCCR4A &= ~_BV(COM4A1);
    38b2:	80 91 a0 00 	lds	r24, 0x00A0	; 0x8000a0 <__TEXT_REGION_LENGTH__+0x7000a0>
    38b6:	8f 77       	andi	r24, 0x7F	; 127
C:\Users\DH\AppData\Local\Arduino15\packages\MegaCore\hardware\avr\2.2.0\cores\MCUdude_corefiles/wiring_digital.c:143
        TCCR4A &= ~_BV(COM4B1);
        break;
    #endif
    #if defined(TCCR4A) && defined(COM4C1)
      case TIMER4C:
        TCCR4A &= ~_BV(COM4C1);
    38b8:	80 93 a0 00 	sts	0x00A0, r24	; 0x8000a0 <__TEXT_REGION_LENGTH__+0x7000a0>
C:\Users\DH\AppData\Local\Arduino15\packages\MegaCore\hardware\avr\2.2.0\cores\MCUdude_corefiles/wiring_digital.c:144
        break;
    38bc:	08 95       	ret
C:\Users\DH\AppData\Local\Arduino15\packages\MegaCore\hardware\avr\2.2.0\cores\MCUdude_corefiles/wiring_digital.c:138
        TCCR4A &= ~_BV(COM4A1);
        break;
    #endif
    #if defined(TCCR4A) && defined(COM4B1)
      case  TIMER4B:
        TCCR4A &= ~_BV(COM4B1);
    38be:	80 91 a0 00 	lds	r24, 0x00A0	; 0x8000a0 <__TEXT_REGION_LENGTH__+0x7000a0>
    38c2:	8f 7d       	andi	r24, 0xDF	; 223
    38c4:	f9 cf       	rjmp	.-14     	; 0x38b8 <turnOffPWM+0x8e>
C:\Users\DH\AppData\Local\Arduino15\packages\MegaCore\hardware\avr\2.2.0\cores\MCUdude_corefiles/wiring_digital.c:143
        break;
    #endif
    #if defined(TCCR4A) && defined(COM4C1)
      case TIMER4C:
        TCCR4A &= ~_BV(COM4C1);
    38c6:	80 91 a0 00 	lds	r24, 0x00A0	; 0x8000a0 <__TEXT_REGION_LENGTH__+0x7000a0>
    38ca:	87 7f       	andi	r24, 0xF7	; 247
    38cc:	f5 cf       	rjmp	.-22     	; 0x38b8 <turnOffPWM+0x8e>
C:\Users\DH\AppData\Local\Arduino15\packages\MegaCore\hardware\avr\2.2.0\cores\MCUdude_corefiles/wiring_digital.c:155
    #endif

    // Timer5
    #if defined(TCCR5A)
      case TIMER5A:
        TCCR5A &= ~_BV(COM5A1);
    38ce:	80 91 20 01 	lds	r24, 0x0120	; 0x800120 <__TEXT_REGION_LENGTH__+0x700120>
    38d2:	8f 77       	andi	r24, 0x7F	; 127
C:\Users\DH\AppData\Local\Arduino15\packages\MegaCore\hardware\avr\2.2.0\cores\MCUdude_corefiles/wiring_digital.c:161
        break;
      case TIMER5B:
        TCCR5A &= ~_BV(COM5B1);
        break;
      case TIMER5C:
        TCCR5A &= ~_BV(COM5C1);
    38d4:	80 93 20 01 	sts	0x0120, r24	; 0x800120 <__TEXT_REGION_LENGTH__+0x700120>
C:\Users\DH\AppData\Local\Arduino15\packages\MegaCore\hardware\avr\2.2.0\cores\MCUdude_corefiles/wiring_digital.c:162
        break;
    38d8:	08 95       	ret
C:\Users\DH\AppData\Local\Arduino15\packages\MegaCore\hardware\avr\2.2.0\cores\MCUdude_corefiles/wiring_digital.c:158
    #if defined(TCCR5A)
      case TIMER5A:
        TCCR5A &= ~_BV(COM5A1);
        break;
      case TIMER5B:
        TCCR5A &= ~_BV(COM5B1);
    38da:	80 91 20 01 	lds	r24, 0x0120	; 0x800120 <__TEXT_REGION_LENGTH__+0x700120>
    38de:	8f 7d       	andi	r24, 0xDF	; 223
    38e0:	f9 cf       	rjmp	.-14     	; 0x38d4 <turnOffPWM+0xaa>
C:\Users\DH\AppData\Local\Arduino15\packages\MegaCore\hardware\avr\2.2.0\cores\MCUdude_corefiles/wiring_digital.c:161
        break;
      case TIMER5C:
        TCCR5A &= ~_BV(COM5C1);
    38e2:	80 91 20 01 	lds	r24, 0x0120	; 0x800120 <__TEXT_REGION_LENGTH__+0x700120>
    38e6:	87 7f       	andi	r24, 0xF7	; 247
    38e8:	f5 cf       	rjmp	.-22     	; 0x38d4 <turnOffPWM+0xaa>
C:\Users\DH\AppData\Local\Arduino15\packages\MegaCore\hardware\avr\2.2.0\cores\MCUdude_corefiles/wiring_digital.c:176
        TCCR0 &= ~_BV(COM01);
        break;
    #endif
    #if defined(TCCR0A) && defined(COM0A1)
      case TIMER0A:
        TCCR0A &= ~_BV(COM0A1);
    38ea:	84 b5       	in	r24, 0x24	; 36
    38ec:	8f 77       	andi	r24, 0x7F	; 127
C:\Users\DH\AppData\Local\Arduino15\packages\MegaCore\hardware\avr\2.2.0\cores\MCUdude_corefiles/wiring_digital.c:181
        break;
    #endif
    #if defined(TCCR0A) && defined(COM0B1)
      case TIMER0B:
        TCCR0A &= ~_BV(COM0B1);
    38ee:	84 bd       	out	0x24, r24	; 36
C:\Users\DH\AppData\Local\Arduino15\packages\MegaCore\hardware\avr\2.2.0\cores\MCUdude_corefiles/wiring_digital.c:185
        break;
    #endif
  }
}
    38f0:	08 95       	ret
C:\Users\DH\AppData\Local\Arduino15\packages\MegaCore\hardware\avr\2.2.0\cores\MCUdude_corefiles/wiring_digital.c:181
        TCCR0A &= ~_BV(COM0A1);
        break;
    #endif
    #if defined(TCCR0A) && defined(COM0B1)
      case TIMER0B:
        TCCR0A &= ~_BV(COM0B1);
    38f2:	84 b5       	in	r24, 0x24	; 36
    38f4:	8f 7d       	andi	r24, 0xDF	; 223
    38f6:	fb cf       	rjmp	.-10     	; 0x38ee <turnOffPWM+0xc4>

000038f8 <pinMode>:
pinMode():
C:\Users\DH\AppData\Local\Arduino15\packages\MegaCore\hardware\avr\2.2.0\cores\MCUdude_corefiles/wiring_digital.c:30
#define ARDUINO_MAIN
#include "wiring_private.h"
#include "pins_arduino.h"

void pinMode(uint8_t pin, uint8_t mode)
{
    38f8:	cf 93       	push	r28
    38fa:	df 93       	push	r29
C:\Users\DH\AppData\Local\Arduino15\packages\MegaCore\hardware\avr\2.2.0\cores\MCUdude_corefiles/wiring_digital.c:31
  uint8_t bit = digitalPinToBitMask(pin);
    38fc:	90 e0       	ldi	r25, 0x00	; 0
    38fe:	fc 01       	movw	r30, r24
    3900:	e1 5b       	subi	r30, 0xB1	; 177
    3902:	fd 4f       	sbci	r31, 0xFD	; 253
    3904:	24 91       	lpm	r18, Z
C:\Users\DH\AppData\Local\Arduino15\packages\MegaCore\hardware\avr\2.2.0\cores\MCUdude_corefiles/wiring_digital.c:32
  uint8_t port = digitalPinToPort(pin);
    3906:	8b 55       	subi	r24, 0x5B	; 91
    3908:	9d 4f       	sbci	r25, 0xFD	; 253
    390a:	fc 01       	movw	r30, r24
    390c:	84 91       	lpm	r24, Z
C:\Users\DH\AppData\Local\Arduino15\packages\MegaCore\hardware\avr\2.2.0\cores\MCUdude_corefiles/wiring_digital.c:35
  volatile uint8_t *reg, *out;

  if (port == NOT_A_PIN) return;
    390e:	88 23       	and	r24, r24
    3910:	c9 f0       	breq	.+50     	; 0x3944 <pinMode+0x4c>
C:\Users\DH\AppData\Local\Arduino15\packages\MegaCore\hardware\avr\2.2.0\cores\MCUdude_corefiles/wiring_digital.c:38

  // JWS: can I let the optimizer do this?
  reg = portModeRegister(port);
    3912:	90 e0       	ldi	r25, 0x00	; 0
    3914:	88 0f       	add	r24, r24
    3916:	99 1f       	adc	r25, r25
    3918:	fc 01       	movw	r30, r24
    391a:	e1 5d       	subi	r30, 0xD1	; 209
    391c:	fc 4f       	sbci	r31, 0xFC	; 252
    391e:	a5 91       	lpm	r26, Z+
    3920:	b4 91       	lpm	r27, Z
C:\Users\DH\AppData\Local\Arduino15\packages\MegaCore\hardware\avr\2.2.0\cores\MCUdude_corefiles/wiring_digital.c:39
  out = portOutputRegister(port);
    3922:	fc 01       	movw	r30, r24
    3924:	eb 5e       	subi	r30, 0xEB	; 235
    3926:	fc 4f       	sbci	r31, 0xFC	; 252
    3928:	c5 91       	lpm	r28, Z+
    392a:	d4 91       	lpm	r29, Z
C:\Users\DH\AppData\Local\Arduino15\packages\MegaCore\hardware\avr\2.2.0\cores\MCUdude_corefiles/wiring_digital.c:41

  if (mode == INPUT) { 
    392c:	61 11       	cpse	r22, r1
    392e:	0d c0       	rjmp	.+26     	; 0x394a <pinMode+0x52>
C:\Users\DH\AppData\Local\Arduino15\packages\MegaCore\hardware\avr\2.2.0\cores\MCUdude_corefiles/wiring_digital.c:42
    uint8_t oldSREG = SREG;
    3930:	9f b7       	in	r25, 0x3f	; 63
C:\Users\DH\AppData\Local\Arduino15\packages\MegaCore\hardware\avr\2.2.0\cores\MCUdude_corefiles/wiring_digital.c:43
    cli();
    3932:	f8 94       	cli
C:\Users\DH\AppData\Local\Arduino15\packages\MegaCore\hardware\avr\2.2.0\cores\MCUdude_corefiles/wiring_digital.c:44
    *reg &= ~bit;
    3934:	8c 91       	ld	r24, X
    3936:	20 95       	com	r18
    3938:	82 23       	and	r24, r18
    393a:	8c 93       	st	X, r24
C:\Users\DH\AppData\Local\Arduino15\packages\MegaCore\hardware\avr\2.2.0\cores\MCUdude_corefiles/wiring_digital.c:45
    *out &= ~bit;
    393c:	88 81       	ld	r24, Y
    393e:	28 23       	and	r18, r24
C:\Users\DH\AppData\Local\Arduino15\packages\MegaCore\hardware\avr\2.2.0\cores\MCUdude_corefiles/wiring_digital.c:51
    SREG = oldSREG;
  } else if (mode == INPUT_PULLUP) {
    uint8_t oldSREG = SREG;
    cli();
    *reg &= ~bit;
    *out |= bit;
    3940:	28 83       	st	Y, r18
C:\Users\DH\AppData\Local\Arduino15\packages\MegaCore\hardware\avr\2.2.0\cores\MCUdude_corefiles/wiring_digital.c:52
    SREG = oldSREG;
    3942:	9f bf       	out	0x3f, r25	; 63
C:\Users\DH\AppData\Local\Arduino15\packages\MegaCore\hardware\avr\2.2.0\cores\MCUdude_corefiles/wiring_digital.c:59
    uint8_t oldSREG = SREG;
    cli();
    *reg |= bit;
    SREG = oldSREG;
  }
}
    3944:	df 91       	pop	r29
    3946:	cf 91       	pop	r28
    3948:	08 95       	ret
C:\Users\DH\AppData\Local\Arduino15\packages\MegaCore\hardware\avr\2.2.0\cores\MCUdude_corefiles/wiring_digital.c:47
    uint8_t oldSREG = SREG;
    cli();
    *reg &= ~bit;
    *out &= ~bit;
    SREG = oldSREG;
  } else if (mode == INPUT_PULLUP) {
    394a:	62 30       	cpi	r22, 0x02	; 2
    394c:	51 f4       	brne	.+20     	; 0x3962 <pinMode+0x6a>
C:\Users\DH\AppData\Local\Arduino15\packages\MegaCore\hardware\avr\2.2.0\cores\MCUdude_corefiles/wiring_digital.c:48
    uint8_t oldSREG = SREG;
    394e:	9f b7       	in	r25, 0x3f	; 63
C:\Users\DH\AppData\Local\Arduino15\packages\MegaCore\hardware\avr\2.2.0\cores\MCUdude_corefiles/wiring_digital.c:49
    cli();
    3950:	f8 94       	cli
C:\Users\DH\AppData\Local\Arduino15\packages\MegaCore\hardware\avr\2.2.0\cores\MCUdude_corefiles/wiring_digital.c:50
    *reg &= ~bit;
    3952:	3c 91       	ld	r19, X
    3954:	82 2f       	mov	r24, r18
    3956:	80 95       	com	r24
    3958:	83 23       	and	r24, r19
    395a:	8c 93       	st	X, r24
C:\Users\DH\AppData\Local\Arduino15\packages\MegaCore\hardware\avr\2.2.0\cores\MCUdude_corefiles/wiring_digital.c:51
    *out |= bit;
    395c:	e8 81       	ld	r30, Y
    395e:	2e 2b       	or	r18, r30
    3960:	ef cf       	rjmp	.-34     	; 0x3940 <pinMode+0x48>
C:\Users\DH\AppData\Local\Arduino15\packages\MegaCore\hardware\avr\2.2.0\cores\MCUdude_corefiles/wiring_digital.c:54
    SREG = oldSREG;
  } else {
    uint8_t oldSREG = SREG;
    3962:	8f b7       	in	r24, 0x3f	; 63
C:\Users\DH\AppData\Local\Arduino15\packages\MegaCore\hardware\avr\2.2.0\cores\MCUdude_corefiles/wiring_digital.c:55
    cli();
    3964:	f8 94       	cli
C:\Users\DH\AppData\Local\Arduino15\packages\MegaCore\hardware\avr\2.2.0\cores\MCUdude_corefiles/wiring_digital.c:56
    *reg |= bit;
    3966:	ec 91       	ld	r30, X
    3968:	2e 2b       	or	r18, r30
    396a:	2c 93       	st	X, r18
C:\Users\DH\AppData\Local\Arduino15\packages\MegaCore\hardware\avr\2.2.0\cores\MCUdude_corefiles/wiring_digital.c:57
    SREG = oldSREG;
    396c:	8f bf       	out	0x3f, r24	; 63
    396e:	ea cf       	rjmp	.-44     	; 0x3944 <pinMode+0x4c>

00003970 <digitalWrite>:
digitalWrite():
C:\Users\DH\AppData\Local\Arduino15\packages\MegaCore\hardware\avr\2.2.0\cores\MCUdude_corefiles/wiring_digital.c:188
    #endif
  }
}

void digitalWrite(uint8_t pin, uint8_t val)
{
    3970:	1f 93       	push	r17
    3972:	cf 93       	push	r28
    3974:	df 93       	push	r29
C:\Users\DH\AppData\Local\Arduino15\packages\MegaCore\hardware\avr\2.2.0\cores\MCUdude_corefiles/wiring_digital.c:189
  uint8_t timer = digitalPinToTimer(pin);
    3976:	28 2f       	mov	r18, r24
    3978:	30 e0       	ldi	r19, 0x00	; 0
    397a:	f9 01       	movw	r30, r18
    397c:	e7 50       	subi	r30, 0x07	; 7
    397e:	fe 4f       	sbci	r31, 0xFE	; 254
    3980:	84 91       	lpm	r24, Z
C:\Users\DH\AppData\Local\Arduino15\packages\MegaCore\hardware\avr\2.2.0\cores\MCUdude_corefiles/wiring_digital.c:190
  uint8_t bit = digitalPinToBitMask(pin);
    3982:	f9 01       	movw	r30, r18
    3984:	e1 5b       	subi	r30, 0xB1	; 177
    3986:	fd 4f       	sbci	r31, 0xFD	; 253
    3988:	d4 91       	lpm	r29, Z
C:\Users\DH\AppData\Local\Arduino15\packages\MegaCore\hardware\avr\2.2.0\cores\MCUdude_corefiles/wiring_digital.c:191
  uint8_t port = digitalPinToPort(pin);
    398a:	f9 01       	movw	r30, r18
    398c:	eb 55       	subi	r30, 0x5B	; 91
    398e:	fd 4f       	sbci	r31, 0xFD	; 253
    3990:	c4 91       	lpm	r28, Z
C:\Users\DH\AppData\Local\Arduino15\packages\MegaCore\hardware\avr\2.2.0\cores\MCUdude_corefiles/wiring_digital.c:194
  volatile uint8_t *out;

  if (port == NOT_A_PIN) return;
    3992:	cc 23       	and	r28, r28
    3994:	a9 f0       	breq	.+42     	; 0x39c0 <digitalWrite+0x50>
    3996:	16 2f       	mov	r17, r22
C:\Users\DH\AppData\Local\Arduino15\packages\MegaCore\hardware\avr\2.2.0\cores\MCUdude_corefiles/wiring_digital.c:198

  // If the pin that support PWM output, we need to turn it off
  // before doing a digital write.
  if (timer != NOT_ON_TIMER) turnOffPWM(timer);
    3998:	81 11       	cpse	r24, r1
C:\Users\DH\AppData\Local\Arduino15\packages\MegaCore\hardware\avr\2.2.0\cores\MCUdude_corefiles/wiring_digital.c:198 (discriminator 1)
    399a:	0e 94 15 1c 	call	0x382a	; 0x382a <turnOffPWM>
C:\Users\DH\AppData\Local\Arduino15\packages\MegaCore\hardware\avr\2.2.0\cores\MCUdude_corefiles/wiring_digital.c:200

  out = portOutputRegister(port);
    399e:	ec 2f       	mov	r30, r28
    39a0:	f0 e0       	ldi	r31, 0x00	; 0
    39a2:	ee 0f       	add	r30, r30
    39a4:	ff 1f       	adc	r31, r31
    39a6:	eb 5e       	subi	r30, 0xEB	; 235
    39a8:	fc 4f       	sbci	r31, 0xFC	; 252
    39aa:	a5 91       	lpm	r26, Z+
    39ac:	b4 91       	lpm	r27, Z
C:\Users\DH\AppData\Local\Arduino15\packages\MegaCore\hardware\avr\2.2.0\cores\MCUdude_corefiles/wiring_digital.c:202

  uint8_t oldSREG = SREG;
    39ae:	8f b7       	in	r24, 0x3f	; 63
C:\Users\DH\AppData\Local\Arduino15\packages\MegaCore\hardware\avr\2.2.0\cores\MCUdude_corefiles/wiring_digital.c:203
  cli();
    39b0:	f8 94       	cli
C:\Users\DH\AppData\Local\Arduino15\packages\MegaCore\hardware\avr\2.2.0\cores\MCUdude_corefiles/wiring_digital.c:206

  if (val == LOW) {
    *out &= ~bit;
    39b2:	ec 91       	ld	r30, X
C:\Users\DH\AppData\Local\Arduino15\packages\MegaCore\hardware\avr\2.2.0\cores\MCUdude_corefiles/wiring_digital.c:205
  out = portOutputRegister(port);

  uint8_t oldSREG = SREG;
  cli();

  if (val == LOW) {
    39b4:	11 11       	cpse	r17, r1
    39b6:	08 c0       	rjmp	.+16     	; 0x39c8 <digitalWrite+0x58>
C:\Users\DH\AppData\Local\Arduino15\packages\MegaCore\hardware\avr\2.2.0\cores\MCUdude_corefiles/wiring_digital.c:206
    *out &= ~bit;
    39b8:	d0 95       	com	r29
    39ba:	de 23       	and	r29, r30
C:\Users\DH\AppData\Local\Arduino15\packages\MegaCore\hardware\avr\2.2.0\cores\MCUdude_corefiles/wiring_digital.c:208
  } else {
    *out |= bit;
    39bc:	dc 93       	st	X, r29
C:\Users\DH\AppData\Local\Arduino15\packages\MegaCore\hardware\avr\2.2.0\cores\MCUdude_corefiles/wiring_digital.c:211
  }

  SREG = oldSREG;
    39be:	8f bf       	out	0x3f, r24	; 63
C:\Users\DH\AppData\Local\Arduino15\packages\MegaCore\hardware\avr\2.2.0\cores\MCUdude_corefiles/wiring_digital.c:212
}
    39c0:	df 91       	pop	r29
    39c2:	cf 91       	pop	r28
    39c4:	1f 91       	pop	r17
    39c6:	08 95       	ret
C:\Users\DH\AppData\Local\Arduino15\packages\MegaCore\hardware\avr\2.2.0\cores\MCUdude_corefiles/wiring_digital.c:208
  cli();

  if (val == LOW) {
    *out &= ~bit;
  } else {
    *out |= bit;
    39c8:	de 2b       	or	r29, r30
    39ca:	f8 cf       	rjmp	.-16     	; 0x39bc <digitalWrite+0x4c>

000039cc <digitalRead>:
digitalRead():
C:\Users\DH\AppData\Local\Arduino15\packages\MegaCore\hardware\avr\2.2.0\cores\MCUdude_corefiles/wiring_digital.c:215

  SREG = oldSREG;
}

int digitalRead(uint8_t pin)
{
    39cc:	cf 93       	push	r28
    39ce:	df 93       	push	r29
C:\Users\DH\AppData\Local\Arduino15\packages\MegaCore\hardware\avr\2.2.0\cores\MCUdude_corefiles/wiring_digital.c:216
  uint8_t timer = digitalPinToTimer(pin);
    39d0:	28 2f       	mov	r18, r24
    39d2:	30 e0       	ldi	r19, 0x00	; 0
    39d4:	f9 01       	movw	r30, r18
    39d6:	e7 50       	subi	r30, 0x07	; 7
    39d8:	fe 4f       	sbci	r31, 0xFE	; 254
    39da:	84 91       	lpm	r24, Z
C:\Users\DH\AppData\Local\Arduino15\packages\MegaCore\hardware\avr\2.2.0\cores\MCUdude_corefiles/wiring_digital.c:217
  uint8_t bit = digitalPinToBitMask(pin);
    39dc:	f9 01       	movw	r30, r18
    39de:	e1 5b       	subi	r30, 0xB1	; 177
    39e0:	fd 4f       	sbci	r31, 0xFD	; 253
    39e2:	d4 91       	lpm	r29, Z
C:\Users\DH\AppData\Local\Arduino15\packages\MegaCore\hardware\avr\2.2.0\cores\MCUdude_corefiles/wiring_digital.c:218
  uint8_t port = digitalPinToPort(pin);
    39e4:	f9 01       	movw	r30, r18
    39e6:	eb 55       	subi	r30, 0x5B	; 91
    39e8:	fd 4f       	sbci	r31, 0xFD	; 253
    39ea:	c4 91       	lpm	r28, Z
C:\Users\DH\AppData\Local\Arduino15\packages\MegaCore\hardware\avr\2.2.0\cores\MCUdude_corefiles/wiring_digital.c:220

  if (port == NOT_A_PIN) return LOW;
    39ec:	cc 23       	and	r28, r28
    39ee:	a1 f0       	breq	.+40     	; 0x3a18 <digitalRead+0x4c>
C:\Users\DH\AppData\Local\Arduino15\packages\MegaCore\hardware\avr\2.2.0\cores\MCUdude_corefiles/wiring_digital.c:224

  // If the pin that support PWM output, we need to turn it off
  // before getting a digital reading.
  if (timer != NOT_ON_TIMER) turnOffPWM(timer);
    39f0:	81 11       	cpse	r24, r1
C:\Users\DH\AppData\Local\Arduino15\packages\MegaCore\hardware\avr\2.2.0\cores\MCUdude_corefiles/wiring_digital.c:224 (discriminator 1)
    39f2:	0e 94 15 1c 	call	0x382a	; 0x382a <turnOffPWM>
C:\Users\DH\AppData\Local\Arduino15\packages\MegaCore\hardware\avr\2.2.0\cores\MCUdude_corefiles/wiring_digital.c:226

  if (*portInputRegister(port) & bit) return HIGH;
    39f6:	ec 2f       	mov	r30, r28
    39f8:	f0 e0       	ldi	r31, 0x00	; 0
    39fa:	ee 0f       	add	r30, r30
    39fc:	ff 1f       	adc	r31, r31
    39fe:	e5 50       	subi	r30, 0x05	; 5
    3a00:	fd 4f       	sbci	r31, 0xFD	; 253
    3a02:	a5 91       	lpm	r26, Z+
    3a04:	b4 91       	lpm	r27, Z
    3a06:	ec 91       	ld	r30, X
    3a08:	ed 23       	and	r30, r29
    3a0a:	81 e0       	ldi	r24, 0x01	; 1
    3a0c:	90 e0       	ldi	r25, 0x00	; 0
    3a0e:	09 f4       	brne	.+2      	; 0x3a12 <digitalRead+0x46>
    3a10:	80 e0       	ldi	r24, 0x00	; 0
C:\Users\DH\AppData\Local\Arduino15\packages\MegaCore\hardware\avr\2.2.0\cores\MCUdude_corefiles/wiring_digital.c:228
  return LOW;
}
    3a12:	df 91       	pop	r29
    3a14:	cf 91       	pop	r28
    3a16:	08 95       	ret
C:\Users\DH\AppData\Local\Arduino15\packages\MegaCore\hardware\avr\2.2.0\cores\MCUdude_corefiles/wiring_digital.c:220
{
  uint8_t timer = digitalPinToTimer(pin);
  uint8_t bit = digitalPinToBitMask(pin);
  uint8_t port = digitalPinToPort(pin);

  if (port == NOT_A_PIN) return LOW;
    3a18:	80 e0       	ldi	r24, 0x00	; 0
    3a1a:	90 e0       	ldi	r25, 0x00	; 0
    3a1c:	fa cf       	rjmp	.-12     	; 0x3a12 <digitalRead+0x46>

00003a1e <yield>:
__empty():
C:\Users\DH\AppData\Local\Arduino15\packages\MegaCore\hardware\avr\2.2.0\cores\MCUdude_corefiles/hooks.c:30
 * Its defined as a weak symbol and it can be redefined to implement a
 * real cooperative scheduler.
 */
static void __empty() {
  // Empty
}
    3a1e:	08 95       	ret

00003a20 <__udivmodsi4>:
__udivmodsi4():
/home/jenkins-mingw32/workspace/avr-gcc-staging/label/Ubuntu14.04x64-mingw32/gcc-build/avr/avr6/libgcc/../../../../gcc/libgcc/config/avr/lib1funcs.S:1638
    3a20:	a1 e2       	ldi	r26, 0x21	; 33
/home/jenkins-mingw32/workspace/avr-gcc-staging/label/Ubuntu14.04x64-mingw32/gcc-build/avr/avr6/libgcc/../../../../gcc/libgcc/config/avr/lib1funcs.S:1639
    3a22:	1a 2e       	mov	r1, r26
/home/jenkins-mingw32/workspace/avr-gcc-staging/label/Ubuntu14.04x64-mingw32/gcc-build/avr/avr6/libgcc/../../../../gcc/libgcc/config/avr/lib1funcs.S:1640
    3a24:	aa 1b       	sub	r26, r26
/home/jenkins-mingw32/workspace/avr-gcc-staging/label/Ubuntu14.04x64-mingw32/gcc-build/avr/avr6/libgcc/../../../../gcc/libgcc/config/avr/lib1funcs.S:1641
    3a26:	bb 1b       	sub	r27, r27
/home/jenkins-mingw32/workspace/avr-gcc-staging/label/Ubuntu14.04x64-mingw32/gcc-build/avr/avr6/libgcc/../../../../gcc/libgcc/config/avr/lib1funcs.S:1642
    3a28:	fd 01       	movw	r30, r26
/home/jenkins-mingw32/workspace/avr-gcc-staging/label/Ubuntu14.04x64-mingw32/gcc-build/avr/avr6/libgcc/../../../../gcc/libgcc/config/avr/lib1funcs.S:1644
    3a2a:	0d c0       	rjmp	.+26     	; 0x3a46 <__udivmodsi4_ep>

00003a2c <__udivmodsi4_loop>:
/home/jenkins-mingw32/workspace/avr-gcc-staging/label/Ubuntu14.04x64-mingw32/gcc-build/avr/avr6/libgcc/../../../../gcc/libgcc/config/avr/lib1funcs.S:1646
    3a2c:	aa 1f       	adc	r26, r26
/home/jenkins-mingw32/workspace/avr-gcc-staging/label/Ubuntu14.04x64-mingw32/gcc-build/avr/avr6/libgcc/../../../../gcc/libgcc/config/avr/lib1funcs.S:1647
    3a2e:	bb 1f       	adc	r27, r27
/home/jenkins-mingw32/workspace/avr-gcc-staging/label/Ubuntu14.04x64-mingw32/gcc-build/avr/avr6/libgcc/../../../../gcc/libgcc/config/avr/lib1funcs.S:1648
    3a30:	ee 1f       	adc	r30, r30
/home/jenkins-mingw32/workspace/avr-gcc-staging/label/Ubuntu14.04x64-mingw32/gcc-build/avr/avr6/libgcc/../../../../gcc/libgcc/config/avr/lib1funcs.S:1649
    3a32:	ff 1f       	adc	r31, r31
/home/jenkins-mingw32/workspace/avr-gcc-staging/label/Ubuntu14.04x64-mingw32/gcc-build/avr/avr6/libgcc/../../../../gcc/libgcc/config/avr/lib1funcs.S:1650
    3a34:	a2 17       	cp	r26, r18
/home/jenkins-mingw32/workspace/avr-gcc-staging/label/Ubuntu14.04x64-mingw32/gcc-build/avr/avr6/libgcc/../../../../gcc/libgcc/config/avr/lib1funcs.S:1651
    3a36:	b3 07       	cpc	r27, r19
/home/jenkins-mingw32/workspace/avr-gcc-staging/label/Ubuntu14.04x64-mingw32/gcc-build/avr/avr6/libgcc/../../../../gcc/libgcc/config/avr/lib1funcs.S:1652
    3a38:	e4 07       	cpc	r30, r20
/home/jenkins-mingw32/workspace/avr-gcc-staging/label/Ubuntu14.04x64-mingw32/gcc-build/avr/avr6/libgcc/../../../../gcc/libgcc/config/avr/lib1funcs.S:1653
    3a3a:	f5 07       	cpc	r31, r21
/home/jenkins-mingw32/workspace/avr-gcc-staging/label/Ubuntu14.04x64-mingw32/gcc-build/avr/avr6/libgcc/../../../../gcc/libgcc/config/avr/lib1funcs.S:1654
    3a3c:	20 f0       	brcs	.+8      	; 0x3a46 <__udivmodsi4_ep>
/home/jenkins-mingw32/workspace/avr-gcc-staging/label/Ubuntu14.04x64-mingw32/gcc-build/avr/avr6/libgcc/../../../../gcc/libgcc/config/avr/lib1funcs.S:1655
    3a3e:	a2 1b       	sub	r26, r18
/home/jenkins-mingw32/workspace/avr-gcc-staging/label/Ubuntu14.04x64-mingw32/gcc-build/avr/avr6/libgcc/../../../../gcc/libgcc/config/avr/lib1funcs.S:1656
    3a40:	b3 0b       	sbc	r27, r19
/home/jenkins-mingw32/workspace/avr-gcc-staging/label/Ubuntu14.04x64-mingw32/gcc-build/avr/avr6/libgcc/../../../../gcc/libgcc/config/avr/lib1funcs.S:1657
    3a42:	e4 0b       	sbc	r30, r20
/home/jenkins-mingw32/workspace/avr-gcc-staging/label/Ubuntu14.04x64-mingw32/gcc-build/avr/avr6/libgcc/../../../../gcc/libgcc/config/avr/lib1funcs.S:1658
    3a44:	f5 0b       	sbc	r31, r21

00003a46 <__udivmodsi4_ep>:
/home/jenkins-mingw32/workspace/avr-gcc-staging/label/Ubuntu14.04x64-mingw32/gcc-build/avr/avr6/libgcc/../../../../gcc/libgcc/config/avr/lib1funcs.S:1660
    3a46:	66 1f       	adc	r22, r22
/home/jenkins-mingw32/workspace/avr-gcc-staging/label/Ubuntu14.04x64-mingw32/gcc-build/avr/avr6/libgcc/../../../../gcc/libgcc/config/avr/lib1funcs.S:1661
    3a48:	77 1f       	adc	r23, r23
/home/jenkins-mingw32/workspace/avr-gcc-staging/label/Ubuntu14.04x64-mingw32/gcc-build/avr/avr6/libgcc/../../../../gcc/libgcc/config/avr/lib1funcs.S:1662
    3a4a:	88 1f       	adc	r24, r24
/home/jenkins-mingw32/workspace/avr-gcc-staging/label/Ubuntu14.04x64-mingw32/gcc-build/avr/avr6/libgcc/../../../../gcc/libgcc/config/avr/lib1funcs.S:1663
    3a4c:	99 1f       	adc	r25, r25
/home/jenkins-mingw32/workspace/avr-gcc-staging/label/Ubuntu14.04x64-mingw32/gcc-build/avr/avr6/libgcc/../../../../gcc/libgcc/config/avr/lib1funcs.S:1664
    3a4e:	1a 94       	dec	r1
/home/jenkins-mingw32/workspace/avr-gcc-staging/label/Ubuntu14.04x64-mingw32/gcc-build/avr/avr6/libgcc/../../../../gcc/libgcc/config/avr/lib1funcs.S:1665
    3a50:	69 f7       	brne	.-38     	; 0x3a2c <__udivmodsi4_loop>
/home/jenkins-mingw32/workspace/avr-gcc-staging/label/Ubuntu14.04x64-mingw32/gcc-build/avr/avr6/libgcc/../../../../gcc/libgcc/config/avr/lib1funcs.S:1667
    3a52:	60 95       	com	r22
/home/jenkins-mingw32/workspace/avr-gcc-staging/label/Ubuntu14.04x64-mingw32/gcc-build/avr/avr6/libgcc/../../../../gcc/libgcc/config/avr/lib1funcs.S:1668
    3a54:	70 95       	com	r23
/home/jenkins-mingw32/workspace/avr-gcc-staging/label/Ubuntu14.04x64-mingw32/gcc-build/avr/avr6/libgcc/../../../../gcc/libgcc/config/avr/lib1funcs.S:1669
    3a56:	80 95       	com	r24
/home/jenkins-mingw32/workspace/avr-gcc-staging/label/Ubuntu14.04x64-mingw32/gcc-build/avr/avr6/libgcc/../../../../gcc/libgcc/config/avr/lib1funcs.S:1670
    3a58:	90 95       	com	r25
/home/jenkins-mingw32/workspace/avr-gcc-staging/label/Ubuntu14.04x64-mingw32/gcc-build/avr/avr6/libgcc/../../../../gcc/libgcc/config/avr/lib1funcs.S:1672
    3a5a:	9b 01       	movw	r18, r22
/home/jenkins-mingw32/workspace/avr-gcc-staging/label/Ubuntu14.04x64-mingw32/gcc-build/avr/avr6/libgcc/../../../../gcc/libgcc/config/avr/lib1funcs.S:1674
    3a5c:	ac 01       	movw	r20, r24
/home/jenkins-mingw32/workspace/avr-gcc-staging/label/Ubuntu14.04x64-mingw32/gcc-build/avr/avr6/libgcc/../../../../gcc/libgcc/config/avr/lib1funcs.S:1676
    3a5e:	bd 01       	movw	r22, r26
/home/jenkins-mingw32/workspace/avr-gcc-staging/label/Ubuntu14.04x64-mingw32/gcc-build/avr/avr6/libgcc/../../../../gcc/libgcc/config/avr/lib1funcs.S:1678
    3a60:	cf 01       	movw	r24, r30
/home/jenkins-mingw32/workspace/avr-gcc-staging/label/Ubuntu14.04x64-mingw32/gcc-build/avr/avr6/libgcc/../../../../gcc/libgcc/config/avr/lib1funcs.S:1680
    3a62:	08 95       	ret

00003a64 <__divmodsi4>:
__divmodsi4():
/home/jenkins-mingw32/workspace/avr-gcc-staging/label/Ubuntu14.04x64-mingw32/gcc-build/avr/avr6/libgcc/../../../../gcc/libgcc/config/avr/lib1funcs.S:1686
    3a64:	05 2e       	mov	r0, r21
/home/jenkins-mingw32/workspace/avr-gcc-staging/label/Ubuntu14.04x64-mingw32/gcc-build/avr/avr6/libgcc/../../../../gcc/libgcc/config/avr/lib1funcs.S:1687
    3a66:	97 fb       	bst	r25, 7
/home/jenkins-mingw32/workspace/avr-gcc-staging/label/Ubuntu14.04x64-mingw32/gcc-build/avr/avr6/libgcc/../../../../gcc/libgcc/config/avr/lib1funcs.S:1688
    3a68:	1e f4       	brtc	.+6      	; 0x3a70 <__divmodsi4+0xc>
/home/jenkins-mingw32/workspace/avr-gcc-staging/label/Ubuntu14.04x64-mingw32/gcc-build/avr/avr6/libgcc/../../../../gcc/libgcc/config/avr/lib1funcs.S:1689
    3a6a:	00 94       	com	r0
/home/jenkins-mingw32/workspace/avr-gcc-staging/label/Ubuntu14.04x64-mingw32/gcc-build/avr/avr6/libgcc/../../../../gcc/libgcc/config/avr/lib1funcs.S:1690
    3a6c:	0e 94 49 1d 	call	0x3a92	; 0x3a92 <__negsi2>
/home/jenkins-mingw32/workspace/avr-gcc-staging/label/Ubuntu14.04x64-mingw32/gcc-build/avr/avr6/libgcc/../../../../gcc/libgcc/config/avr/lib1funcs.S:1692
    3a70:	57 fd       	sbrc	r21, 7
/home/jenkins-mingw32/workspace/avr-gcc-staging/label/Ubuntu14.04x64-mingw32/gcc-build/avr/avr6/libgcc/../../../../gcc/libgcc/config/avr/lib1funcs.S:1693
    3a72:	07 d0       	rcall	.+14     	; 0x3a82 <__divmodsi4_neg2>
/home/jenkins-mingw32/workspace/avr-gcc-staging/label/Ubuntu14.04x64-mingw32/gcc-build/avr/avr6/libgcc/../../../../gcc/libgcc/config/avr/lib1funcs.S:1694
    3a74:	0e 94 10 1d 	call	0x3a20	; 0x3a20 <__udivmodsi4>
/home/jenkins-mingw32/workspace/avr-gcc-staging/label/Ubuntu14.04x64-mingw32/gcc-build/avr/avr6/libgcc/../../../../gcc/libgcc/config/avr/lib1funcs.S:1695
    3a78:	07 fc       	sbrc	r0, 7
/home/jenkins-mingw32/workspace/avr-gcc-staging/label/Ubuntu14.04x64-mingw32/gcc-build/avr/avr6/libgcc/../../../../gcc/libgcc/config/avr/lib1funcs.S:1696
    3a7a:	03 d0       	rcall	.+6      	; 0x3a82 <__divmodsi4_neg2>
/home/jenkins-mingw32/workspace/avr-gcc-staging/label/Ubuntu14.04x64-mingw32/gcc-build/avr/avr6/libgcc/../../../../gcc/libgcc/config/avr/lib1funcs.S:1697
    3a7c:	4e f4       	brtc	.+18     	; 0x3a90 <__divmodsi4_exit>
/home/jenkins-mingw32/workspace/avr-gcc-staging/label/Ubuntu14.04x64-mingw32/gcc-build/avr/avr6/libgcc/../../../../gcc/libgcc/config/avr/lib1funcs.S:1698
    3a7e:	0c 94 49 1d 	jmp	0x3a92	; 0x3a92 <__negsi2>

00003a82 <__divmodsi4_neg2>:
/home/jenkins-mingw32/workspace/avr-gcc-staging/label/Ubuntu14.04x64-mingw32/gcc-build/avr/avr6/libgcc/../../../../gcc/libgcc/config/avr/lib1funcs.S:1701
    3a82:	50 95       	com	r21
/home/jenkins-mingw32/workspace/avr-gcc-staging/label/Ubuntu14.04x64-mingw32/gcc-build/avr/avr6/libgcc/../../../../gcc/libgcc/config/avr/lib1funcs.S:1702
    3a84:	40 95       	com	r20
/home/jenkins-mingw32/workspace/avr-gcc-staging/label/Ubuntu14.04x64-mingw32/gcc-build/avr/avr6/libgcc/../../../../gcc/libgcc/config/avr/lib1funcs.S:1703
    3a86:	30 95       	com	r19
/home/jenkins-mingw32/workspace/avr-gcc-staging/label/Ubuntu14.04x64-mingw32/gcc-build/avr/avr6/libgcc/../../../../gcc/libgcc/config/avr/lib1funcs.S:1704
    3a88:	21 95       	neg	r18
/home/jenkins-mingw32/workspace/avr-gcc-staging/label/Ubuntu14.04x64-mingw32/gcc-build/avr/avr6/libgcc/../../../../gcc/libgcc/config/avr/lib1funcs.S:1705
    3a8a:	3f 4f       	sbci	r19, 0xFF	; 255
/home/jenkins-mingw32/workspace/avr-gcc-staging/label/Ubuntu14.04x64-mingw32/gcc-build/avr/avr6/libgcc/../../../../gcc/libgcc/config/avr/lib1funcs.S:1706
    3a8c:	4f 4f       	sbci	r20, 0xFF	; 255
/home/jenkins-mingw32/workspace/avr-gcc-staging/label/Ubuntu14.04x64-mingw32/gcc-build/avr/avr6/libgcc/../../../../gcc/libgcc/config/avr/lib1funcs.S:1707
    3a8e:	5f 4f       	sbci	r21, 0xFF	; 255

00003a90 <__divmodsi4_exit>:
/home/jenkins-mingw32/workspace/avr-gcc-staging/label/Ubuntu14.04x64-mingw32/gcc-build/avr/avr6/libgcc/../../../../gcc/libgcc/config/avr/lib1funcs.S:1709
    3a90:	08 95       	ret

00003a92 <__negsi2>:
__negsi2():
/home/jenkins-mingw32/workspace/avr-gcc-staging/label/Ubuntu14.04x64-mingw32/gcc-build/avr/avr6/libgcc/../../../../gcc/libgcc/config/avr/lib1funcs.S:1718
    3a92:	90 95       	com	r25
    3a94:	80 95       	com	r24
    3a96:	70 95       	com	r23
    3a98:	61 95       	neg	r22
    3a9a:	7f 4f       	sbci	r23, 0xFF	; 255
    3a9c:	8f 4f       	sbci	r24, 0xFF	; 255
    3a9e:	9f 4f       	sbci	r25, 0xFF	; 255
/home/jenkins-mingw32/workspace/avr-gcc-staging/label/Ubuntu14.04x64-mingw32/gcc-build/avr/avr6/libgcc/../../../../gcc/libgcc/config/avr/lib1funcs.S:1719
    3aa0:	08 95       	ret

00003aa2 <__tablejump2__>:
__tablejump2__():
/home/jenkins-mingw32/workspace/avr-gcc-staging/label/Ubuntu14.04x64-mingw32/gcc-build/avr/avr6/libgcc/../../../../gcc/libgcc/config/avr/lib1funcs.S:2296
    3aa2:	ee 0f       	add	r30, r30
/home/jenkins-mingw32/workspace/avr-gcc-staging/label/Ubuntu14.04x64-mingw32/gcc-build/avr/avr6/libgcc/../../../../gcc/libgcc/config/avr/lib1funcs.S:2297
    3aa4:	ff 1f       	adc	r31, r31
/home/jenkins-mingw32/workspace/avr-gcc-staging/label/Ubuntu14.04x64-mingw32/gcc-build/avr/avr6/libgcc/../../../../gcc/libgcc/config/avr/lib1funcs.S:2300
    3aa6:	88 1f       	adc	r24, r24
/home/jenkins-mingw32/workspace/avr-gcc-staging/label/Ubuntu14.04x64-mingw32/gcc-build/avr/avr6/libgcc/../../../../gcc/libgcc/config/avr/lib1funcs.S:2301
    3aa8:	8b bf       	out	0x3b, r24	; 59
/home/jenkins-mingw32/workspace/avr-gcc-staging/label/Ubuntu14.04x64-mingw32/gcc-build/avr/avr6/libgcc/../../../../gcc/libgcc/config/avr/lib1funcs.S:2312
    3aaa:	07 90       	elpm	r0, Z+
/home/jenkins-mingw32/workspace/avr-gcc-staging/label/Ubuntu14.04x64-mingw32/gcc-build/avr/avr6/libgcc/../../../../gcc/libgcc/config/avr/lib1funcs.S:2313
    3aac:	f6 91       	elpm	r31, Z
/home/jenkins-mingw32/workspace/avr-gcc-staging/label/Ubuntu14.04x64-mingw32/gcc-build/avr/avr6/libgcc/../../../../gcc/libgcc/config/avr/lib1funcs.S:2314
    3aae:	e0 2d       	mov	r30, r0
/home/jenkins-mingw32/workspace/avr-gcc-staging/label/Ubuntu14.04x64-mingw32/gcc-build/avr/avr6/libgcc/../../../../gcc/libgcc/config/avr/lib1funcs.S:2319
    3ab0:	19 94       	eijmp

00003ab2 <__muluhisi3>:
__muluhisi3():
/home/jenkins-mingw32/workspace/avr-gcc-staging/label/Ubuntu14.04x64-mingw32/gcc-build/avr/avr6/libgcc/../../../../gcc/libgcc/config/avr/lib1funcs.S:626
    3ab2:	0e 94 64 1d 	call	0x3ac8	; 0x3ac8 <__umulhisi3>
/home/jenkins-mingw32/workspace/avr-gcc-staging/label/Ubuntu14.04x64-mingw32/gcc-build/avr/avr6/libgcc/../../../../gcc/libgcc/config/avr/lib1funcs.S:627
    3ab6:	a5 9f       	mul	r26, r21
/home/jenkins-mingw32/workspace/avr-gcc-staging/label/Ubuntu14.04x64-mingw32/gcc-build/avr/avr6/libgcc/../../../../gcc/libgcc/config/avr/lib1funcs.S:628
    3ab8:	90 0d       	add	r25, r0
/home/jenkins-mingw32/workspace/avr-gcc-staging/label/Ubuntu14.04x64-mingw32/gcc-build/avr/avr6/libgcc/../../../../gcc/libgcc/config/avr/lib1funcs.S:629
    3aba:	b4 9f       	mul	r27, r20
/home/jenkins-mingw32/workspace/avr-gcc-staging/label/Ubuntu14.04x64-mingw32/gcc-build/avr/avr6/libgcc/../../../../gcc/libgcc/config/avr/lib1funcs.S:630
    3abc:	90 0d       	add	r25, r0
/home/jenkins-mingw32/workspace/avr-gcc-staging/label/Ubuntu14.04x64-mingw32/gcc-build/avr/avr6/libgcc/../../../../gcc/libgcc/config/avr/lib1funcs.S:631
    3abe:	a4 9f       	mul	r26, r20
/home/jenkins-mingw32/workspace/avr-gcc-staging/label/Ubuntu14.04x64-mingw32/gcc-build/avr/avr6/libgcc/../../../../gcc/libgcc/config/avr/lib1funcs.S:632
    3ac0:	80 0d       	add	r24, r0
/home/jenkins-mingw32/workspace/avr-gcc-staging/label/Ubuntu14.04x64-mingw32/gcc-build/avr/avr6/libgcc/../../../../gcc/libgcc/config/avr/lib1funcs.S:633
    3ac2:	91 1d       	adc	r25, r1
/home/jenkins-mingw32/workspace/avr-gcc-staging/label/Ubuntu14.04x64-mingw32/gcc-build/avr/avr6/libgcc/../../../../gcc/libgcc/config/avr/lib1funcs.S:634
    3ac4:	11 24       	eor	r1, r1
/home/jenkins-mingw32/workspace/avr-gcc-staging/label/Ubuntu14.04x64-mingw32/gcc-build/avr/avr6/libgcc/../../../../gcc/libgcc/config/avr/lib1funcs.S:635
    3ac6:	08 95       	ret

00003ac8 <__umulhisi3>:
__umulhisi3():
/home/jenkins-mingw32/workspace/avr-gcc-staging/label/Ubuntu14.04x64-mingw32/gcc-build/avr/avr6/libgcc/../../../../gcc/libgcc/config/avr/lib1funcs.S:564
    3ac8:	a2 9f       	mul	r26, r18
/home/jenkins-mingw32/workspace/avr-gcc-staging/label/Ubuntu14.04x64-mingw32/gcc-build/avr/avr6/libgcc/../../../../gcc/libgcc/config/avr/lib1funcs.S:565
    3aca:	b0 01       	movw	r22, r0
/home/jenkins-mingw32/workspace/avr-gcc-staging/label/Ubuntu14.04x64-mingw32/gcc-build/avr/avr6/libgcc/../../../../gcc/libgcc/config/avr/lib1funcs.S:566
    3acc:	b3 9f       	mul	r27, r19
/home/jenkins-mingw32/workspace/avr-gcc-staging/label/Ubuntu14.04x64-mingw32/gcc-build/avr/avr6/libgcc/../../../../gcc/libgcc/config/avr/lib1funcs.S:567
    3ace:	c0 01       	movw	r24, r0
/home/jenkins-mingw32/workspace/avr-gcc-staging/label/Ubuntu14.04x64-mingw32/gcc-build/avr/avr6/libgcc/../../../../gcc/libgcc/config/avr/lib1funcs.S:568
    3ad0:	a3 9f       	mul	r26, r19
/home/jenkins-mingw32/workspace/avr-gcc-staging/label/Ubuntu14.04x64-mingw32/gcc-build/avr/avr6/libgcc/../../../../gcc/libgcc/config/avr/lib1funcs.S:573
    3ad2:	70 0d       	add	r23, r0
/home/jenkins-mingw32/workspace/avr-gcc-staging/label/Ubuntu14.04x64-mingw32/gcc-build/avr/avr6/libgcc/../../../../gcc/libgcc/config/avr/lib1funcs.S:574
    3ad4:	81 1d       	adc	r24, r1
/home/jenkins-mingw32/workspace/avr-gcc-staging/label/Ubuntu14.04x64-mingw32/gcc-build/avr/avr6/libgcc/../../../../gcc/libgcc/config/avr/lib1funcs.S:575
    3ad6:	11 24       	eor	r1, r1
/home/jenkins-mingw32/workspace/avr-gcc-staging/label/Ubuntu14.04x64-mingw32/gcc-build/avr/avr6/libgcc/../../../../gcc/libgcc/config/avr/lib1funcs.S:576
    3ad8:	91 1d       	adc	r25, r1
/home/jenkins-mingw32/workspace/avr-gcc-staging/label/Ubuntu14.04x64-mingw32/gcc-build/avr/avr6/libgcc/../../../../gcc/libgcc/config/avr/lib1funcs.S:580
    3ada:	b2 9f       	mul	r27, r18
/home/jenkins-mingw32/workspace/avr-gcc-staging/label/Ubuntu14.04x64-mingw32/gcc-build/avr/avr6/libgcc/../../../../gcc/libgcc/config/avr/lib1funcs.S:581
    3adc:	70 0d       	add	r23, r0
/home/jenkins-mingw32/workspace/avr-gcc-staging/label/Ubuntu14.04x64-mingw32/gcc-build/avr/avr6/libgcc/../../../../gcc/libgcc/config/avr/lib1funcs.S:582
    3ade:	81 1d       	adc	r24, r1
/home/jenkins-mingw32/workspace/avr-gcc-staging/label/Ubuntu14.04x64-mingw32/gcc-build/avr/avr6/libgcc/../../../../gcc/libgcc/config/avr/lib1funcs.S:583
    3ae0:	11 24       	eor	r1, r1
/home/jenkins-mingw32/workspace/avr-gcc-staging/label/Ubuntu14.04x64-mingw32/gcc-build/avr/avr6/libgcc/../../../../gcc/libgcc/config/avr/lib1funcs.S:584
    3ae2:	91 1d       	adc	r25, r1
/home/jenkins-mingw32/workspace/avr-gcc-staging/label/Ubuntu14.04x64-mingw32/gcc-build/avr/avr6/libgcc/../../../../gcc/libgcc/config/avr/lib1funcs.S:585
    3ae4:	08 95       	ret

00003ae6 <eeprom_write_byte>:
eeprom_write_byte():
    3ae6:	26 2f       	mov	r18, r22

00003ae8 <eeprom_write_r18>:
    3ae8:	f9 99       	sbic	0x1f, 1	; 31
    3aea:	fe cf       	rjmp	.-4      	; 0x3ae8 <eeprom_write_r18>
    3aec:	1f ba       	out	0x1f, r1	; 31
    3aee:	92 bd       	out	0x22, r25	; 34
    3af0:	81 bd       	out	0x21, r24	; 33
    3af2:	20 bd       	out	0x20, r18	; 32
    3af4:	0f b6       	in	r0, 0x3f	; 63
    3af6:	f8 94       	cli
    3af8:	fa 9a       	sbi	0x1f, 2	; 31
    3afa:	f9 9a       	sbi	0x1f, 1	; 31
    3afc:	0f be       	out	0x3f, r0	; 63
    3afe:	01 96       	adiw	r24, 0x01	; 1
    3b00:	08 95       	ret

00003b02 <__do_global_dtors>:
__do_global_dtors():
/home/jenkins-mingw32/workspace/avr-gcc-staging/label/Ubuntu14.04x64-mingw32/gcc-build/avr/avr6/libgcc/../../../../gcc/libgcc/config/avr/lib1funcs.S:2496
    3b02:	11 e0       	ldi	r17, 0x01	; 1
/home/jenkins-mingw32/workspace/avr-gcc-staging/label/Ubuntu14.04x64-mingw32/gcc-build/avr/avr6/libgcc/../../../../gcc/libgcc/config/avr/lib1funcs.S:2497
    3b04:	c9 ea       	ldi	r28, 0xA9	; 169
/home/jenkins-mingw32/workspace/avr-gcc-staging/label/Ubuntu14.04x64-mingw32/gcc-build/avr/avr6/libgcc/../../../../gcc/libgcc/config/avr/lib1funcs.S:2498
    3b06:	d1 e0       	ldi	r29, 0x01	; 1
/home/jenkins-mingw32/workspace/avr-gcc-staging/label/Ubuntu14.04x64-mingw32/gcc-build/avr/avr6/libgcc/../../../../gcc/libgcc/config/avr/lib1funcs.S:2500
    3b08:	00 e0       	ldi	r16, 0x00	; 0
/home/jenkins-mingw32/workspace/avr-gcc-staging/label/Ubuntu14.04x64-mingw32/gcc-build/avr/avr6/libgcc/../../../../gcc/libgcc/config/avr/lib1funcs.S:2502
    3b0a:	06 c0       	rjmp	.+12     	; 0x3b18 <__do_global_dtors+0x16>
/home/jenkins-mingw32/workspace/avr-gcc-staging/label/Ubuntu14.04x64-mingw32/gcc-build/avr/avr6/libgcc/../../../../gcc/libgcc/config/avr/lib1funcs.S:2505
    3b0c:	80 2f       	mov	r24, r16
/home/jenkins-mingw32/workspace/avr-gcc-staging/label/Ubuntu14.04x64-mingw32/gcc-build/avr/avr6/libgcc/../../../../gcc/libgcc/config/avr/lib1funcs.S:2508
    3b0e:	fe 01       	movw	r30, r28
/home/jenkins-mingw32/workspace/avr-gcc-staging/label/Ubuntu14.04x64-mingw32/gcc-build/avr/avr6/libgcc/../../../../gcc/libgcc/config/avr/lib1funcs.S:2509
    3b10:	0e 94 51 1d 	call	0x3aa2	; 0x3aa2 <__tablejump2__>
/home/jenkins-mingw32/workspace/avr-gcc-staging/label/Ubuntu14.04x64-mingw32/gcc-build/avr/avr6/libgcc/../../../../gcc/libgcc/config/avr/lib1funcs.S:2510
    3b14:	21 96       	adiw	r28, 0x01	; 1
/home/jenkins-mingw32/workspace/avr-gcc-staging/label/Ubuntu14.04x64-mingw32/gcc-build/avr/avr6/libgcc/../../../../gcc/libgcc/config/avr/lib1funcs.S:2512
    3b16:	01 1d       	adc	r16, r1
/home/jenkins-mingw32/workspace/avr-gcc-staging/label/Ubuntu14.04x64-mingw32/gcc-build/avr/avr6/libgcc/../../../../gcc/libgcc/config/avr/lib1funcs.S:2515
    3b18:	ca 3a       	cpi	r28, 0xAA	; 170
/home/jenkins-mingw32/workspace/avr-gcc-staging/label/Ubuntu14.04x64-mingw32/gcc-build/avr/avr6/libgcc/../../../../gcc/libgcc/config/avr/lib1funcs.S:2516
    3b1a:	d1 07       	cpc	r29, r17
/home/jenkins-mingw32/workspace/avr-gcc-staging/label/Ubuntu14.04x64-mingw32/gcc-build/avr/avr6/libgcc/../../../../gcc/libgcc/config/avr/lib1funcs.S:2518
    3b1c:	80 e0       	ldi	r24, 0x00	; 0
/home/jenkins-mingw32/workspace/avr-gcc-staging/label/Ubuntu14.04x64-mingw32/gcc-build/avr/avr6/libgcc/../../../../gcc/libgcc/config/avr/lib1funcs.S:2519
    3b1e:	08 07       	cpc	r16, r24
/home/jenkins-mingw32/workspace/avr-gcc-staging/label/Ubuntu14.04x64-mingw32/gcc-build/avr/avr6/libgcc/../../../../gcc/libgcc/config/avr/lib1funcs.S:2521
    3b20:	a9 f7       	brne	.-22     	; 0x3b0c <__do_global_dtors+0xa>
/home/jenkins-mingw32/workspace/avr-gcc-staging/label/Ubuntu14.04x64-mingw32/gcc-build/avr/avr6/libgcc/../../../../gcc/libgcc/config/avr/lib1funcs.S:2278
    3b22:	f8 94       	cli

00003b24 <__stop_program>:
__stop_program():
/home/jenkins-mingw32/workspace/avr-gcc-staging/label/Ubuntu14.04x64-mingw32/gcc-build/avr/avr6/libgcc/../../../../gcc/libgcc/config/avr/lib1funcs.S:2280
    3b24:	ff cf       	rjmp	.-2      	; 0x3b24 <__stop_program>
